
ff_test_mem.elf:     file format elf32-littlearm

Sections:
Idx Name          Size      VMA       LMA       File off  Algn
  0 .interp       00000013  00008134  00008134  00000134  2**0
                  CONTENTS, ALLOC, LOAD, READONLY, DATA
  1 .note.ABI-tag 00000020  00008148  00008148  00000148  2**2
                  CONTENTS, ALLOC, LOAD, READONLY, DATA, LINK_ONCE_SAME_CONTENTS
  2 .hash         00000294  00008168  00008168  00000168  2**2
                  CONTENTS, ALLOC, LOAD, READONLY, DATA
  3 .dynsym       00000600  000083fc  000083fc  000003fc  2**2
                  CONTENTS, ALLOC, LOAD, READONLY, DATA
  4 .dynstr       0000091d  000089fc  000089fc  000009fc  2**0
                  CONTENTS, ALLOC, LOAD, READONLY, DATA
  5 .gnu.version  000000c0  0000931a  0000931a  0000131a  2**1
                  CONTENTS, ALLOC, LOAD, READONLY, DATA
  6 .gnu.version_r 000000f0  000093dc  000093dc  000013dc  2**2
                  CONTENTS, ALLOC, LOAD, READONLY, DATA
  7 .rel.dyn      00000008  000094cc  000094cc  000014cc  2**2
                  CONTENTS, ALLOC, LOAD, READONLY, DATA
  8 .rel.plt      000002d0  000094d4  000094d4  000014d4  2**2
                  CONTENTS, ALLOC, LOAD, READONLY, DATA
  9 .init         0000000c  000097a4  000097a4  000017a4  2**2
                  CONTENTS, ALLOC, LOAD, READONLY, CODE
 10 .plt          0000044c  000097b0  000097b0  000017b0  2**2
                  CONTENTS, ALLOC, LOAD, READONLY, CODE
 11 .text         00003984  00009c00  00009c00  00001c00  2**3
                  CONTENTS, ALLOC, LOAD, READONLY, CODE
 12 .fini         00000008  0000d584  0000d584  00005584  2**2
                  CONTENTS, ALLOC, LOAD, READONLY, CODE
 13 .rodata       000007c0  0000d58c  0000d58c  0000558c  2**2
                  CONTENTS, ALLOC, LOAD, READONLY, DATA
 14 .ARM.extab    000003d8  0000dd4c  0000dd4c  00005d4c  2**2
                  CONTENTS, ALLOC, LOAD, READONLY, DATA
 15 .ARM.exidx    00000320  0000e124  0000e124  00006124  2**2
                  CONTENTS, ALLOC, LOAD, READONLY, DATA
 16 .eh_frame     00000004  0000e444  0000e444  00006444  2**2
                  CONTENTS, ALLOC, LOAD, READONLY, DATA
 17 .init_array   0000001c  00016448  00016448  00006448  2**2
                  CONTENTS, ALLOC, LOAD, DATA
 18 .fini_array   00000004  00016464  00016464  00006464  2**2
                  CONTENTS, ALLOC, LOAD, DATA
 19 .jcr          00000004  00016468  00016468  00006468  2**2
                  CONTENTS, ALLOC, LOAD, DATA
 20 .dynamic      00000130  0001646c  0001646c  0000646c  2**2
                  CONTENTS, ALLOC, LOAD, DATA
 21 .got          00000178  0001659c  0001659c  0000659c  2**2
                  CONTENTS, ALLOC, LOAD, DATA
 22 .data         00000048  00016714  00016714  00006714  2**2
                  CONTENTS, ALLOC, LOAD, DATA
 23 .bss          00000834  00016760  00016760  0000675c  2**3
                  ALLOC
 24 .ARM.attributes 00000034  00000000  00000000  0000675c  2**0
                  CONTENTS, READONLY
 25 .comment      00000102  00000000  00000000  00006790  2**0
                  CONTENTS, READONLY
 26 .debug_aranges 00000178  00000000  00000000  00006892  2**0
                  CONTENTS, READONLY, DEBUGGING
 27 .debug_pubnames 00000ff4  00000000  00000000  00006a0a  2**0
                  CONTENTS, READONLY, DEBUGGING
 28 .debug_info   0002aa22  00000000  00000000  000079fe  2**0
                  CONTENTS, READONLY, DEBUGGING
 29 .debug_abbrev 00002781  00000000  00000000  00032420  2**0
                  CONTENTS, READONLY, DEBUGGING
 30 .debug_line   00006ec6  00000000  00000000  00034ba1  2**0
                  CONTENTS, READONLY, DEBUGGING
 31 .debug_frame  00000c5c  00000000  00000000  0003ba68  2**2
                  CONTENTS, READONLY, DEBUGGING
 32 .debug_str    0000a18f  00000000  00000000  0003c6c4  2**0
                  CONTENTS, READONLY, DEBUGGING
 33 .debug_loc    000013a7  00000000  00000000  00046853  2**0
                  CONTENTS, READONLY, DEBUGGING
 34 .debug_macinfo 0009179e  00000000  00000000  00047bfa  2**0
                  CONTENTS, READONLY, DEBUGGING
 35 .debug_ranges 00000220  00000000  00000000  000d9398  2**0
                  CONTENTS, READONLY, DEBUGGING

Disassembly of section .init:

000097a4 <_init>:
    97a4:	e92d4010 	push	{r4, lr}
    97a8:	eb000122 	bl	9c38 <call_gmon_start>
    97ac:	e8bd8010 	pop	{r4, pc}

Disassembly of section .plt:

000097b0 <.plt>:
    97b0:	e52de004 	push	{lr}		; (str lr, [sp, #-4]!)
    97b4:	e59fe004 	ldr	lr, [pc, #4]	; 97c0 <_init+0x1c>
    97b8:	e08fe00e 	add	lr, pc, lr
    97bc:	e5bef008 	ldr	pc, [lr, #8]!
    97c0:	0000cddc 	.word	0x0000cddc
    97c4:	e28fc600 	add	ip, pc, #0	; 0x0
    97c8:	e28cca0c 	add	ip, ip, #49152	; 0xc000
    97cc:	e5bcfddc 	ldr	pc, [ip, #3548]!
    97d0:	e28fc600 	add	ip, pc, #0	; 0x0
    97d4:	e28cca0c 	add	ip, ip, #49152	; 0xc000
    97d8:	e5bcfdd4 	ldr	pc, [ip, #3540]!
    97dc:	e28fc600 	add	ip, pc, #0	; 0x0
    97e0:	e28cca0c 	add	ip, ip, #49152	; 0xc000
    97e4:	e5bcfdcc 	ldr	pc, [ip, #3532]!
    97e8:	e28fc600 	add	ip, pc, #0	; 0x0
    97ec:	e28cca0c 	add	ip, ip, #49152	; 0xc000
    97f0:	e5bcfdc4 	ldr	pc, [ip, #3524]!
    97f4:	e28fc600 	add	ip, pc, #0	; 0x0
    97f8:	e28cca0c 	add	ip, ip, #49152	; 0xc000
    97fc:	e5bcfdbc 	ldr	pc, [ip, #3516]!
    9800:	e28fc600 	add	ip, pc, #0	; 0x0
    9804:	e28cca0c 	add	ip, ip, #49152	; 0xc000
    9808:	e5bcfdb4 	ldr	pc, [ip, #3508]!
    980c:	e28fc600 	add	ip, pc, #0	; 0x0
    9810:	e28cca0c 	add	ip, ip, #49152	; 0xc000
    9814:	e5bcfdac 	ldr	pc, [ip, #3500]!
    9818:	e28fc600 	add	ip, pc, #0	; 0x0
    981c:	e28cca0c 	add	ip, ip, #49152	; 0xc000
    9820:	e5bcfda4 	ldr	pc, [ip, #3492]!
    9824:	e28fc600 	add	ip, pc, #0	; 0x0
    9828:	e28cca0c 	add	ip, ip, #49152	; 0xc000
    982c:	e5bcfd9c 	ldr	pc, [ip, #3484]!
    9830:	e28fc600 	add	ip, pc, #0	; 0x0
    9834:	e28cca0c 	add	ip, ip, #49152	; 0xc000
    9838:	e5bcfd94 	ldr	pc, [ip, #3476]!
    983c:	e28fc600 	add	ip, pc, #0	; 0x0
    9840:	e28cca0c 	add	ip, ip, #49152	; 0xc000
    9844:	e5bcfd8c 	ldr	pc, [ip, #3468]!
    9848:	e28fc600 	add	ip, pc, #0	; 0x0
    984c:	e28cca0c 	add	ip, ip, #49152	; 0xc000
    9850:	e5bcfd84 	ldr	pc, [ip, #3460]!
    9854:	e28fc600 	add	ip, pc, #0	; 0x0
    9858:	e28cca0c 	add	ip, ip, #49152	; 0xc000
    985c:	e5bcfd7c 	ldr	pc, [ip, #3452]!
    9860:	e28fc600 	add	ip, pc, #0	; 0x0
    9864:	e28cca0c 	add	ip, ip, #49152	; 0xc000
    9868:	e5bcfd74 	ldr	pc, [ip, #3444]!
    986c:	e28fc600 	add	ip, pc, #0	; 0x0
    9870:	e28cca0c 	add	ip, ip, #49152	; 0xc000
    9874:	e5bcfd6c 	ldr	pc, [ip, #3436]!
    9878:	e28fc600 	add	ip, pc, #0	; 0x0
    987c:	e28cca0c 	add	ip, ip, #49152	; 0xc000
    9880:	e5bcfd64 	ldr	pc, [ip, #3428]!
    9884:	e28fc600 	add	ip, pc, #0	; 0x0
    9888:	e28cca0c 	add	ip, ip, #49152	; 0xc000
    988c:	e5bcfd5c 	ldr	pc, [ip, #3420]!
    9890:	e28fc600 	add	ip, pc, #0	; 0x0
    9894:	e28cca0c 	add	ip, ip, #49152	; 0xc000
    9898:	e5bcfd54 	ldr	pc, [ip, #3412]!
    989c:	e28fc600 	add	ip, pc, #0	; 0x0
    98a0:	e28cca0c 	add	ip, ip, #49152	; 0xc000
    98a4:	e5bcfd4c 	ldr	pc, [ip, #3404]!
    98a8:	e28fc600 	add	ip, pc, #0	; 0x0
    98ac:	e28cca0c 	add	ip, ip, #49152	; 0xc000
    98b0:	e5bcfd44 	ldr	pc, [ip, #3396]!
    98b4:	e28fc600 	add	ip, pc, #0	; 0x0
    98b8:	e28cca0c 	add	ip, ip, #49152	; 0xc000
    98bc:	e5bcfd3c 	ldr	pc, [ip, #3388]!
    98c0:	e28fc600 	add	ip, pc, #0	; 0x0
    98c4:	e28cca0c 	add	ip, ip, #49152	; 0xc000
    98c8:	e5bcfd34 	ldr	pc, [ip, #3380]!
    98cc:	e28fc600 	add	ip, pc, #0	; 0x0
    98d0:	e28cca0c 	add	ip, ip, #49152	; 0xc000
    98d4:	e5bcfd2c 	ldr	pc, [ip, #3372]!
    98d8:	e28fc600 	add	ip, pc, #0	; 0x0
    98dc:	e28cca0c 	add	ip, ip, #49152	; 0xc000
    98e0:	e5bcfd24 	ldr	pc, [ip, #3364]!
    98e4:	e28fc600 	add	ip, pc, #0	; 0x0
    98e8:	e28cca0c 	add	ip, ip, #49152	; 0xc000
    98ec:	e5bcfd1c 	ldr	pc, [ip, #3356]!
    98f0:	e28fc600 	add	ip, pc, #0	; 0x0
    98f4:	e28cca0c 	add	ip, ip, #49152	; 0xc000
    98f8:	e5bcfd14 	ldr	pc, [ip, #3348]!
    98fc:	e28fc600 	add	ip, pc, #0	; 0x0
    9900:	e28cca0c 	add	ip, ip, #49152	; 0xc000
    9904:	e5bcfd0c 	ldr	pc, [ip, #3340]!
    9908:	e28fc600 	add	ip, pc, #0	; 0x0
    990c:	e28cca0c 	add	ip, ip, #49152	; 0xc000
    9910:	e5bcfd04 	ldr	pc, [ip, #3332]!
    9914:	e28fc600 	add	ip, pc, #0	; 0x0
    9918:	e28cca0c 	add	ip, ip, #49152	; 0xc000
    991c:	e5bcfcfc 	ldr	pc, [ip, #3324]!
    9920:	e28fc600 	add	ip, pc, #0	; 0x0
    9924:	e28cca0c 	add	ip, ip, #49152	; 0xc000
    9928:	e5bcfcf4 	ldr	pc, [ip, #3316]!
    992c:	e28fc600 	add	ip, pc, #0	; 0x0
    9930:	e28cca0c 	add	ip, ip, #49152	; 0xc000
    9934:	e5bcfcec 	ldr	pc, [ip, #3308]!
    9938:	e28fc600 	add	ip, pc, #0	; 0x0
    993c:	e28cca0c 	add	ip, ip, #49152	; 0xc000
    9940:	e5bcfce4 	ldr	pc, [ip, #3300]!
    9944:	e28fc600 	add	ip, pc, #0	; 0x0
    9948:	e28cca0c 	add	ip, ip, #49152	; 0xc000
    994c:	e5bcfcdc 	ldr	pc, [ip, #3292]!
    9950:	e28fc600 	add	ip, pc, #0	; 0x0
    9954:	e28cca0c 	add	ip, ip, #49152	; 0xc000
    9958:	e5bcfcd4 	ldr	pc, [ip, #3284]!
    995c:	e28fc600 	add	ip, pc, #0	; 0x0
    9960:	e28cca0c 	add	ip, ip, #49152	; 0xc000
    9964:	e5bcfccc 	ldr	pc, [ip, #3276]!
    9968:	e28fc600 	add	ip, pc, #0	; 0x0
    996c:	e28cca0c 	add	ip, ip, #49152	; 0xc000
    9970:	e5bcfcc4 	ldr	pc, [ip, #3268]!
    9974:	e28fc600 	add	ip, pc, #0	; 0x0
    9978:	e28cca0c 	add	ip, ip, #49152	; 0xc000
    997c:	e5bcfcbc 	ldr	pc, [ip, #3260]!
    9980:	e28fc600 	add	ip, pc, #0	; 0x0
    9984:	e28cca0c 	add	ip, ip, #49152	; 0xc000
    9988:	e5bcfcb4 	ldr	pc, [ip, #3252]!
    998c:	e28fc600 	add	ip, pc, #0	; 0x0
    9990:	e28cca0c 	add	ip, ip, #49152	; 0xc000
    9994:	e5bcfcac 	ldr	pc, [ip, #3244]!
    9998:	e28fc600 	add	ip, pc, #0	; 0x0
    999c:	e28cca0c 	add	ip, ip, #49152	; 0xc000
    99a0:	e5bcfca4 	ldr	pc, [ip, #3236]!
    99a4:	e28fc600 	add	ip, pc, #0	; 0x0
    99a8:	e28cca0c 	add	ip, ip, #49152	; 0xc000
    99ac:	e5bcfc9c 	ldr	pc, [ip, #3228]!
    99b0:	e28fc600 	add	ip, pc, #0	; 0x0
    99b4:	e28cca0c 	add	ip, ip, #49152	; 0xc000
    99b8:	e5bcfc94 	ldr	pc, [ip, #3220]!
    99bc:	e28fc600 	add	ip, pc, #0	; 0x0
    99c0:	e28cca0c 	add	ip, ip, #49152	; 0xc000
    99c4:	e5bcfc8c 	ldr	pc, [ip, #3212]!
    99c8:	e28fc600 	add	ip, pc, #0	; 0x0
    99cc:	e28cca0c 	add	ip, ip, #49152	; 0xc000
    99d0:	e5bcfc84 	ldr	pc, [ip, #3204]!
    99d4:	e28fc600 	add	ip, pc, #0	; 0x0
    99d8:	e28cca0c 	add	ip, ip, #49152	; 0xc000
    99dc:	e5bcfc7c 	ldr	pc, [ip, #3196]!
    99e0:	e28fc600 	add	ip, pc, #0	; 0x0
    99e4:	e28cca0c 	add	ip, ip, #49152	; 0xc000
    99e8:	e5bcfc74 	ldr	pc, [ip, #3188]!
    99ec:	e28fc600 	add	ip, pc, #0	; 0x0
    99f0:	e28cca0c 	add	ip, ip, #49152	; 0xc000
    99f4:	e5bcfc6c 	ldr	pc, [ip, #3180]!
    99f8:	e28fc600 	add	ip, pc, #0	; 0x0
    99fc:	e28cca0c 	add	ip, ip, #49152	; 0xc000
    9a00:	e5bcfc64 	ldr	pc, [ip, #3172]!
    9a04:	e28fc600 	add	ip, pc, #0	; 0x0
    9a08:	e28cca0c 	add	ip, ip, #49152	; 0xc000
    9a0c:	e5bcfc5c 	ldr	pc, [ip, #3164]!
    9a10:	e28fc600 	add	ip, pc, #0	; 0x0
    9a14:	e28cca0c 	add	ip, ip, #49152	; 0xc000
    9a18:	e5bcfc54 	ldr	pc, [ip, #3156]!
    9a1c:	e28fc600 	add	ip, pc, #0	; 0x0
    9a20:	e28cca0c 	add	ip, ip, #49152	; 0xc000
    9a24:	e5bcfc4c 	ldr	pc, [ip, #3148]!
    9a28:	e28fc600 	add	ip, pc, #0	; 0x0
    9a2c:	e28cca0c 	add	ip, ip, #49152	; 0xc000
    9a30:	e5bcfc44 	ldr	pc, [ip, #3140]!
    9a34:	e28fc600 	add	ip, pc, #0	; 0x0
    9a38:	e28cca0c 	add	ip, ip, #49152	; 0xc000
    9a3c:	e5bcfc3c 	ldr	pc, [ip, #3132]!
    9a40:	e28fc600 	add	ip, pc, #0	; 0x0
    9a44:	e28cca0c 	add	ip, ip, #49152	; 0xc000
    9a48:	e5bcfc34 	ldr	pc, [ip, #3124]!
    9a4c:	e28fc600 	add	ip, pc, #0	; 0x0
    9a50:	e28cca0c 	add	ip, ip, #49152	; 0xc000
    9a54:	e5bcfc2c 	ldr	pc, [ip, #3116]!
    9a58:	e28fc600 	add	ip, pc, #0	; 0x0
    9a5c:	e28cca0c 	add	ip, ip, #49152	; 0xc000
    9a60:	e5bcfc24 	ldr	pc, [ip, #3108]!
    9a64:	e28fc600 	add	ip, pc, #0	; 0x0
    9a68:	e28cca0c 	add	ip, ip, #49152	; 0xc000
    9a6c:	e5bcfc1c 	ldr	pc, [ip, #3100]!
    9a70:	e28fc600 	add	ip, pc, #0	; 0x0
    9a74:	e28cca0c 	add	ip, ip, #49152	; 0xc000
    9a78:	e5bcfc14 	ldr	pc, [ip, #3092]!
    9a7c:	e28fc600 	add	ip, pc, #0	; 0x0
    9a80:	e28cca0c 	add	ip, ip, #49152	; 0xc000
    9a84:	e5bcfc0c 	ldr	pc, [ip, #3084]!
    9a88:	e28fc600 	add	ip, pc, #0	; 0x0
    9a8c:	e28cca0c 	add	ip, ip, #49152	; 0xc000
    9a90:	e5bcfc04 	ldr	pc, [ip, #3076]!
    9a94:	e28fc600 	add	ip, pc, #0	; 0x0
    9a98:	e28cca0c 	add	ip, ip, #49152	; 0xc000
    9a9c:	e5bcfbfc 	ldr	pc, [ip, #3068]!
    9aa0:	e28fc600 	add	ip, pc, #0	; 0x0
    9aa4:	e28cca0c 	add	ip, ip, #49152	; 0xc000
    9aa8:	e5bcfbf4 	ldr	pc, [ip, #3060]!
    9aac:	e28fc600 	add	ip, pc, #0	; 0x0
    9ab0:	e28cca0c 	add	ip, ip, #49152	; 0xc000
    9ab4:	e5bcfbec 	ldr	pc, [ip, #3052]!
    9ab8:	e28fc600 	add	ip, pc, #0	; 0x0
    9abc:	e28cca0c 	add	ip, ip, #49152	; 0xc000
    9ac0:	e5bcfbe4 	ldr	pc, [ip, #3044]!
    9ac4:	e28fc600 	add	ip, pc, #0	; 0x0
    9ac8:	e28cca0c 	add	ip, ip, #49152	; 0xc000
    9acc:	e5bcfbdc 	ldr	pc, [ip, #3036]!
    9ad0:	e28fc600 	add	ip, pc, #0	; 0x0
    9ad4:	e28cca0c 	add	ip, ip, #49152	; 0xc000
    9ad8:	e5bcfbd4 	ldr	pc, [ip, #3028]!
    9adc:	e28fc600 	add	ip, pc, #0	; 0x0
    9ae0:	e28cca0c 	add	ip, ip, #49152	; 0xc000
    9ae4:	e5bcfbcc 	ldr	pc, [ip, #3020]!
    9ae8:	e28fc600 	add	ip, pc, #0	; 0x0
    9aec:	e28cca0c 	add	ip, ip, #49152	; 0xc000
    9af0:	e5bcfbc4 	ldr	pc, [ip, #3012]!
    9af4:	e28fc600 	add	ip, pc, #0	; 0x0
    9af8:	e28cca0c 	add	ip, ip, #49152	; 0xc000
    9afc:	e5bcfbbc 	ldr	pc, [ip, #3004]!
    9b00:	e28fc600 	add	ip, pc, #0	; 0x0
    9b04:	e28cca0c 	add	ip, ip, #49152	; 0xc000
    9b08:	e5bcfbb4 	ldr	pc, [ip, #2996]!
    9b0c:	e28fc600 	add	ip, pc, #0	; 0x0
    9b10:	e28cca0c 	add	ip, ip, #49152	; 0xc000
    9b14:	e5bcfbac 	ldr	pc, [ip, #2988]!
    9b18:	e28fc600 	add	ip, pc, #0	; 0x0
    9b1c:	e28cca0c 	add	ip, ip, #49152	; 0xc000
    9b20:	e5bcfba4 	ldr	pc, [ip, #2980]!
    9b24:	e28fc600 	add	ip, pc, #0	; 0x0
    9b28:	e28cca0c 	add	ip, ip, #49152	; 0xc000
    9b2c:	e5bcfb9c 	ldr	pc, [ip, #2972]!
    9b30:	e28fc600 	add	ip, pc, #0	; 0x0
    9b34:	e28cca0c 	add	ip, ip, #49152	; 0xc000
    9b38:	e5bcfb94 	ldr	pc, [ip, #2964]!
    9b3c:	e28fc600 	add	ip, pc, #0	; 0x0
    9b40:	e28cca0c 	add	ip, ip, #49152	; 0xc000
    9b44:	e5bcfb8c 	ldr	pc, [ip, #2956]!
    9b48:	e28fc600 	add	ip, pc, #0	; 0x0
    9b4c:	e28cca0c 	add	ip, ip, #49152	; 0xc000
    9b50:	e5bcfb84 	ldr	pc, [ip, #2948]!
    9b54:	e28fc600 	add	ip, pc, #0	; 0x0
    9b58:	e28cca0c 	add	ip, ip, #49152	; 0xc000
    9b5c:	e5bcfb7c 	ldr	pc, [ip, #2940]!
    9b60:	e28fc600 	add	ip, pc, #0	; 0x0
    9b64:	e28cca0c 	add	ip, ip, #49152	; 0xc000
    9b68:	e5bcfb74 	ldr	pc, [ip, #2932]!
    9b6c:	e28fc600 	add	ip, pc, #0	; 0x0
    9b70:	e28cca0c 	add	ip, ip, #49152	; 0xc000
    9b74:	e5bcfb6c 	ldr	pc, [ip, #2924]!
    9b78:	e28fc600 	add	ip, pc, #0	; 0x0
    9b7c:	e28cca0c 	add	ip, ip, #49152	; 0xc000
    9b80:	e5bcfb64 	ldr	pc, [ip, #2916]!
    9b84:	e28fc600 	add	ip, pc, #0	; 0x0
    9b88:	e28cca0c 	add	ip, ip, #49152	; 0xc000
    9b8c:	e5bcfb5c 	ldr	pc, [ip, #2908]!
    9b90:	e28fc600 	add	ip, pc, #0	; 0x0
    9b94:	e28cca0c 	add	ip, ip, #49152	; 0xc000
    9b98:	e5bcfb54 	ldr	pc, [ip, #2900]!
    9b9c:	e28fc600 	add	ip, pc, #0	; 0x0
    9ba0:	e28cca0c 	add	ip, ip, #49152	; 0xc000
    9ba4:	e5bcfb4c 	ldr	pc, [ip, #2892]!
    9ba8:	e28fc600 	add	ip, pc, #0	; 0x0
    9bac:	e28cca0c 	add	ip, ip, #49152	; 0xc000
    9bb0:	e5bcfb44 	ldr	pc, [ip, #2884]!
    9bb4:	e28fc600 	add	ip, pc, #0	; 0x0
    9bb8:	e28cca0c 	add	ip, ip, #49152	; 0xc000
    9bbc:	e5bcfb3c 	ldr	pc, [ip, #2876]!
    9bc0:	e28fc600 	add	ip, pc, #0	; 0x0
    9bc4:	e28cca0c 	add	ip, ip, #49152	; 0xc000
    9bc8:	e5bcfb34 	ldr	pc, [ip, #2868]!
    9bcc:	e28fc600 	add	ip, pc, #0	; 0x0
    9bd0:	e28cca0c 	add	ip, ip, #49152	; 0xc000
    9bd4:	e5bcfb2c 	ldr	pc, [ip, #2860]!
    9bd8:	e28fc600 	add	ip, pc, #0	; 0x0
    9bdc:	e28cca0c 	add	ip, ip, #49152	; 0xc000
    9be0:	e5bcfb24 	ldr	pc, [ip, #2852]!
    9be4:	e28fc600 	add	ip, pc, #0	; 0x0
    9be8:	e28cca0c 	add	ip, ip, #49152	; 0xc000
    9bec:	e5bcfb1c 	ldr	pc, [ip, #2844]!
    9bf0:	e28fc600 	add	ip, pc, #0	; 0x0
    9bf4:	e28cca0c 	add	ip, ip, #49152	; 0xc000
    9bf8:	e5bcfb14 	ldr	pc, [ip, #2836]!

Disassembly of section .text:

00009c00 <_start>:
    9c00:	e59fc024 	ldr	ip, [pc, #36]	; 9c2c <_start+0x2c>
    9c04:	e3a0b000 	mov	fp, #0	; 0x0
    9c08:	e49d1004 	pop	{r1}		; (ldr r1, [sp], #4)
    9c0c:	e1a0200d 	mov	r2, sp
    9c10:	e52d2004 	push	{r2}		; (str r2, [sp, #-4]!)
    9c14:	e52d0004 	push	{r0}		; (str r0, [sp, #-4]!)
    9c18:	e59f0010 	ldr	r0, [pc, #16]	; 9c30 <_start+0x30>
    9c1c:	e59f3010 	ldr	r3, [pc, #16]	; 9c34 <_start+0x34>
    9c20:	e52dc004 	push	{ip}		; (str ip, [sp, #-4]!)
    9c24:	ebffff0d 	bl	9860 <_init+0xbc>
    9c28:	ebfffefd 	bl	9824 <_init+0x80>
    9c2c:	0000d514 	.word	0x0000d514
    9c30:	0000c645 	.word	0x0000c645
    9c34:	0000d518 	.word	0x0000d518

00009c38 <call_gmon_start>:
    9c38:	e59f3014 	ldr	r3, [pc, #20]	; 9c54 <call_gmon_start+0x1c>
    9c3c:	e59f2014 	ldr	r2, [pc, #20]	; 9c58 <call_gmon_start+0x20>
    9c40:	e08f3003 	add	r3, pc, r3
    9c44:	e7931002 	ldr	r1, [r3, r2]
    9c48:	e3510000 	cmp	r1, #0	; 0x0
    9c4c:	012fff1e 	bxeq	lr
    9c50:	eaffff0e 	b	9890 <_init+0xec>
    9c54:	0000c954 	.word	0x0000c954
    9c58:	00000174 	.word	0x00000174

00009c5c <__do_global_dtors_aux>:
    9c5c:	e59f2010 	ldr	r2, [pc, #16]	; 9c74 <__do_global_dtors_aux+0x18>
    9c60:	e5d23000 	ldrb	r3, [r2]
    9c64:	e3530000 	cmp	r3, #0	; 0x0
    9c68:	03a03001 	moveq	r3, #1	; 0x1
    9c6c:	05c23000 	strbeq	r3, [r2]
    9c70:	e12fff1e 	bx	lr
    9c74:	00016760 	.word	0x00016760

00009c78 <frame_dummy>:
    9c78:	e59f0020 	ldr	r0, [pc, #32]	; 9ca0 <frame_dummy+0x28>
    9c7c:	e92d4010 	push	{r4, lr}
    9c80:	e5903000 	ldr	r3, [r0]
    9c84:	e3530000 	cmp	r3, #0	; 0x0
    9c88:	08bd8010 	popeq	{r4, pc}
    9c8c:	e59f3010 	ldr	r3, [pc, #16]	; 9ca4 <frame_dummy+0x2c>
    9c90:	e3530000 	cmp	r3, #0	; 0x0
    9c94:	08bd8010 	popeq	{r4, pc}
    9c98:	e12fff33 	blx	r3
    9c9c:	e8bd8010 	pop	{r4, pc}
    9ca0:	00016468 	.word	0x00016468
    9ca4:	00000000 	.word	0x00000000

00009ca8 <_Z41__static_initialization_and_destruction_0ii>:
}

int FfWriterEngine::AppendMemoryData(void)
{
  return SaveMemoryConsumption(GetMemoryConsumption());
}
    9ca8:	b580      	push	{r7, lr}
    9caa:	b082      	sub	sp, #8
    9cac:	af00      	add	r7, sp, #0
    9cae:	6078      	str	r0, [r7, #4]
    9cb0:	6039      	str	r1, [r7, #0]
    9cb2:	687b      	ldr	r3, [r7, #4]
    9cb4:	2b01      	cmp	r3, #1
    9cb6:	d10d      	bne.n	9cd4 <_Z41__static_initialization_and_destruction_0ii+0x2c>
    9cb8:	683a      	ldr	r2, [r7, #0]
    9cba:	4b08      	ldr	r3, [pc, #32]	(9cdc <_Z41__static_initialization_and_destruction_0ii+0x34>)
    9cbc:	429a      	cmp	r2, r3
    9cbe:	d109      	bne.n	9cd4 <_Z41__static_initialization_and_destruction_0ii+0x2c>
  extern wostream wclog;	///< Linked to standard error (buffered)
#endif
  //@}

  // For construction of filebuffers for cout, cin, cerr, clog et. al.
  static ios_base::Init __ioinit;
    9cc0:	4b07      	ldr	r3, [pc, #28]	(9ce0 <_Z41__static_initialization_and_destruction_0ii+0x38>)
    9cc2:	1c18      	adds	r0, r3, #0
    9cc4:	f7ff ee08 	blx	98d8 <_init+0x134>
    9cc8:	4906      	ldr	r1, [pc, #24]	(9ce4 <_Z41__static_initialization_and_destruction_0ii+0x3c>)
    9cca:	4b05      	ldr	r3, [pc, #20]	(9ce0 <_Z41__static_initialization_and_destruction_0ii+0x38>)
    9ccc:	4a06      	ldr	r2, [pc, #24]	(9ce8 <_Z41__static_initialization_and_destruction_0ii+0x40>)
    9cce:	1c18      	adds	r0, r3, #0
    9cd0:	f7ff eefe 	blx	9ad0 <_init+0x32c>
    9cd4:	46bd      	mov	sp, r7
    9cd6:	b002      	add	sp, #8
    9cd8:	bd80      	pop	{r7, pc}
    9cda:	46c0      	nop			(mov r8, r8)
    9cdc:	0000ffff 	.word	0x0000ffff
    9ce0:	00016761 	.word	0x00016761
    9ce4:	00009938 	.word	0x00009938
    9ce8:	00016718 	.word	0x00016718

00009cec <_GLOBAL__I__ZN14FfWriterEngineC2Ev>:
    9cec:	b580      	push	{r7, lr}
    9cee:	af00      	add	r7, sp, #0
    9cf0:	4b03      	ldr	r3, [pc, #12]	(9d00 <_GLOBAL__I__ZN14FfWriterEngineC2Ev+0x14>)
    9cf2:	2001      	movs	r0, #1
    9cf4:	1c19      	adds	r1, r3, #0
    9cf6:	f7ff ffd7 	bl	9ca8 <_Z41__static_initialization_and_destruction_0ii>
    9cfa:	46bd      	mov	sp, r7
    9cfc:	bd80      	pop	{r7, pc}
    9cfe:	46c0      	nop			(mov r8, r8)
    9d00:	0000ffff 	.word	0x0000ffff

00009d04 <_ZN14FfWriterEngine21SaveMemoryConsumptionEi>:
    }

  return -1;
}

int FfWriterEngine::SaveMemoryConsumption(int data)
    9d04:	b5b0      	push	{r4, r5, r7, lr}
    9d06:	4c1b      	ldr	r4, [pc, #108]	(9d74 <_ZN14FfWriterEngine21SaveMemoryConsumptionEi+0x70>)
    9d08:	44a5      	add	sp, r4
    9d0a:	af00      	add	r7, sp, #0
    9d0c:	6078      	str	r0, [r7, #4]
    9d0e:	6039      	str	r1, [r7, #0]
{
  char ostr[BUF_SIZE];
  sprintf(ostr, "%d\n", data);
    9d10:	1c3b      	adds	r3, r7, #0
    9d12:	3308      	adds	r3, #8
    9d14:	4a18      	ldr	r2, [pc, #96]	(9d78 <_ZN14FfWriterEngine21SaveMemoryConsumptionEi+0x74>)
    9d16:	683c      	ldr	r4, [r7, #0]
    9d18:	1c18      	adds	r0, r3, #0
    9d1a:	1c11      	adds	r1, r2, #0
    9d1c:	1c22      	adds	r2, r4, #0
    9d1e:	f7ff ef62 	blx	9be4 <_init+0x440>

  OutMemData->AppendData(ostr);
    9d22:	687b      	ldr	r3, [r7, #4]
    9d24:	685d      	ldr	r5, [r3, #4]
    9d26:	4915      	ldr	r1, [pc, #84]	(9d7c <_ZN14FfWriterEngine21SaveMemoryConsumptionEi+0x78>)
    9d28:	187b      	adds	r3, r7, r1
    9d2a:	1c18      	adds	r0, r3, #0
    9d2c:	f7ff ef2a 	blx	9b84 <_init+0x3e0>
    9d30:	4a13      	ldr	r2, [pc, #76]	(9d80 <_ZN14FfWriterEngine21SaveMemoryConsumptionEi+0x7c>)
    9d32:	18bb      	adds	r3, r7, r2
    9d34:	1c3a      	adds	r2, r7, #0
    9d36:	3208      	adds	r2, #8
    9d38:	4910      	ldr	r1, [pc, #64]	(9d7c <_ZN14FfWriterEngine21SaveMemoryConsumptionEi+0x78>)
    9d3a:	187c      	adds	r4, r7, r1
    9d3c:	1c18      	adds	r0, r3, #0
    9d3e:	1c11      	adds	r1, r2, #0
    9d40:	1c22      	adds	r2, r4, #0
    9d42:	f7ff ee78 	blx	9a34 <_init+0x290>
    9d46:	4a0e      	ldr	r2, [pc, #56]	(9d80 <_ZN14FfWriterEngine21SaveMemoryConsumptionEi+0x7c>)
    9d48:	18bb      	adds	r3, r7, r2
    9d4a:	1c28      	adds	r0, r5, #0
    9d4c:	1c19      	adds	r1, r3, #0
    9d4e:	f002 feaf 	bl	cab0 <_ZN9arlogging7Logging10AppendDataESs>
    9d52:	490b      	ldr	r1, [pc, #44]	(9d80 <_ZN14FfWriterEngine21SaveMemoryConsumptionEi+0x7c>)
    9d54:	187b      	adds	r3, r7, r1
    9d56:	1c18      	adds	r0, r3, #0
    9d58:	f7ff ee00 	blx	995c <_init+0x1b8>
    9d5c:	4a07      	ldr	r2, [pc, #28]	(9d7c <_ZN14FfWriterEngine21SaveMemoryConsumptionEi+0x78>)
    9d5e:	18bb      	adds	r3, r7, r2
    9d60:	1c18      	adds	r0, r3, #0
    9d62:	f7ff eeaa 	blx	9ab8 <_init+0x314>

  return 0;
    9d66:	2300      	movs	r3, #0
}
    9d68:	1c18      	adds	r0, r3, #0
    9d6a:	46bd      	mov	sp, r7
    9d6c:	2381      	movs	r3, #129
    9d6e:	011b      	lsls	r3, r3, #4
    9d70:	449d      	add	sp, r3
    9d72:	bdb0      	pop	{r4, r5, r7, pc}
    9d74:	fffff7f0 	.word	0xfffff7f0
    9d78:	0000d590 	.word	0x0000d590
    9d7c:	0000080f 	.word	0x0000080f
    9d80:	00000808 	.word	0x00000808

00009d84 <_ZN14FfWriterEngine19RemoveNonDigitCharsESs>:
  avformat_network_init();

  return 0;
}

string FfWriterEngine::RemoveNonDigitChars(string inpus_str)
    9d84:	b5f0      	push	{r4, r5, r6, r7, lr}
    9d86:	b085      	sub	sp, #20
    9d88:	af00      	add	r7, sp, #0
    9d8a:	1c05      	adds	r5, r0, #0
    9d8c:	6079      	str	r1, [r7, #4]
    9d8e:	603a      	str	r2, [r7, #0]
{
  inpus_str.erase(remove_if(inpus_str.begin(), inpus_str.end(), not1(ptr_fun(static_cast<int(*)(int)>(isdigit)))), inpus_str.end());
    9d90:	683b      	ldr	r3, [r7, #0]
    9d92:	1c18      	adds	r0, r3, #0
    9d94:	f7ff ef02 	blx	9b9c <_init+0x3f8>
    9d98:	1c03      	adds	r3, r0, #0
    9d9a:	1c1c      	adds	r4, r3, #0
    9d9c:	683b      	ldr	r3, [r7, #0]
    9d9e:	1c18      	adds	r0, r3, #0
    9da0:	f7ff ee18 	blx	99d4 <_init+0x230>
    9da4:	1c03      	adds	r3, r0, #0
    9da6:	1c1e      	adds	r6, r3, #0
    9da8:	4b14      	ldr	r3, [pc, #80]	(9dfc <_ZN14FfWriterEngine19RemoveNonDigitCharsESs+0x78>)
    9daa:	1c18      	adds	r0, r3, #0
    9dac:	f000 fdac 	bl	a908 <_ZSt7ptr_funIiiESt25pointer_to_unary_functionIT_T0_EPFS2_S1_E>
    9db0:	1c03      	adds	r3, r0, #0
    9db2:	60fb      	str	r3, [r7, #12]
    9db4:	1c3b      	adds	r3, r7, #0
    9db6:	330c      	adds	r3, #12
    9db8:	1c18      	adds	r0, r3, #0
    9dba:	f000 fdd1 	bl	a960 <_ZSt4not1ISt25pointer_to_unary_functionIiiEESt12unary_negateIT_ERKS3_>
    9dbe:	1c03      	adds	r3, r0, #0
    9dc0:	1c20      	adds	r0, r4, #0
    9dc2:	1c31      	adds	r1, r6, #0
    9dc4:	1c1a      	adds	r2, r3, #0
    9dc6:	f000 ff9b 	bl	ad00 <_ZSt9remove_ifIN9__gnu_cxx17__normal_iteratorIPcSsEESt12unary_negateISt25pointer_to_unary_functionIiiEEET_S8_S8_T0_>
    9dca:	1c03      	adds	r3, r0, #0
    9dcc:	1c1c      	adds	r4, r3, #0
    9dce:	683b      	ldr	r3, [r7, #0]
    9dd0:	1c18      	adds	r0, r3, #0
    9dd2:	f7ff ee00 	blx	99d4 <_init+0x230>
    9dd6:	1c03      	adds	r3, r0, #0
    9dd8:	1c1a      	adds	r2, r3, #0
    9dda:	683b      	ldr	r3, [r7, #0]
    9ddc:	1c18      	adds	r0, r3, #0
    9dde:	1c21      	adds	r1, r4, #0
    9de0:	f7ff ee88 	blx	9af4 <_init+0x350>

  return inpus_str;
    9de4:	1c2b      	adds	r3, r5, #0
    9de6:	683a      	ldr	r2, [r7, #0]
    9de8:	1c18      	adds	r0, r3, #0
    9dea:	1c11      	adds	r1, r2, #0
    9dec:	f7ff ed86 	blx	98fc <_init+0x158>
}
    9df0:	1c28      	adds	r0, r5, #0
    9df2:	1c28      	adds	r0, r5, #0
    9df4:	46bd      	mov	sp, r7
    9df6:	b005      	add	sp, #20
    9df8:	bdf0      	pop	{r4, r5, r6, r7, pc}
    9dfa:	46c0      	nop			(mov r8, r8)
    9dfc:	0000986c 	.word	0x0000986c

00009e00 <_ZN14FfWriterEngine20GetMemoryConsumptionEv>:

int FfWriterEngine::GetMemoryConsumption(void)
    9e00:	b590      	push	{r4, r7, lr}
    9e02:	4c7e      	ldr	r4, [pc, #504]	(9ffc <_ZN14FfWriterEngine20GetMemoryConsumptionEv+0x1fc>)
    9e04:	44a5      	add	sp, r4
    9e06:	af00      	add	r7, sp, #0
    9e08:	60f8      	str	r0, [r7, #12]
{
  const char *class_name = "ProcResource::GetMemoryConsumption";
    9e0a:	4b7d      	ldr	r3, [pc, #500]	(a000 <_ZN14FfWriterEngine20GetMemoryConsumptionEv+0x200>)
    9e0c:	497d      	ldr	r1, [pc, #500]	(a004 <_ZN14FfWriterEngine20GetMemoryConsumptionEv+0x204>)
    9e0e:	19c9      	adds	r1, r1, r7
    9e10:	600b      	str	r3, [r1, #0]
  pid_t ppid = getpid();
    9e12:	f7ff ee82 	blx	9b18 <_init+0x374>
    9e16:	1c03      	adds	r3, r0, #0
    9e18:	22a0      	movs	r2, #160
    9e1a:	0112      	lsls	r2, r2, #4
    9e1c:	19d2      	adds	r2, r2, r7
    9e1e:	6013      	str	r3, [r2, #0]
  ifstream proc_file;
    9e20:	2181      	movs	r1, #129
    9e22:	0109      	lsls	r1, r1, #4
    9e24:	187b      	adds	r3, r7, r1
    9e26:	1c18      	adds	r0, r3, #0
    9e28:	f7ff ede6 	blx	99f8 <_init+0x254>
  string line;
    9e2c:	4a76      	ldr	r2, [pc, #472]	(a008 <_ZN14FfWriterEngine20GetMemoryConsumptionEv+0x208>)
    9e2e:	18bb      	adds	r3, r7, r2
    9e30:	1c18      	adds	r0, r3, #0
    9e32:	f7ff ecd4 	blx	97dc <_init+0x38>
  char fpath[BUF_SIZE];
  size_t pos;
  int result;

  sprintf(fpath, "/proc/%d/status", (int) ppid);
    9e36:	1c3b      	adds	r3, r7, #0
    9e38:	3310      	adds	r3, #16
    9e3a:	4a74      	ldr	r2, [pc, #464]	(a00c <_ZN14FfWriterEngine20GetMemoryConsumptionEv+0x20c>)
    9e3c:	21a0      	movs	r1, #160
    9e3e:	0109      	lsls	r1, r1, #4
    9e40:	19c9      	adds	r1, r1, r7
    9e42:	680c      	ldr	r4, [r1, #0]
    9e44:	1c18      	adds	r0, r3, #0
    9e46:	1c11      	adds	r1, r2, #0
    9e48:	1c22      	adds	r2, r4, #0
    9e4a:	f7ff eecc 	blx	9be4 <_init+0x440>

  proc_file.open(fpath, ios::in);
    9e4e:	2281      	movs	r2, #129
    9e50:	0112      	lsls	r2, r2, #4
    9e52:	18bb      	adds	r3, r7, r2
    9e54:	1c3a      	adds	r2, r7, #0
    9e56:	3210      	adds	r2, #16
    9e58:	1c18      	adds	r0, r3, #0
    9e5a:	1c11      	adds	r1, r2, #0
    9e5c:	2208      	movs	r2, #8
    9e5e:	f7ff ee20 	blx	9aa0 <_init+0x2fc>

  if (proc_file.is_open())
    9e62:	2181      	movs	r1, #129
    9e64:	0109      	lsls	r1, r1, #4
    9e66:	187b      	adds	r3, r7, r1
    9e68:	1c18      	adds	r0, r3, #0
    9e6a:	f7ff eeb6 	blx	9bd8 <_init+0x434>
    9e6e:	1c03      	adds	r3, r0, #0
    9e70:	469c      	mov	ip, r3
    9e72:	4663      	mov	r3, ip
    9e74:	2b00      	cmp	r3, #0
    9e76:	d100      	bne.n	9e7a <_ZN14FfWriterEngine20GetMemoryConsumptionEv+0x7a>
    9e78:	e07e      	b.n	9f78 <_ZN14FfWriterEngine20GetMemoryConsumptionEv+0x178>
    9e7a:	e05d      	b.n	9f38 <_ZN14FfWriterEngine20GetMemoryConsumptionEv+0x138>
    {
      while (getline(proc_file, line))
        {
          if ((pos = line.find("VmRSS")) != string::npos)
    9e7c:	4a62      	ldr	r2, [pc, #392]	(a008 <_ZN14FfWriterEngine20GetMemoryConsumptionEv+0x208>)
    9e7e:	18bb      	adds	r3, r7, r2
    9e80:	4a63      	ldr	r2, [pc, #396]	(a010 <_ZN14FfWriterEngine20GetMemoryConsumptionEv+0x210>)
    9e82:	1c18      	adds	r0, r3, #0
    9e84:	1c11      	adds	r1, r2, #0
    9e86:	2200      	movs	r2, #0
    9e88:	f7ff ed5c 	blx	9944 <_init+0x1a0>
    9e8c:	1c03      	adds	r3, r0, #0
    9e8e:	4961      	ldr	r1, [pc, #388]	(a014 <_ZN14FfWriterEngine20GetMemoryConsumptionEv+0x214>)
    9e90:	19c9      	adds	r1, r1, r7
    9e92:	600b      	str	r3, [r1, #0]
    9e94:	4a5f      	ldr	r2, [pc, #380]	(a014 <_ZN14FfWriterEngine20GetMemoryConsumptionEv+0x214>)
    9e96:	19d2      	adds	r2, r2, r7
    9e98:	6813      	ldr	r3, [r2, #0]
    9e9a:	3301      	adds	r3, #1
    9e9c:	1e59      	subs	r1, r3, #1
    9e9e:	418b      	sbcs	r3, r1
    9ea0:	061b      	lsls	r3, r3, #24
    9ea2:	0e1b      	lsrs	r3, r3, #24
    9ea4:	2b00      	cmp	r3, #0
    9ea6:	d047      	beq.n	9f38 <_ZN14FfWriterEngine20GetMemoryConsumptionEv+0x138>
            {
              line = RemoveNonDigitChars(line);
    9ea8:	4a5b      	ldr	r2, [pc, #364]	(a018 <_ZN14FfWriterEngine20GetMemoryConsumptionEv+0x218>)
    9eaa:	18bb      	adds	r3, r7, r2
    9eac:	4956      	ldr	r1, [pc, #344]	(a008 <_ZN14FfWriterEngine20GetMemoryConsumptionEv+0x208>)
    9eae:	187a      	adds	r2, r7, r1
    9eb0:	1c18      	adds	r0, r3, #0
    9eb2:	1c11      	adds	r1, r2, #0
    9eb4:	f7ff ed22 	blx	98fc <_init+0x158>
    9eb8:	2293      	movs	r2, #147
    9eba:	0112      	lsls	r2, r2, #4
    9ebc:	18bb      	adds	r3, r7, r2
    9ebe:	68fa      	ldr	r2, [r7, #12]
    9ec0:	4955      	ldr	r1, [pc, #340]	(a018 <_ZN14FfWriterEngine20GetMemoryConsumptionEv+0x218>)
    9ec2:	187c      	adds	r4, r7, r1
    9ec4:	1c18      	adds	r0, r3, #0
    9ec6:	1c11      	adds	r1, r2, #0
    9ec8:	1c22      	adds	r2, r4, #0
    9eca:	f7ff ff5b 	bl	9d84 <_ZN14FfWriterEngine19RemoveNonDigitCharsESs>
    9ece:	4a4e      	ldr	r2, [pc, #312]	(a008 <_ZN14FfWriterEngine20GetMemoryConsumptionEv+0x208>)
    9ed0:	18bb      	adds	r3, r7, r2
    9ed2:	2193      	movs	r1, #147
    9ed4:	0109      	lsls	r1, r1, #4
    9ed6:	187a      	adds	r2, r7, r1
    9ed8:	1c18      	adds	r0, r3, #0
    9eda:	1c11      	adds	r1, r2, #0
    9edc:	f7ff ee6a 	blx	9bb4 <_init+0x410>
    9ee0:	2293      	movs	r2, #147
    9ee2:	0112      	lsls	r2, r2, #4
    9ee4:	18bb      	adds	r3, r7, r2
    9ee6:	1c18      	adds	r0, r3, #0
    9ee8:	f7ff ed38 	blx	995c <_init+0x1b8>
    9eec:	494a      	ldr	r1, [pc, #296]	(a018 <_ZN14FfWriterEngine20GetMemoryConsumptionEv+0x218>)
    9eee:	187b      	adds	r3, r7, r1
    9ef0:	1c18      	adds	r0, r3, #0
    9ef2:	f7ff ed34 	blx	995c <_init+0x1b8>
              istringstream(line) >> result;
    9ef6:	4a49      	ldr	r2, [pc, #292]	(a01c <_ZN14FfWriterEngine20GetMemoryConsumptionEv+0x21c>)
    9ef8:	18bb      	adds	r3, r7, r2
    9efa:	4943      	ldr	r1, [pc, #268]	(a008 <_ZN14FfWriterEngine20GetMemoryConsumptionEv+0x208>)
    9efc:	187a      	adds	r2, r7, r1
    9efe:	1c18      	adds	r0, r3, #0
    9f00:	1c11      	adds	r1, r2, #0
    9f02:	2208      	movs	r2, #8
    9f04:	f7ff ee0e 	blx	9b24 <_init+0x380>
    9f08:	4a44      	ldr	r2, [pc, #272]	(a01c <_ZN14FfWriterEngine20GetMemoryConsumptionEv+0x21c>)
    9f0a:	18bb      	adds	r3, r7, r2
    9f0c:	4944      	ldr	r1, [pc, #272]	(a020 <_ZN14FfWriterEngine20GetMemoryConsumptionEv+0x220>)
    9f0e:	187a      	adds	r2, r7, r1
    9f10:	1c18      	adds	r0, r3, #0
    9f12:	1c11      	adds	r1, r2, #0
    9f14:	f7ff edd6 	blx	9ac4 <_init+0x320>
    9f18:	4a40      	ldr	r2, [pc, #256]	(a01c <_ZN14FfWriterEngine20GetMemoryConsumptionEv+0x21c>)
    9f1a:	18bb      	adds	r3, r7, r2
    9f1c:	1c18      	adds	r0, r3, #0
    9f1e:	f7ff edae 	blx	9a7c <_init+0x2d8>
              proc_file.close();
    9f22:	2181      	movs	r1, #129
    9f24:	0109      	lsls	r1, r1, #4
    9f26:	187b      	adds	r3, r7, r1
    9f28:	1c18      	adds	r0, r3, #0
    9f2a:	f7ff ec70 	blx	980c <_init+0x68>
              return result;
    9f2e:	4a3c      	ldr	r2, [pc, #240]	(a020 <_ZN14FfWriterEngine20GetMemoryConsumptionEv+0x220>)
    9f30:	19d2      	adds	r2, r2, r7
    9f32:	6812      	ldr	r2, [r2, #0]
    9f34:	60ba      	str	r2, [r7, #8]
    9f36:	e050      	b.n	9fda <_ZN14FfWriterEngine20GetMemoryConsumptionEv+0x1da>

  proc_file.open(fpath, ios::in);

  if (proc_file.is_open())
    {
      while (getline(proc_file, line))
    9f38:	2181      	movs	r1, #129
    9f3a:	0109      	lsls	r1, r1, #4
    9f3c:	187b      	adds	r3, r7, r1
    9f3e:	4932      	ldr	r1, [pc, #200]	(a008 <_ZN14FfWriterEngine20GetMemoryConsumptionEv+0x208>)
    9f40:	187a      	adds	r2, r7, r1
    9f42:	1c18      	adds	r0, r3, #0
    9f44:	1c11      	adds	r1, r2, #0
    9f46:	f7ff ec98 	blx	9878 <_init+0xd4>
    9f4a:	1c03      	adds	r3, r0, #0
    9f4c:	1c1a      	adds	r2, r3, #0
    9f4e:	681b      	ldr	r3, [r3, #0]
    9f50:	3b0c      	subs	r3, #12
    9f52:	681b      	ldr	r3, [r3, #0]
    9f54:	18d3      	adds	r3, r2, r3
    9f56:	1c18      	adds	r0, r3, #0
    9f58:	f7ff ec7c 	blx	9854 <_init+0xb0>
    9f5c:	1c03      	adds	r3, r0, #0
    9f5e:	1e5a      	subs	r2, r3, #1
    9f60:	4193      	sbcs	r3, r2
    9f62:	061b      	lsls	r3, r3, #24
    9f64:	0e1b      	lsrs	r3, r3, #24
    9f66:	2b00      	cmp	r3, #0
    9f68:	d188      	bne.n	9e7c <_ZN14FfWriterEngine20GetMemoryConsumptionEv+0x7c>
              istringstream(line) >> result;
              proc_file.close();
              return result;
            }
        }
      proc_file.close();
    9f6a:	2181      	movs	r1, #129
    9f6c:	0109      	lsls	r1, r1, #4
    9f6e:	187b      	adds	r3, r7, r1
    9f70:	1c18      	adds	r0, r3, #0
    9f72:	f7ff ec4c 	blx	980c <_init+0x68>
    9f76:	e02b      	b.n	9fd0 <_ZN14FfWriterEngine20GetMemoryConsumptionEv+0x1d0>
    }
  else
    {
      AppendLog("Error opening file with process status!\n", class_name);
    9f78:	4a2a      	ldr	r2, [pc, #168]	(a024 <_ZN14FfWriterEngine20GetMemoryConsumptionEv+0x224>)
    9f7a:	18bb      	adds	r3, r7, r2
    9f7c:	1c18      	adds	r0, r3, #0
    9f7e:	f7ff ee02 	blx	9b84 <_init+0x3e0>
    9f82:	4929      	ldr	r1, [pc, #164]	(a028 <_ZN14FfWriterEngine20GetMemoryConsumptionEv+0x228>)
    9f84:	187b      	adds	r3, r7, r1
    9f86:	4a29      	ldr	r2, [pc, #164]	(a02c <_ZN14FfWriterEngine20GetMemoryConsumptionEv+0x22c>)
    9f88:	4926      	ldr	r1, [pc, #152]	(a024 <_ZN14FfWriterEngine20GetMemoryConsumptionEv+0x224>)
    9f8a:	187c      	adds	r4, r7, r1
    9f8c:	1c18      	adds	r0, r3, #0
    9f8e:	1c11      	adds	r1, r2, #0
    9f90:	1c22      	adds	r2, r4, #0
    9f92:	f7ff ed50 	blx	9a34 <_init+0x290>
    9f96:	229f      	movs	r2, #159
    9f98:	0112      	lsls	r2, r2, #4
    9f9a:	18bb      	adds	r3, r7, r2
    9f9c:	4922      	ldr	r1, [pc, #136]	(a028 <_ZN14FfWriterEngine20GetMemoryConsumptionEv+0x228>)
    9f9e:	187a      	adds	r2, r7, r1
    9fa0:	4918      	ldr	r1, [pc, #96]	(a004 <_ZN14FfWriterEngine20GetMemoryConsumptionEv+0x204>)
    9fa2:	19c9      	adds	r1, r1, r7
    9fa4:	680c      	ldr	r4, [r1, #0]
    9fa6:	1c18      	adds	r0, r3, #0
    9fa8:	1c11      	adds	r1, r2, #0
    9faa:	1c22      	adds	r2, r4, #0
    9fac:	f002 f912 	bl	c1d4 <_Z9AppendLogSsPKc>
    9fb0:	229f      	movs	r2, #159
    9fb2:	0112      	lsls	r2, r2, #4
    9fb4:	18bb      	adds	r3, r7, r2
    9fb6:	1c18      	adds	r0, r3, #0
    9fb8:	f7ff ecd0 	blx	995c <_init+0x1b8>
    9fbc:	491a      	ldr	r1, [pc, #104]	(a028 <_ZN14FfWriterEngine20GetMemoryConsumptionEv+0x228>)
    9fbe:	187b      	adds	r3, r7, r1
    9fc0:	1c18      	adds	r0, r3, #0
    9fc2:	f7ff eccc 	blx	995c <_init+0x1b8>
    9fc6:	4a17      	ldr	r2, [pc, #92]	(a024 <_ZN14FfWriterEngine20GetMemoryConsumptionEv+0x224>)
    9fc8:	18bb      	adds	r3, r7, r2
    9fca:	1c18      	adds	r0, r3, #0
    9fcc:	f7ff ed74 	blx	9ab8 <_init+0x314>
    }

  return -1;
    9fd0:	2301      	movs	r3, #1
    9fd2:	60bb      	str	r3, [r7, #8]
    9fd4:	68b9      	ldr	r1, [r7, #8]
    9fd6:	4249      	negs	r1, r1
    9fd8:	60b9      	str	r1, [r7, #8]
    9fda:	4a0b      	ldr	r2, [pc, #44]	(a008 <_ZN14FfWriterEngine20GetMemoryConsumptionEv+0x208>)
    9fdc:	18bb      	adds	r3, r7, r2
    9fde:	1c18      	adds	r0, r3, #0
    9fe0:	f7ff ecbc 	blx	995c <_init+0x1b8>
    9fe4:	2181      	movs	r1, #129
    9fe6:	0109      	lsls	r1, r1, #4
    9fe8:	187b      	adds	r3, r7, r1
    9fea:	1c18      	adds	r0, r3, #0
    9fec:	f7ff ed28 	blx	9a40 <_init+0x29c>
    9ff0:	68bb      	ldr	r3, [r7, #8]
}
    9ff2:	1c18      	adds	r0, r3, #0
    9ff4:	46bd      	mov	sp, r7
    9ff6:	4b0e      	ldr	r3, [pc, #56]	(a030 <_ZN14FfWriterEngine20GetMemoryConsumptionEv+0x230>)
    9ff8:	449d      	add	sp, r3
    9ffa:	bd90      	pop	{r4, r7, pc}
    9ffc:	fffff5f4 	.word	0xfffff5f4
    a000:	0000d594 	.word	0x0000d594
    a004:	000009fc 	.word	0x000009fc
    a008:	0000092c 	.word	0x0000092c
    a00c:	0000d5b8 	.word	0x0000d5b8
    a010:	0000d5c8 	.word	0x0000d5c8
    a014:	00000a04 	.word	0x00000a04
    a018:	00000934 	.word	0x00000934
    a01c:	00000938 	.word	0x00000938
    a020:	00000928 	.word	0x00000928
    a024:	000009fb 	.word	0x000009fb
    a028:	000009f4 	.word	0x000009f4
    a02c:	0000d5d0 	.word	0x0000d5d0
    a030:	00000a0c 	.word	0x00000a0c

0000a034 <_ZN14FfWriterEngine16AppendMemoryDataEv>:
  OutMemData->AppendData(ostr);

  return 0;
}

int FfWriterEngine::AppendMemoryData(void)
    a034:	b580      	push	{r7, lr}
    a036:	b082      	sub	sp, #8
    a038:	af00      	add	r7, sp, #0
    a03a:	6078      	str	r0, [r7, #4]
{
  return SaveMemoryConsumption(GetMemoryConsumption());
    a03c:	687b      	ldr	r3, [r7, #4]
    a03e:	1c18      	adds	r0, r3, #0
    a040:	f7ff fede 	bl	9e00 <_ZN14FfWriterEngine20GetMemoryConsumptionEv>
    a044:	1c02      	adds	r2, r0, #0
    a046:	687b      	ldr	r3, [r7, #4]
    a048:	1c18      	adds	r0, r3, #0
    a04a:	1c11      	adds	r1, r2, #0
    a04c:	f7ff fe5a 	bl	9d04 <_ZN14FfWriterEngine21SaveMemoryConsumptionEi>
    a050:	1c03      	adds	r3, r0, #0
    a052:	469c      	mov	ip, r3
    a054:	4663      	mov	r3, ip
}
    a056:	1c18      	adds	r0, r3, #0
    a058:	46bd      	mov	sp, r7
    a05a:	b002      	add	sp, #8
    a05c:	bd80      	pop	{r7, pc}
    a05e:	46c0      	nop			(mov r8, r8)

0000a060 <_ZN14FfWriterEngine10FfmpegInitEv>:
  sprintf(str, "DEBUG: Slot '%d' was stopped.\n", slot);
  AppendLog(str, class_name);
  return 0;
}

int FfWriterEngine::FfmpegInit()
    a060:	b580      	push	{r7, lr}
    a062:	b082      	sub	sp, #8
    a064:	af00      	add	r7, sp, #0
    a066:	6078      	str	r0, [r7, #4]
{
  av_log_set_level(AV_LOG_INFO);
    a068:	2020      	movs	r0, #32
    a06a:	f7ff ec8a 	blx	9980 <_init+0x1dc>

  avcodec_register_all();
    a06e:	f7ff ed7e 	blx	9b6c <_init+0x3c8>
  av_register_all();
    a072:	f7ff ec80 	blx	9974 <_init+0x1d0>
  avformat_network_init();
    a076:	f7ff ecd2 	blx	9a1c <_init+0x278>

  return 0;
    a07a:	2300      	movs	r3, #0
}
    a07c:	1c18      	adds	r0, r3, #0
    a07e:	46bd      	mov	sp, r7
    a080:	b002      	add	sp, #8
    a082:	bd80      	pop	{r7, pc}

0000a084 <_ZN14FfWriterEngine11GetRecStateEh>:
  Pipes[1]->SetNeedStop();

  return 0;
}

RecordingState FfWriterEngine::GetRecState(unsigned char slot)
    a084:	b580      	push	{r7, lr}
    a086:	b082      	sub	sp, #8
    a088:	af00      	add	r7, sp, #0
    a08a:	6078      	str	r0, [r7, #4]
    a08c:	1c0b      	adds	r3, r1, #0
    a08e:	1cfa      	adds	r2, r7, #3
    a090:	7013      	strb	r3, [r2, #0]
{
  return Pipes[slot]->GetRecState();
    a092:	1cfb      	adds	r3, r7, #3
    a094:	781b      	ldrb	r3, [r3, #0]
    a096:	687a      	ldr	r2, [r7, #4]
    a098:	3302      	adds	r3, #2
    a09a:	009b      	lsls	r3, r3, #2
    a09c:	589b      	ldr	r3, [r3, r2]
    a09e:	1c18      	adds	r0, r3, #0
    a0a0:	f000 ff34 	bl	af0c <_ZN10FfPipeline11GetRecStateEv>
    a0a4:	1c03      	adds	r3, r0, #0
    a0a6:	469c      	mov	ip, r3
    a0a8:	4663      	mov	r3, ip
}
    a0aa:	1c18      	adds	r0, r3, #0
    a0ac:	46bd      	mov	sp, r7
    a0ae:	b002      	add	sp, #8
    a0b0:	bd80      	pop	{r7, pc}
    a0b2:	46c0      	nop			(mov r8, r8)

0000a0b4 <_ZN14FfWriterEngine14IsNowRecordingEv>:
    return true;
  else
    return false;
}

bool FfWriterEngine::IsNowRecording()
    a0b4:	b580      	push	{r7, lr}
    a0b6:	b084      	sub	sp, #16
    a0b8:	af00      	add	r7, sp, #0
    a0ba:	60f8      	str	r0, [r7, #12]
{
  if ((Pipes[0]->GetRecState() == REC_WRITING) || (Pipes[1]->GetRecState() == REC_WRITING))
    a0bc:	68fb      	ldr	r3, [r7, #12]
    a0be:	689b      	ldr	r3, [r3, #8]
    a0c0:	1c18      	adds	r0, r3, #0
    a0c2:	f000 ff23 	bl	af0c <_ZN10FfPipeline11GetRecStateEv>
    a0c6:	1c03      	adds	r3, r0, #0
    a0c8:	2b03      	cmp	r3, #3
    a0ca:	d007      	beq.n	a0dc <_ZN14FfWriterEngine14IsNowRecordingEv+0x28>
    a0cc:	68fb      	ldr	r3, [r7, #12]
    a0ce:	68db      	ldr	r3, [r3, #12]
    a0d0:	1c18      	adds	r0, r3, #0
    a0d2:	f000 ff1b 	bl	af0c <_ZN10FfPipeline11GetRecStateEv>
    a0d6:	1c03      	adds	r3, r0, #0
    a0d8:	2b03      	cmp	r3, #3
    a0da:	d102      	bne.n	a0e2 <_ZN14FfWriterEngine14IsNowRecordingEv+0x2e>
    a0dc:	2301      	movs	r3, #1
    a0de:	607b      	str	r3, [r7, #4]
    a0e0:	e001      	b.n	a0e6 <_ZN14FfWriterEngine14IsNowRecordingEv+0x32>
    a0e2:	2300      	movs	r3, #0
    a0e4:	607b      	str	r3, [r7, #4]
    a0e6:	687b      	ldr	r3, [r7, #4]
    a0e8:	2b00      	cmp	r3, #0
    a0ea:	d002      	beq.n	a0f2 <_ZN14FfWriterEngine14IsNowRecordingEv+0x3e>
    return true;
    a0ec:	2301      	movs	r3, #1
    a0ee:	60bb      	str	r3, [r7, #8]
    a0f0:	e001      	b.n	a0f6 <_ZN14FfWriterEngine14IsNowRecordingEv+0x42>
  else
    return false;
    a0f2:	2300      	movs	r3, #0
    a0f4:	60bb      	str	r3, [r7, #8]
    a0f6:	68bb      	ldr	r3, [r7, #8]
}
    a0f8:	1c18      	adds	r0, r3, #0
    a0fa:	46bd      	mov	sp, r7
    a0fc:	b004      	add	sp, #16
    a0fe:	bd80      	pop	{r7, pc}

0000a100 <_ZN14FfWriterEngine19IsNowRecordingToStrEv>:

string FfWriterEngine::IsNowRecordingToStr()
    a100:	b590      	push	{r4, r7, lr}
    a102:	b085      	sub	sp, #20
    a104:	af00      	add	r7, sp, #0
    a106:	6038      	str	r0, [r7, #0]
    a108:	6079      	str	r1, [r7, #4]
{
  if (IsNowRecording())
    a10a:	687b      	ldr	r3, [r7, #4]
    a10c:	1c18      	adds	r0, r3, #0
    a10e:	f7ff ffd1 	bl	a0b4 <_ZN14FfWriterEngine14IsNowRecordingEv>
    a112:	1c03      	adds	r3, r0, #0
    a114:	469c      	mov	ip, r3
    a116:	4663      	mov	r3, ip
    a118:	2b00      	cmp	r3, #0
    a11a:	d012      	beq.n	a142 <_ZN14FfWriterEngine19IsNowRecordingToStrEv+0x42>
    return "on";
    a11c:	683c      	ldr	r4, [r7, #0]
    a11e:	1c3b      	adds	r3, r7, #0
    a120:	330e      	adds	r3, #14
    a122:	1c18      	adds	r0, r3, #0
    a124:	f7ff ed2e 	blx	9b84 <_init+0x3e0>
    a128:	4b11      	ldr	r3, [pc, #68]	(a170 <_ZN14FfWriterEngine19IsNowRecordingToStrEv+0x70>)
    a12a:	1c3a      	adds	r2, r7, #0
    a12c:	320e      	adds	r2, #14
    a12e:	1c20      	adds	r0, r4, #0
    a130:	1c19      	adds	r1, r3, #0
    a132:	f7ff ec80 	blx	9a34 <_init+0x290>
    a136:	1c3b      	adds	r3, r7, #0
    a138:	330e      	adds	r3, #14
    a13a:	1c18      	adds	r0, r3, #0
    a13c:	f7ff ecbc 	blx	9ab8 <_init+0x314>
    a140:	e011      	b.n	a166 <_ZN14FfWriterEngine19IsNowRecordingToStrEv+0x66>
  else
    return "off";
    a142:	683c      	ldr	r4, [r7, #0]
    a144:	1c3b      	adds	r3, r7, #0
    a146:	330f      	adds	r3, #15
    a148:	1c18      	adds	r0, r3, #0
    a14a:	f7ff ed1c 	blx	9b84 <_init+0x3e0>
    a14e:	4b09      	ldr	r3, [pc, #36]	(a174 <_ZN14FfWriterEngine19IsNowRecordingToStrEv+0x74>)
    a150:	1c3a      	adds	r2, r7, #0
    a152:	320f      	adds	r2, #15
    a154:	1c20      	adds	r0, r4, #0
    a156:	1c19      	adds	r1, r3, #0
    a158:	f7ff ec6c 	blx	9a34 <_init+0x290>
    a15c:	1c3b      	adds	r3, r7, #0
    a15e:	330f      	adds	r3, #15
    a160:	1c18      	adds	r0, r3, #0
    a162:	f7ff ecaa 	blx	9ab8 <_init+0x314>

}
    a166:	6838      	ldr	r0, [r7, #0]
    a168:	6838      	ldr	r0, [r7, #0]
    a16a:	46bd      	mov	sp, r7
    a16c:	b005      	add	sp, #20
    a16e:	bd90      	pop	{r4, r7, pc}
    a170:	0000d5fc 	.word	0x0000d5fc
    a174:	0000d600 	.word	0x0000d600

0000a178 <_ZN14FfWriterEngine9IsNowDownEv>:
    }

  return 0;
}

bool FfWriterEngine::IsNowDown()
    a178:	b590      	push	{r4, r7, lr}
    a17a:	b085      	sub	sp, #20
    a17c:	af00      	add	r7, sp, #0
    a17e:	60f8      	str	r0, [r7, #12]
{
  if ((Pipes[0]->GetRecState() != REC_WRITING) & (Pipes[1]->GetRecState() != REC_WRITING))
    a180:	68fb      	ldr	r3, [r7, #12]
    a182:	689b      	ldr	r3, [r3, #8]
    a184:	1c18      	adds	r0, r3, #0
    a186:	f000 fec1 	bl	af0c <_ZN10FfPipeline11GetRecStateEv>
    a18a:	1c03      	adds	r3, r0, #0
    a18c:	3b03      	subs	r3, #3
    a18e:	1e5a      	subs	r2, r3, #1
    a190:	4193      	sbcs	r3, r2
    a192:	061b      	lsls	r3, r3, #24
    a194:	0e1c      	lsrs	r4, r3, #24
    a196:	68fb      	ldr	r3, [r7, #12]
    a198:	68db      	ldr	r3, [r3, #12]
    a19a:	1c18      	adds	r0, r3, #0
    a19c:	f000 feb6 	bl	af0c <_ZN10FfPipeline11GetRecStateEv>
    a1a0:	1c03      	adds	r3, r0, #0
    a1a2:	3b03      	subs	r3, #3
    a1a4:	1e5a      	subs	r2, r3, #1
    a1a6:	4193      	sbcs	r3, r2
    a1a8:	061b      	lsls	r3, r3, #24
    a1aa:	0e1b      	lsrs	r3, r3, #24
    a1ac:	4023      	ands	r3, r4
    a1ae:	061b      	lsls	r3, r3, #24
    a1b0:	0e1b      	lsrs	r3, r3, #24
    a1b2:	2b00      	cmp	r3, #0
    a1b4:	d002      	beq.n	a1bc <_ZN14FfWriterEngine9IsNowDownEv+0x44>
    return true;
    a1b6:	2301      	movs	r3, #1
    a1b8:	60bb      	str	r3, [r7, #8]
    a1ba:	e001      	b.n	a1c0 <_ZN14FfWriterEngine9IsNowDownEv+0x48>
  else
    return false;
    a1bc:	2200      	movs	r2, #0
    a1be:	60ba      	str	r2, [r7, #8]
    a1c0:	68bb      	ldr	r3, [r7, #8]
}
    a1c2:	1c18      	adds	r0, r3, #0
    a1c4:	46bd      	mov	sp, r7
    a1c6:	b005      	add	sp, #20
    a1c8:	bd90      	pop	{r4, r7, pc}
    a1ca:	46c0      	nop			(mov r8, r8)

0000a1cc <_ZN14FfWriterEngine13StopRecOnSlotEh>:
int FfWriterEngine::FirstStartRec()
{
  return StartRecording(0);
}

int FfWriterEngine::StopRecOnSlot(unsigned char slot)
    a1cc:	b590      	push	{r4, r7, lr}
    a1ce:	b08d      	sub	sp, #52
    a1d0:	af00      	add	r7, sp, #0
    a1d2:	60f8      	str	r0, [r7, #12]
    a1d4:	1c0b      	adds	r3, r1, #0
    a1d6:	1c3a      	adds	r2, r7, #0
    a1d8:	320b      	adds	r2, #11
    a1da:	7013      	strb	r3, [r2, #0]
{
  const char *class_name = "WriterEngine::StopRecOnSlot";
    a1dc:	4b45      	ldr	r3, [pc, #276]	(a2f4 <_ZN14FfWriterEngine13StopRecOnSlotEh+0x128>)
    a1de:	62fb      	str	r3, [r7, #44]

  if (Pipes[slot]->GetRecState() != REC_WRITING)
    a1e0:	1c3b      	adds	r3, r7, #0
    a1e2:	330b      	adds	r3, #11
    a1e4:	781b      	ldrb	r3, [r3, #0]
    a1e6:	68fa      	ldr	r2, [r7, #12]
    a1e8:	3302      	adds	r3, #2
    a1ea:	009b      	lsls	r3, r3, #2
    a1ec:	589b      	ldr	r3, [r3, r2]
    a1ee:	1c18      	adds	r0, r3, #0
    a1f0:	f000 fe8c 	bl	af0c <_ZN10FfPipeline11GetRecStateEv>
    a1f4:	1c03      	adds	r3, r0, #0
    a1f6:	3b03      	subs	r3, #3
    a1f8:	1e5a      	subs	r2, r3, #1
    a1fa:	4193      	sbcs	r3, r2
    a1fc:	061b      	lsls	r3, r3, #24
    a1fe:	0e1b      	lsrs	r3, r3, #24
    a200:	2b00      	cmp	r3, #0
    a202:	d034      	beq.n	a26e <_ZN14FfWriterEngine13StopRecOnSlotEh+0xa2>
    {
      AppendLog("CRITICAL: Critical error: Need to stop not writing slot. Try it anyway\n", class_name);
    a204:	1c3b      	adds	r3, r7, #0
    a206:	331f      	adds	r3, #31
    a208:	1c18      	adds	r0, r3, #0
    a20a:	f7ff ecbc 	blx	9b84 <_init+0x3e0>
    a20e:	1c3b      	adds	r3, r7, #0
    a210:	3318      	adds	r3, #24
    a212:	4a39      	ldr	r2, [pc, #228]	(a2f8 <_ZN14FfWriterEngine13StopRecOnSlotEh+0x12c>)
    a214:	1c3c      	adds	r4, r7, #0
    a216:	341f      	adds	r4, #31
    a218:	1c18      	adds	r0, r3, #0
    a21a:	1c11      	adds	r1, r2, #0
    a21c:	1c22      	adds	r2, r4, #0
    a21e:	f7ff ec0a 	blx	9a34 <_init+0x290>
    a222:	1c3b      	adds	r3, r7, #0
    a224:	3314      	adds	r3, #20
    a226:	1c3a      	adds	r2, r7, #0
    a228:	3218      	adds	r2, #24
    a22a:	6afc      	ldr	r4, [r7, #44]
    a22c:	1c18      	adds	r0, r3, #0
    a22e:	1c11      	adds	r1, r2, #0
    a230:	1c22      	adds	r2, r4, #0
    a232:	f001 ffcf 	bl	c1d4 <_Z9AppendLogSsPKc>
    a236:	1c3b      	adds	r3, r7, #0
    a238:	3314      	adds	r3, #20
    a23a:	1c18      	adds	r0, r3, #0
    a23c:	f7ff eb8e 	blx	995c <_init+0x1b8>
    a240:	1c3b      	adds	r3, r7, #0
    a242:	3318      	adds	r3, #24
    a244:	1c18      	adds	r0, r3, #0
    a246:	f7ff eb8a 	blx	995c <_init+0x1b8>
    a24a:	1c3b      	adds	r3, r7, #0
    a24c:	331f      	adds	r3, #31
    a24e:	1c18      	adds	r0, r3, #0
    a250:	f7ff ec32 	blx	9ab8 <_init+0x314>
      Pipes[slot]->SetNeedStop();
    a254:	1c3b      	adds	r3, r7, #0
    a256:	330b      	adds	r3, #11
    a258:	781b      	ldrb	r3, [r3, #0]
    a25a:	68fa      	ldr	r2, [r7, #12]
    a25c:	3302      	adds	r3, #2
    a25e:	009b      	lsls	r3, r3, #2
    a260:	589b      	ldr	r3, [r3, r2]
    a262:	1c18      	adds	r0, r3, #0
    a264:	f001 f8f6 	bl	b454 <_ZN10FfPipeline11SetNeedStopEv>
      return 1;
    a268:	2301      	movs	r3, #1
    a26a:	607b      	str	r3, [r7, #4]
    a26c:	e03d      	b.n	a2ea <_ZN14FfWriterEngine13StopRecOnSlotEh+0x11e>

    }
  else
    {
      Pipes[slot]->SetNeedStop();
    a26e:	1c3b      	adds	r3, r7, #0
    a270:	330b      	adds	r3, #11
    a272:	781b      	ldrb	r3, [r3, #0]
    a274:	68fa      	ldr	r2, [r7, #12]
    a276:	3302      	adds	r3, #2
    a278:	009b      	lsls	r3, r3, #2
    a27a:	589b      	ldr	r3, [r3, r2]
    a27c:	1c18      	adds	r0, r3, #0
    a27e:	f001 f8e9 	bl	b454 <_ZN10FfPipeline11SetNeedStopEv>
    }

  sprintf(str, "DEBUG: Slot '%d' was stopped.\n", slot);
    a282:	1c3b      	adds	r3, r7, #0
    a284:	330b      	adds	r3, #11
    a286:	781c      	ldrb	r4, [r3, #0]
    a288:	4b1c      	ldr	r3, [pc, #112]	(a2fc <_ZN14FfWriterEngine13StopRecOnSlotEh+0x130>)
    a28a:	4a1d      	ldr	r2, [pc, #116]	(a300 <_ZN14FfWriterEngine13StopRecOnSlotEh+0x134>)
    a28c:	1c18      	adds	r0, r3, #0
    a28e:	1c11      	adds	r1, r2, #0
    a290:	1c22      	adds	r2, r4, #0
    a292:	f7ff eca8 	blx	9be4 <_init+0x440>
  AppendLog(str, class_name);
    a296:	1c3b      	adds	r3, r7, #0
    a298:	332b      	adds	r3, #43
    a29a:	1c18      	adds	r0, r3, #0
    a29c:	f7ff ec72 	blx	9b84 <_init+0x3e0>
    a2a0:	1c3b      	adds	r3, r7, #0
    a2a2:	3324      	adds	r3, #36
    a2a4:	4a15      	ldr	r2, [pc, #84]	(a2fc <_ZN14FfWriterEngine13StopRecOnSlotEh+0x130>)
    a2a6:	1c3c      	adds	r4, r7, #0
    a2a8:	342b      	adds	r4, #43
    a2aa:	1c18      	adds	r0, r3, #0
    a2ac:	1c11      	adds	r1, r2, #0
    a2ae:	1c22      	adds	r2, r4, #0
    a2b0:	f7ff ebc0 	blx	9a34 <_init+0x290>
    a2b4:	1c3b      	adds	r3, r7, #0
    a2b6:	3320      	adds	r3, #32
    a2b8:	1c3a      	adds	r2, r7, #0
    a2ba:	3224      	adds	r2, #36
    a2bc:	6afc      	ldr	r4, [r7, #44]
    a2be:	1c18      	adds	r0, r3, #0
    a2c0:	1c11      	adds	r1, r2, #0
    a2c2:	1c22      	adds	r2, r4, #0
    a2c4:	f001 ff86 	bl	c1d4 <_Z9AppendLogSsPKc>
    a2c8:	1c3b      	adds	r3, r7, #0
    a2ca:	3320      	adds	r3, #32
    a2cc:	1c18      	adds	r0, r3, #0
    a2ce:	f7ff eb46 	blx	995c <_init+0x1b8>
    a2d2:	1c3b      	adds	r3, r7, #0
    a2d4:	3324      	adds	r3, #36
    a2d6:	1c18      	adds	r0, r3, #0
    a2d8:	f7ff eb40 	blx	995c <_init+0x1b8>
    a2dc:	1c3b      	adds	r3, r7, #0
    a2de:	332b      	adds	r3, #43
    a2e0:	1c18      	adds	r0, r3, #0
    a2e2:	f7ff ebea 	blx	9ab8 <_init+0x314>
  return 0;
    a2e6:	2200      	movs	r2, #0
    a2e8:	607a      	str	r2, [r7, #4]
    a2ea:	687b      	ldr	r3, [r7, #4]
}
    a2ec:	1c18      	adds	r0, r3, #0
    a2ee:	46bd      	mov	sp, r7
    a2f0:	b00d      	add	sp, #52
    a2f2:	bd90      	pop	{r4, r7, pc}
    a2f4:	0000d604 	.word	0x0000d604
    a2f8:	0000d620 	.word	0x0000d620
    a2fc:	00016780 	.word	0x00016780
    a300:	0000d668 	.word	0x0000d668

0000a304 <_ZN14FfWriterEngine14StartRecordingEh>:
void FfWriterEngine::SetRecState(unsigned char slot, RecordingState state)
{
  Pipes[slot]->SetRecState(state);
}

int FfWriterEngine::StartRecording(unsigned char slot)
    a304:	b580      	push	{r7, lr}
    a306:	b082      	sub	sp, #8
    a308:	af00      	add	r7, sp, #0
    a30a:	6078      	str	r0, [r7, #4]
    a30c:	1c0b      	adds	r3, r1, #0
    a30e:	1cfa      	adds	r2, r7, #3
    a310:	7013      	strb	r3, [r2, #0]
{
  return Pipes[slot]->Start();
    a312:	1cfb      	adds	r3, r7, #3
    a314:	781b      	ldrb	r3, [r3, #0]
    a316:	687a      	ldr	r2, [r7, #4]
    a318:	3302      	adds	r3, #2
    a31a:	009b      	lsls	r3, r3, #2
    a31c:	589b      	ldr	r3, [r3, r2]
    a31e:	1c18      	adds	r0, r3, #0
    a320:	f001 f848 	bl	b3b4 <_ZN10FfPipeline5StartEv>
    a324:	1c03      	adds	r3, r0, #0
    a326:	469c      	mov	ip, r3
    a328:	4663      	mov	r3, ip
}
    a32a:	1c18      	adds	r0, r3, #0
    a32c:	46bd      	mov	sp, r7
    a32e:	b002      	add	sp, #8
    a330:	bd80      	pop	{r7, pc}
    a332:	46c0      	nop			(mov r8, r8)

0000a334 <_ZN14FfWriterEngine13FirstStartRecEv>:

int FfWriterEngine::FirstStartRec()
    a334:	b580      	push	{r7, lr}
    a336:	b082      	sub	sp, #8
    a338:	af00      	add	r7, sp, #0
    a33a:	6078      	str	r0, [r7, #4]
{
  return StartRecording(0);
    a33c:	687b      	ldr	r3, [r7, #4]
    a33e:	1c18      	adds	r0, r3, #0
    a340:	2100      	movs	r1, #0
    a342:	f7ff ffdf 	bl	a304 <_ZN14FfWriterEngine14StartRecordingEh>
    a346:	1c03      	adds	r3, r0, #0
    a348:	469c      	mov	ip, r3
    a34a:	4663      	mov	r3, ip
}
    a34c:	1c18      	adds	r0, r3, #0
    a34e:	46bd      	mov	sp, r7
    a350:	b002      	add	sp, #8
    a352:	bd80      	pop	{r7, pc}

0000a354 <_ZN14FfWriterEngine11SetRecStateEh14RecordingState>:
RecordingState FfWriterEngine::GetRecState(unsigned char slot)
{
  return Pipes[slot]->GetRecState();
}

void FfWriterEngine::SetRecState(unsigned char slot, RecordingState state)
    a354:	b580      	push	{r7, lr}
    a356:	b084      	sub	sp, #16
    a358:	af00      	add	r7, sp, #0
    a35a:	60f8      	str	r0, [r7, #12]
    a35c:	1c0b      	adds	r3, r1, #0
    a35e:	607a      	str	r2, [r7, #4]
    a360:	1c3a      	adds	r2, r7, #0
    a362:	320b      	adds	r2, #11
    a364:	7013      	strb	r3, [r2, #0]
{
  Pipes[slot]->SetRecState(state);
    a366:	1c3b      	adds	r3, r7, #0
    a368:	330b      	adds	r3, #11
    a36a:	781b      	ldrb	r3, [r3, #0]
    a36c:	68fa      	ldr	r2, [r7, #12]
    a36e:	3302      	adds	r3, #2
    a370:	009b      	lsls	r3, r3, #2
    a372:	589b      	ldr	r3, [r3, r2]
    a374:	687a      	ldr	r2, [r7, #4]
    a376:	1c18      	adds	r0, r3, #0
    a378:	1c11      	adds	r1, r2, #0
    a37a:	f000 fd9d 	bl	aeb8 <_ZN10FfPipeline11SetRecStateE14RecordingState>
}
    a37e:	46bd      	mov	sp, r7
    a380:	b004      	add	sp, #16
    a382:	bd80      	pop	{r7, pc}

0000a384 <_ZN14FfWriterEngine23SetAllChannelsToStoppedEb>:
    }

  return 0;
}

int FfWriterEngine::SetAllChannelsToStopped(bool NoNeedToDb)
    a384:	b580      	push	{r7, lr}
    a386:	b082      	sub	sp, #8
    a388:	af00      	add	r7, sp, #0
    a38a:	6078      	str	r0, [r7, #4]
    a38c:	1c0b      	adds	r3, r1, #0
    a38e:	1cfa      	adds	r2, r7, #3
    a390:	7013      	strb	r3, [r2, #0]
{
  if (NoNeedToDb)
    a392:	1cfb      	adds	r3, r7, #3
    a394:	781b      	ldrb	r3, [r3, #0]
    a396:	2b00      	cmp	r3, #0
    a398:	d005      	beq.n	a3a6 <_ZN14FfWriterEngine23SetAllChannelsToStoppedEb+0x22>
    Pipes[0]->SetRecState(REC_STOPPED);
    a39a:	687b      	ldr	r3, [r7, #4]
    a39c:	689b      	ldr	r3, [r3, #8]
    a39e:	1c18      	adds	r0, r3, #0
    a3a0:	2102      	movs	r1, #2
    a3a2:	f000 fd89 	bl	aeb8 <_ZN10FfPipeline11SetRecStateE14RecordingState>

  Pipes[0]->SetNeedStop();
    a3a6:	687b      	ldr	r3, [r7, #4]
    a3a8:	689b      	ldr	r3, [r3, #8]
    a3aa:	1c18      	adds	r0, r3, #0
    a3ac:	f001 f852 	bl	b454 <_ZN10FfPipeline11SetNeedStopEv>

  if (NoNeedToDb)
    a3b0:	1cfb      	adds	r3, r7, #3
    a3b2:	781b      	ldrb	r3, [r3, #0]
    a3b4:	2b00      	cmp	r3, #0
    a3b6:	d005      	beq.n	a3c4 <_ZN14FfWriterEngine23SetAllChannelsToStoppedEb+0x40>
    Pipes[1]->SetRecState(REC_STOPPED);
    a3b8:	687b      	ldr	r3, [r7, #4]
    a3ba:	68db      	ldr	r3, [r3, #12]
    a3bc:	1c18      	adds	r0, r3, #0
    a3be:	2102      	movs	r1, #2
    a3c0:	f000 fd7a 	bl	aeb8 <_ZN10FfPipeline11SetRecStateE14RecordingState>

  Pipes[1]->SetNeedStop();
    a3c4:	687b      	ldr	r3, [r7, #4]
    a3c6:	68db      	ldr	r3, [r3, #12]
    a3c8:	1c18      	adds	r0, r3, #0
    a3ca:	f001 f843 	bl	b454 <_ZN10FfPipeline11SetNeedStopEv>

  return 0;
    a3ce:	2300      	movs	r3, #0
}
    a3d0:	1c18      	adds	r0, r3, #0
    a3d2:	46bd      	mov	sp, r7
    a3d4:	b002      	add	sp, #8
    a3d6:	bd80      	pop	{r7, pc}

0000a3d8 <_ZN14FfWriterEngine26SetCurrentChannelToStoppedEb>:
  else
    return "off";

}

int FfWriterEngine::SetCurrentChannelToStopped(bool NoNeedToDb)
    a3d8:	b590      	push	{r4, r7, lr}
    a3da:	b091      	sub	sp, #68
    a3dc:	af00      	add	r7, sp, #0
    a3de:	6178      	str	r0, [r7, #20]
    a3e0:	1c0b      	adds	r3, r1, #0
    a3e2:	1c3a      	adds	r2, r7, #0
    a3e4:	3213      	adds	r2, #19
    a3e6:	7013      	strb	r3, [r2, #0]
{
  const char *class_name = "WriterEngine::SetCurrentChannelToStopped";
    a3e8:	4b6c      	ldr	r3, [pc, #432]	(a59c <_ZN14FfWriterEngine26SetCurrentChannelToStoppedEb+0x1c4>)
    a3ea:	63fb      	str	r3, [r7, #60]

  if (Pipes[0]->GetRecState() == REC_WRITING)
    a3ec:	697b      	ldr	r3, [r7, #20]
    a3ee:	689b      	ldr	r3, [r3, #8]
    a3f0:	1c18      	adds	r0, r3, #0
    a3f2:	f000 fd8b 	bl	af0c <_ZN10FfPipeline11GetRecStateEv>
    a3f6:	1c03      	adds	r3, r0, #0
    a3f8:	3b03      	subs	r3, #3
    a3fa:	1c1a      	adds	r2, r3, #0
    a3fc:	4253      	negs	r3, r2
    a3fe:	4153      	adcs	r3, r2
    a400:	061b      	lsls	r3, r3, #24
    a402:	0e1b      	lsrs	r3, r3, #24
    a404:	2b00      	cmp	r3, #0
    a406:	d03f      	beq.n	a488 <_ZN14FfWriterEngine26SetCurrentChannelToStoppedEb+0xb0>
    {
      sprintf(str, "Cam Channel 0 writing now so set it to stopping\n");
    a408:	4b65      	ldr	r3, [pc, #404]	(a5a0 <_ZN14FfWriterEngine26SetCurrentChannelToStoppedEb+0x1c8>)
    a40a:	4a66      	ldr	r2, [pc, #408]	(a5a4 <_ZN14FfWriterEngine26SetCurrentChannelToStoppedEb+0x1cc>)
    a40c:	1c18      	adds	r0, r3, #0
    a40e:	1c11      	adds	r1, r2, #0
    a410:	2231      	movs	r2, #49
    a412:	f7ff eafe 	blx	9a10 <_init+0x26c>
      AppendLog(str, class_name);
    a416:	1c3b      	adds	r3, r7, #0
    a418:	3323      	adds	r3, #35
    a41a:	1c18      	adds	r0, r3, #0
    a41c:	f7ff ebb2 	blx	9b84 <_init+0x3e0>
    a420:	1c3b      	adds	r3, r7, #0
    a422:	331c      	adds	r3, #28
    a424:	4a5e      	ldr	r2, [pc, #376]	(a5a0 <_ZN14FfWriterEngine26SetCurrentChannelToStoppedEb+0x1c8>)
    a426:	1c3c      	adds	r4, r7, #0
    a428:	3423      	adds	r4, #35
    a42a:	1c18      	adds	r0, r3, #0
    a42c:	1c11      	adds	r1, r2, #0
    a42e:	1c22      	adds	r2, r4, #0
    a430:	f7ff eb00 	blx	9a34 <_init+0x290>
    a434:	1c3b      	adds	r3, r7, #0
    a436:	3318      	adds	r3, #24
    a438:	1c3a      	adds	r2, r7, #0
    a43a:	321c      	adds	r2, #28
    a43c:	6bfc      	ldr	r4, [r7, #60]
    a43e:	1c18      	adds	r0, r3, #0
    a440:	1c11      	adds	r1, r2, #0
    a442:	1c22      	adds	r2, r4, #0
    a444:	f001 fec6 	bl	c1d4 <_Z9AppendLogSsPKc>
    a448:	1c3b      	adds	r3, r7, #0
    a44a:	3318      	adds	r3, #24
    a44c:	1c18      	adds	r0, r3, #0
    a44e:	f7ff ea86 	blx	995c <_init+0x1b8>
    a452:	1c3b      	adds	r3, r7, #0
    a454:	331c      	adds	r3, #28
    a456:	1c18      	adds	r0, r3, #0
    a458:	f7ff ea80 	blx	995c <_init+0x1b8>
    a45c:	1c3b      	adds	r3, r7, #0
    a45e:	3323      	adds	r3, #35
    a460:	1c18      	adds	r0, r3, #0
    a462:	f7ff eb2a 	blx	9ab8 <_init+0x314>

      if (NoNeedToDb)
    a466:	1c3b      	adds	r3, r7, #0
    a468:	3313      	adds	r3, #19
    a46a:	781b      	ldrb	r3, [r3, #0]
    a46c:	2b00      	cmp	r3, #0
    a46e:	d005      	beq.n	a47c <_ZN14FfWriterEngine26SetCurrentChannelToStoppedEb+0xa4>
        Pipes[0]->SetRecState(REC_STOPPED);
    a470:	697b      	ldr	r3, [r7, #20]
    a472:	689b      	ldr	r3, [r3, #8]
    a474:	1c18      	adds	r0, r3, #0
    a476:	2102      	movs	r1, #2
    a478:	f000 fd1e 	bl	aeb8 <_ZN10FfPipeline11SetRecStateE14RecordingState>

      Pipes[0]->SetNeedStop();
    a47c:	697b      	ldr	r3, [r7, #20]
    a47e:	689b      	ldr	r3, [r3, #8]
    a480:	1c18      	adds	r0, r3, #0
    a482:	f000 ffe7 	bl	b454 <_ZN10FfPipeline11SetNeedStopEv>
    a486:	e082      	b.n	a58e <_ZN14FfWriterEngine26SetCurrentChannelToStoppedEb+0x1b6>
    }
  else if (Pipes[1]->GetRecState() == REC_WRITING)
    a488:	697b      	ldr	r3, [r7, #20]
    a48a:	68db      	ldr	r3, [r3, #12]
    a48c:	1c18      	adds	r0, r3, #0
    a48e:	f000 fd3d 	bl	af0c <_ZN10FfPipeline11GetRecStateEv>
    a492:	1c03      	adds	r3, r0, #0
    a494:	3b03      	subs	r3, #3
    a496:	1c1a      	adds	r2, r3, #0
    a498:	4253      	negs	r3, r2
    a49a:	4153      	adcs	r3, r2
    a49c:	061b      	lsls	r3, r3, #24
    a49e:	0e1b      	lsrs	r3, r3, #24
    a4a0:	2b00      	cmp	r3, #0
    a4a2:	d03f      	beq.n	a524 <_ZN14FfWriterEngine26SetCurrentChannelToStoppedEb+0x14c>
    {
      sprintf(str, "Cam Channel 1 writing now so set it to stopping\n");
    a4a4:	4b3e      	ldr	r3, [pc, #248]	(a5a0 <_ZN14FfWriterEngine26SetCurrentChannelToStoppedEb+0x1c8>)
    a4a6:	4a40      	ldr	r2, [pc, #256]	(a5a8 <_ZN14FfWriterEngine26SetCurrentChannelToStoppedEb+0x1d0>)
    a4a8:	1c18      	adds	r0, r3, #0
    a4aa:	1c11      	adds	r1, r2, #0
    a4ac:	2231      	movs	r2, #49
    a4ae:	f7ff eab0 	blx	9a10 <_init+0x26c>
      AppendLog(str, class_name);
    a4b2:	1c3b      	adds	r3, r7, #0
    a4b4:	332f      	adds	r3, #47
    a4b6:	1c18      	adds	r0, r3, #0
    a4b8:	f7ff eb64 	blx	9b84 <_init+0x3e0>
    a4bc:	1c3b      	adds	r3, r7, #0
    a4be:	3328      	adds	r3, #40
    a4c0:	4a37      	ldr	r2, [pc, #220]	(a5a0 <_ZN14FfWriterEngine26SetCurrentChannelToStoppedEb+0x1c8>)
    a4c2:	1c3c      	adds	r4, r7, #0
    a4c4:	342f      	adds	r4, #47
    a4c6:	1c18      	adds	r0, r3, #0
    a4c8:	1c11      	adds	r1, r2, #0
    a4ca:	1c22      	adds	r2, r4, #0
    a4cc:	f7ff eab2 	blx	9a34 <_init+0x290>
    a4d0:	1c3b      	adds	r3, r7, #0
    a4d2:	3324      	adds	r3, #36
    a4d4:	1c3a      	adds	r2, r7, #0
    a4d6:	3228      	adds	r2, #40
    a4d8:	6bfc      	ldr	r4, [r7, #60]
    a4da:	1c18      	adds	r0, r3, #0
    a4dc:	1c11      	adds	r1, r2, #0
    a4de:	1c22      	adds	r2, r4, #0
    a4e0:	f001 fe78 	bl	c1d4 <_Z9AppendLogSsPKc>
    a4e4:	1c3b      	adds	r3, r7, #0
    a4e6:	3324      	adds	r3, #36
    a4e8:	1c18      	adds	r0, r3, #0
    a4ea:	f7ff ea38 	blx	995c <_init+0x1b8>
    a4ee:	1c3b      	adds	r3, r7, #0
    a4f0:	3328      	adds	r3, #40
    a4f2:	1c18      	adds	r0, r3, #0
    a4f4:	f7ff ea32 	blx	995c <_init+0x1b8>
    a4f8:	1c3b      	adds	r3, r7, #0
    a4fa:	332f      	adds	r3, #47
    a4fc:	1c18      	adds	r0, r3, #0
    a4fe:	f7ff eadc 	blx	9ab8 <_init+0x314>

      if (NoNeedToDb)
    a502:	1c3b      	adds	r3, r7, #0
    a504:	3313      	adds	r3, #19
    a506:	781b      	ldrb	r3, [r3, #0]
    a508:	2b00      	cmp	r3, #0
    a50a:	d005      	beq.n	a518 <_ZN14FfWriterEngine26SetCurrentChannelToStoppedEb+0x140>
        Pipes[1]->SetRecState(REC_STOPPED);
    a50c:	697b      	ldr	r3, [r7, #20]
    a50e:	68db      	ldr	r3, [r3, #12]
    a510:	1c18      	adds	r0, r3, #0
    a512:	2102      	movs	r1, #2
    a514:	f000 fcd0 	bl	aeb8 <_ZN10FfPipeline11SetRecStateE14RecordingState>

      Pipes[1]->SetNeedStop();
    a518:	697b      	ldr	r3, [r7, #20]
    a51a:	68db      	ldr	r3, [r3, #12]
    a51c:	1c18      	adds	r0, r3, #0
    a51e:	f000 ff99 	bl	b454 <_ZN10FfPipeline11SetNeedStopEv>
    a522:	e034      	b.n	a58e <_ZN14FfWriterEngine26SetCurrentChannelToStoppedEb+0x1b6>
    }
  else
    {
      sprintf(str, "WARNING: Cam haven't got any recording slots at this time\n");
    a524:	4b1e      	ldr	r3, [pc, #120]	(a5a0 <_ZN14FfWriterEngine26SetCurrentChannelToStoppedEb+0x1c8>)
    a526:	4a21      	ldr	r2, [pc, #132]	(a5ac <_ZN14FfWriterEngine26SetCurrentChannelToStoppedEb+0x1d4>)
    a528:	1c18      	adds	r0, r3, #0
    a52a:	1c11      	adds	r1, r2, #0
    a52c:	223b      	movs	r2, #59
    a52e:	f7ff ea70 	blx	9a10 <_init+0x26c>
      AppendLog(str, class_name);
    a532:	1c3b      	adds	r3, r7, #0
    a534:	333b      	adds	r3, #59
    a536:	1c18      	adds	r0, r3, #0
    a538:	f7ff eb24 	blx	9b84 <_init+0x3e0>
    a53c:	1c3b      	adds	r3, r7, #0
    a53e:	3334      	adds	r3, #52
    a540:	4a17      	ldr	r2, [pc, #92]	(a5a0 <_ZN14FfWriterEngine26SetCurrentChannelToStoppedEb+0x1c8>)
    a542:	1c3c      	adds	r4, r7, #0
    a544:	343b      	adds	r4, #59
    a546:	1c18      	adds	r0, r3, #0
    a548:	1c11      	adds	r1, r2, #0
    a54a:	1c22      	adds	r2, r4, #0
    a54c:	f7ff ea72 	blx	9a34 <_init+0x290>
    a550:	1c3b      	adds	r3, r7, #0
    a552:	3330      	adds	r3, #48
    a554:	1c3a      	adds	r2, r7, #0
    a556:	3234      	adds	r2, #52
    a558:	6bfc      	ldr	r4, [r7, #60]
    a55a:	1c18      	adds	r0, r3, #0
    a55c:	1c11      	adds	r1, r2, #0
    a55e:	1c22      	adds	r2, r4, #0
    a560:	f001 fe38 	bl	c1d4 <_Z9AppendLogSsPKc>
    a564:	1c3b      	adds	r3, r7, #0
    a566:	3330      	adds	r3, #48
    a568:	1c18      	adds	r0, r3, #0
    a56a:	f7ff e9f8 	blx	995c <_init+0x1b8>
    a56e:	1c3b      	adds	r3, r7, #0
    a570:	3334      	adds	r3, #52
    a572:	1c18      	adds	r0, r3, #0
    a574:	f7ff e9f2 	blx	995c <_init+0x1b8>
    a578:	1c3b      	adds	r3, r7, #0
    a57a:	333b      	adds	r3, #59
    a57c:	1c18      	adds	r0, r3, #0
    a57e:	f7ff ea9c 	blx	9ab8 <_init+0x314>
      return -1;
    a582:	2301      	movs	r3, #1
    a584:	60fb      	str	r3, [r7, #12]
    a586:	68fa      	ldr	r2, [r7, #12]
    a588:	4252      	negs	r2, r2
    a58a:	60fa      	str	r2, [r7, #12]
    a58c:	e001      	b.n	a592 <_ZN14FfWriterEngine26SetCurrentChannelToStoppedEb+0x1ba>
    }

  return 0;
    a58e:	2300      	movs	r3, #0
    a590:	60fb      	str	r3, [r7, #12]
    a592:	68fb      	ldr	r3, [r7, #12]
}
    a594:	1c18      	adds	r0, r3, #0
    a596:	46bd      	mov	sp, r7
    a598:	b011      	add	sp, #68
    a59a:	bd90      	pop	{r4, r7, pc}
    a59c:	0000d688 	.word	0x0000d688
    a5a0:	00016780 	.word	0x00016780
    a5a4:	0000d6b4 	.word	0x0000d6b4
    a5a8:	0000d6e8 	.word	0x0000d6e8
    a5ac:	0000d71c 	.word	0x0000d71c

0000a5b0 <_ZN14FfWriterEngine8ContinueEv>:
  Pipes[1]->SetPartnerPipePointer(Pipes[0]);
  TimerCounter = 0;
  OutMemData = new Logging("mem.log", 7);
}

int FfWriterEngine::Continue()
    a5b0:	b590      	push	{r4, r7, lr}
    a5b2:	b08f      	sub	sp, #60
    a5b4:	af00      	add	r7, sp, #0
    a5b6:	60f8      	str	r0, [r7, #12]
{
  const char *class_name = "WriterEngine::Continue";
    a5b8:	4b60      	ldr	r3, [pc, #384]	(a73c <_ZN14FfWriterEngine8ContinueEv+0x18c>)
    a5ba:	637b      	str	r3, [r7, #52]

  if (Pipes[0]->GetRecState() != REC_WRITING)
    a5bc:	68fb      	ldr	r3, [r7, #12]
    a5be:	689b      	ldr	r3, [r3, #8]
    a5c0:	1c18      	adds	r0, r3, #0
    a5c2:	f000 fca3 	bl	af0c <_ZN10FfPipeline11GetRecStateEv>
    a5c6:	1c03      	adds	r3, r0, #0
    a5c8:	3b03      	subs	r3, #3
    a5ca:	1e5a      	subs	r2, r3, #1
    a5cc:	4193      	sbcs	r3, r2
    a5ce:	061b      	lsls	r3, r3, #24
    a5d0:	0e1b      	lsrs	r3, r3, #24
    a5d2:	2b00      	cmp	r3, #0
    a5d4:	d034      	beq.n	a640 <_ZN14FfWriterEngine8ContinueEv+0x90>
    {
      sprintf(str, "DEBUG: Cam Slot 0 not writing now. Start Slot 0 recording.\n");
    a5d6:	4b5a      	ldr	r3, [pc, #360]	(a740 <_ZN14FfWriterEngine8ContinueEv+0x190>)
    a5d8:	4a5a      	ldr	r2, [pc, #360]	(a744 <_ZN14FfWriterEngine8ContinueEv+0x194>)
    a5da:	1c18      	adds	r0, r3, #0
    a5dc:	1c11      	adds	r1, r2, #0
    a5de:	223c      	movs	r2, #60
    a5e0:	f7ff ea16 	blx	9a10 <_init+0x26c>
      AppendLog(str, class_name);
    a5e4:	1c3b      	adds	r3, r7, #0
    a5e6:	331b      	adds	r3, #27
    a5e8:	1c18      	adds	r0, r3, #0
    a5ea:	f7ff eacc 	blx	9b84 <_init+0x3e0>
    a5ee:	1c3b      	adds	r3, r7, #0
    a5f0:	3314      	adds	r3, #20
    a5f2:	4a53      	ldr	r2, [pc, #332]	(a740 <_ZN14FfWriterEngine8ContinueEv+0x190>)
    a5f4:	1c3c      	adds	r4, r7, #0
    a5f6:	341b      	adds	r4, #27
    a5f8:	1c18      	adds	r0, r3, #0
    a5fa:	1c11      	adds	r1, r2, #0
    a5fc:	1c22      	adds	r2, r4, #0
    a5fe:	f7ff ea1a 	blx	9a34 <_init+0x290>
    a602:	1c3b      	adds	r3, r7, #0
    a604:	3310      	adds	r3, #16
    a606:	1c3a      	adds	r2, r7, #0
    a608:	3214      	adds	r2, #20
    a60a:	6b7c      	ldr	r4, [r7, #52]
    a60c:	1c18      	adds	r0, r3, #0
    a60e:	1c11      	adds	r1, r2, #0
    a610:	1c22      	adds	r2, r4, #0
    a612:	f001 fddf 	bl	c1d4 <_Z9AppendLogSsPKc>
    a616:	1c3b      	adds	r3, r7, #0
    a618:	3310      	adds	r3, #16
    a61a:	1c18      	adds	r0, r3, #0
    a61c:	f7ff e99e 	blx	995c <_init+0x1b8>
    a620:	1c3b      	adds	r3, r7, #0
    a622:	3314      	adds	r3, #20
    a624:	1c18      	adds	r0, r3, #0
    a626:	f7ff e99a 	blx	995c <_init+0x1b8>
    a62a:	1c3b      	adds	r3, r7, #0
    a62c:	331b      	adds	r3, #27
    a62e:	1c18      	adds	r0, r3, #0
    a630:	f7ff ea42 	blx	9ab8 <_init+0x314>

      Pipes[0]->Start();
    a634:	68fb      	ldr	r3, [r7, #12]
    a636:	689b      	ldr	r3, [r3, #8]
    a638:	1c18      	adds	r0, r3, #0
    a63a:	f000 febb 	bl	b3b4 <_ZN10FfPipeline5StartEv>
    a63e:	e076      	b.n	a72e <_ZN14FfWriterEngine8ContinueEv+0x17e>
    }
  else if (Pipes[1]->GetRecState() != REC_WRITING)
    a640:	68fb      	ldr	r3, [r7, #12]
    a642:	68db      	ldr	r3, [r3, #12]
    a644:	1c18      	adds	r0, r3, #0
    a646:	f000 fc61 	bl	af0c <_ZN10FfPipeline11GetRecStateEv>
    a64a:	1c03      	adds	r3, r0, #0
    a64c:	3b03      	subs	r3, #3
    a64e:	1e5a      	subs	r2, r3, #1
    a650:	4193      	sbcs	r3, r2
    a652:	061b      	lsls	r3, r3, #24
    a654:	0e1b      	lsrs	r3, r3, #24
    a656:	2b00      	cmp	r3, #0
    a658:	d034      	beq.n	a6c4 <_ZN14FfWriterEngine8ContinueEv+0x114>
    {
      sprintf(str, "DEBUG: Cam Slot 1 not writing now. Start Slot 1 recording.\n");
    a65a:	4b39      	ldr	r3, [pc, #228]	(a740 <_ZN14FfWriterEngine8ContinueEv+0x190>)
    a65c:	4a3a      	ldr	r2, [pc, #232]	(a748 <_ZN14FfWriterEngine8ContinueEv+0x198>)
    a65e:	1c18      	adds	r0, r3, #0
    a660:	1c11      	adds	r1, r2, #0
    a662:	223c      	movs	r2, #60
    a664:	f7ff e9d4 	blx	9a10 <_init+0x26c>
      AppendLog(str, class_name);
    a668:	1c3b      	adds	r3, r7, #0
    a66a:	3327      	adds	r3, #39
    a66c:	1c18      	adds	r0, r3, #0
    a66e:	f7ff ea8a 	blx	9b84 <_init+0x3e0>
    a672:	1c3b      	adds	r3, r7, #0
    a674:	3320      	adds	r3, #32
    a676:	4a32      	ldr	r2, [pc, #200]	(a740 <_ZN14FfWriterEngine8ContinueEv+0x190>)
    a678:	1c3c      	adds	r4, r7, #0
    a67a:	3427      	adds	r4, #39
    a67c:	1c18      	adds	r0, r3, #0
    a67e:	1c11      	adds	r1, r2, #0
    a680:	1c22      	adds	r2, r4, #0
    a682:	f7ff e9d8 	blx	9a34 <_init+0x290>
    a686:	1c3b      	adds	r3, r7, #0
    a688:	331c      	adds	r3, #28
    a68a:	1c3a      	adds	r2, r7, #0
    a68c:	3220      	adds	r2, #32
    a68e:	6b7c      	ldr	r4, [r7, #52]
    a690:	1c18      	adds	r0, r3, #0
    a692:	1c11      	adds	r1, r2, #0
    a694:	1c22      	adds	r2, r4, #0
    a696:	f001 fd9d 	bl	c1d4 <_Z9AppendLogSsPKc>
    a69a:	1c3b      	adds	r3, r7, #0
    a69c:	331c      	adds	r3, #28
    a69e:	1c18      	adds	r0, r3, #0
    a6a0:	f7ff e95c 	blx	995c <_init+0x1b8>
    a6a4:	1c3b      	adds	r3, r7, #0
    a6a6:	3320      	adds	r3, #32
    a6a8:	1c18      	adds	r0, r3, #0
    a6aa:	f7ff e958 	blx	995c <_init+0x1b8>
    a6ae:	1c3b      	adds	r3, r7, #0
    a6b0:	3327      	adds	r3, #39
    a6b2:	1c18      	adds	r0, r3, #0
    a6b4:	f7ff ea00 	blx	9ab8 <_init+0x314>

      Pipes[1]->Start();
    a6b8:	68fb      	ldr	r3, [r7, #12]
    a6ba:	68db      	ldr	r3, [r3, #12]
    a6bc:	1c18      	adds	r0, r3, #0
    a6be:	f000 fe79 	bl	b3b4 <_ZN10FfPipeline5StartEv>
    a6c2:	e034      	b.n	a72e <_ZN14FfWriterEngine8ContinueEv+0x17e>
    }
  else
    {
      sprintf(str, "ERROR: Cam Both recording slots are simultaneous writing! Skip!!! Need attention.\n");
    a6c4:	4b1e      	ldr	r3, [pc, #120]	(a740 <_ZN14FfWriterEngine8ContinueEv+0x190>)
    a6c6:	4a21      	ldr	r2, [pc, #132]	(a74c <_ZN14FfWriterEngine8ContinueEv+0x19c>)
    a6c8:	1c18      	adds	r0, r3, #0
    a6ca:	1c11      	adds	r1, r2, #0
    a6cc:	2253      	movs	r2, #83
    a6ce:	f7ff e9a0 	blx	9a10 <_init+0x26c>
      AppendLog(str, class_name);
    a6d2:	1c3b      	adds	r3, r7, #0
    a6d4:	3333      	adds	r3, #51
    a6d6:	1c18      	adds	r0, r3, #0
    a6d8:	f7ff ea54 	blx	9b84 <_init+0x3e0>
    a6dc:	1c3b      	adds	r3, r7, #0
    a6de:	332c      	adds	r3, #44
    a6e0:	4a17      	ldr	r2, [pc, #92]	(a740 <_ZN14FfWriterEngine8ContinueEv+0x190>)
    a6e2:	1c3c      	adds	r4, r7, #0
    a6e4:	3433      	adds	r4, #51
    a6e6:	1c18      	adds	r0, r3, #0
    a6e8:	1c11      	adds	r1, r2, #0
    a6ea:	1c22      	adds	r2, r4, #0
    a6ec:	f7ff e9a2 	blx	9a34 <_init+0x290>
    a6f0:	1c3b      	adds	r3, r7, #0
    a6f2:	3328      	adds	r3, #40
    a6f4:	1c3a      	adds	r2, r7, #0
    a6f6:	322c      	adds	r2, #44
    a6f8:	6b7c      	ldr	r4, [r7, #52]
    a6fa:	1c18      	adds	r0, r3, #0
    a6fc:	1c11      	adds	r1, r2, #0
    a6fe:	1c22      	adds	r2, r4, #0
    a700:	f001 fd68 	bl	c1d4 <_Z9AppendLogSsPKc>
    a704:	1c3b      	adds	r3, r7, #0
    a706:	3328      	adds	r3, #40
    a708:	1c18      	adds	r0, r3, #0
    a70a:	f7ff e928 	blx	995c <_init+0x1b8>
    a70e:	1c3b      	adds	r3, r7, #0
    a710:	332c      	adds	r3, #44
    a712:	1c18      	adds	r0, r3, #0
    a714:	f7ff e922 	blx	995c <_init+0x1b8>
    a718:	1c3b      	adds	r3, r7, #0
    a71a:	3333      	adds	r3, #51
    a71c:	1c18      	adds	r0, r3, #0
    a71e:	f7ff e9cc 	blx	9ab8 <_init+0x314>
      return -1;
    a722:	2301      	movs	r3, #1
    a724:	60bb      	str	r3, [r7, #8]
    a726:	68ba      	ldr	r2, [r7, #8]
    a728:	4252      	negs	r2, r2
    a72a:	60ba      	str	r2, [r7, #8]
    a72c:	e001      	b.n	a732 <_ZN14FfWriterEngine8ContinueEv+0x182>
    }

  return 0;
    a72e:	2300      	movs	r3, #0
    a730:	60bb      	str	r3, [r7, #8]
    a732:	68bb      	ldr	r3, [r7, #8]
}
    a734:	1c18      	adds	r0, r3, #0
    a736:	46bd      	mov	sp, r7
    a738:	b00f      	add	sp, #60
    a73a:	bd90      	pop	{r4, r7, pc}
    a73c:	0000d758 	.word	0x0000d758
    a740:	00016780 	.word	0x00016780
    a744:	0000d770 	.word	0x0000d770
    a748:	0000d7ac 	.word	0x0000d7ac
    a74c:	0000d7e8 	.word	0x0000d7e8

0000a750 <_ZN14FfWriterEngineC1Ev>:
#include <iostream>
#include <fstream>
#include <sstream>
#include <algorithm>

FfWriterEngine::FfWriterEngine()
    a750:	b5b0      	push	{r4, r5, r7, lr}
    a752:	b084      	sub	sp, #16
    a754:	af00      	add	r7, sp, #0
    a756:	6078      	str	r0, [r7, #4]
{
  FfmpegInit();
    a758:	687b      	ldr	r3, [r7, #4]
    a75a:	1c18      	adds	r0, r3, #0
    a75c:	f7ff fc80 	bl	a060 <_ZN14FfWriterEngine10FfmpegInitEv>

  Pipes[0] = new FfPipeline(0);
    a760:	2020      	movs	r0, #32
    a762:	f7ff e986 	blx	9a70 <_init+0x2cc>
    a766:	1c03      	adds	r3, r0, #0
    a768:	1c1c      	adds	r4, r3, #0
    a76a:	1c20      	adds	r0, r4, #0
    a76c:	2100      	movs	r1, #0
    a76e:	f000 fb5b 	bl	ae28 <_ZN10FfPipelineC1Eh>
    a772:	687b      	ldr	r3, [r7, #4]
    a774:	609c      	str	r4, [r3, #8]
  Pipes[1] = new FfPipeline(1);
    a776:	2020      	movs	r0, #32
    a778:	f7ff e97a 	blx	9a70 <_init+0x2cc>
    a77c:	1c03      	adds	r3, r0, #0
    a77e:	1c1c      	adds	r4, r3, #0
    a780:	1c20      	adds	r0, r4, #0
    a782:	2101      	movs	r1, #1
    a784:	f000 fb50 	bl	ae28 <_ZN10FfPipelineC1Eh>
    a788:	687b      	ldr	r3, [r7, #4]
    a78a:	60dc      	str	r4, [r3, #12]
  Pipes[0]->SetPartnerPipePointer(Pipes[1]);
    a78c:	687b      	ldr	r3, [r7, #4]
    a78e:	689a      	ldr	r2, [r3, #8]
    a790:	687b      	ldr	r3, [r7, #4]
    a792:	68db      	ldr	r3, [r3, #12]
    a794:	1c10      	adds	r0, r2, #0
    a796:	1c19      	adds	r1, r3, #0
    a798:	f000 fb82 	bl	aea0 <_ZN10FfPipeline21SetPartnerPipePointerEPv>
  Pipes[1]->SetPartnerPipePointer(Pipes[0]);
    a79c:	687b      	ldr	r3, [r7, #4]
    a79e:	68da      	ldr	r2, [r3, #12]
    a7a0:	687b      	ldr	r3, [r7, #4]
    a7a2:	689b      	ldr	r3, [r3, #8]
    a7a4:	1c10      	adds	r0, r2, #0
    a7a6:	1c19      	adds	r1, r3, #0
    a7a8:	f000 fb7a 	bl	aea0 <_ZN10FfPipeline21SetPartnerPipePointerEPv>
  TimerCounter = 0;
    a7ac:	687a      	ldr	r2, [r7, #4]
    a7ae:	2300      	movs	r3, #0
    a7b0:	6013      	str	r3, [r2, #0]
  OutMemData = new Logging("mem.log", 7);
    a7b2:	1c3b      	adds	r3, r7, #0
    a7b4:	330f      	adds	r3, #15
    a7b6:	1c18      	adds	r0, r3, #0
    a7b8:	f7ff e9e4 	blx	9b84 <_init+0x3e0>
    a7bc:	1c3b      	adds	r3, r7, #0
    a7be:	3308      	adds	r3, #8
    a7c0:	4a12      	ldr	r2, [pc, #72]	(a80c <_ZN14FfWriterEngineC1Ev+0xbc>)
    a7c2:	1c3c      	adds	r4, r7, #0
    a7c4:	340f      	adds	r4, #15
    a7c6:	1c18      	adds	r0, r3, #0
    a7c8:	1c11      	adds	r1, r2, #0
    a7ca:	1c22      	adds	r2, r4, #0
    a7cc:	f7ff e932 	blx	9a34 <_init+0x290>
    a7d0:	1c3d      	adds	r5, r7, #0
    a7d2:	3508      	adds	r5, #8
    a7d4:	2018      	movs	r0, #24
    a7d6:	f7ff e94c 	blx	9a70 <_init+0x2cc>
    a7da:	1c03      	adds	r3, r0, #0
    a7dc:	1c1c      	adds	r4, r3, #0
    a7de:	1c20      	adds	r0, r4, #0
    a7e0:	1c29      	adds	r1, r5, #0
    a7e2:	2207      	movs	r2, #7
    a7e4:	f002 fc46 	bl	d074 <_ZN9arlogging7LoggingC1ESsi>
    a7e8:	687b      	ldr	r3, [r7, #4]
    a7ea:	605c      	str	r4, [r3, #4]
    a7ec:	1c3b      	adds	r3, r7, #0
    a7ee:	3308      	adds	r3, #8
    a7f0:	1c18      	adds	r0, r3, #0
    a7f2:	f7ff e8b4 	blx	995c <_init+0x1b8>
    a7f6:	1c3b      	adds	r3, r7, #0
    a7f8:	330f      	adds	r3, #15
    a7fa:	1c18      	adds	r0, r3, #0
    a7fc:	f7ff e95c 	blx	9ab8 <_init+0x314>
}
    a800:	687b      	ldr	r3, [r7, #4]
    a802:	1c18      	adds	r0, r3, #0
    a804:	46bd      	mov	sp, r7
    a806:	b004      	add	sp, #16
    a808:	bdb0      	pop	{r4, r5, r7, pc}
    a80a:	46c0      	nop			(mov r8, r8)
    a80c:	0000d83c 	.word	0x0000d83c

0000a810 <_ZN14FfWriterEngineC2Ev>:
#include <iostream>
#include <fstream>
#include <sstream>
#include <algorithm>

FfWriterEngine::FfWriterEngine()
    a810:	b5b0      	push	{r4, r5, r7, lr}
    a812:	b084      	sub	sp, #16
    a814:	af00      	add	r7, sp, #0
    a816:	6078      	str	r0, [r7, #4]
{
  FfmpegInit();
    a818:	687b      	ldr	r3, [r7, #4]
    a81a:	1c18      	adds	r0, r3, #0
    a81c:	f7ff fc20 	bl	a060 <_ZN14FfWriterEngine10FfmpegInitEv>

  Pipes[0] = new FfPipeline(0);
    a820:	2020      	movs	r0, #32
    a822:	f7ff e926 	blx	9a70 <_init+0x2cc>
    a826:	1c03      	adds	r3, r0, #0
    a828:	1c1c      	adds	r4, r3, #0
    a82a:	1c20      	adds	r0, r4, #0
    a82c:	2100      	movs	r1, #0
    a82e:	f000 fafb 	bl	ae28 <_ZN10FfPipelineC1Eh>
    a832:	687b      	ldr	r3, [r7, #4]
    a834:	609c      	str	r4, [r3, #8]
  Pipes[1] = new FfPipeline(1);
    a836:	2020      	movs	r0, #32
    a838:	f7ff e91a 	blx	9a70 <_init+0x2cc>
    a83c:	1c03      	adds	r3, r0, #0
    a83e:	1c1c      	adds	r4, r3, #0
    a840:	1c20      	adds	r0, r4, #0
    a842:	2101      	movs	r1, #1
    a844:	f000 faf0 	bl	ae28 <_ZN10FfPipelineC1Eh>
    a848:	687b      	ldr	r3, [r7, #4]
    a84a:	60dc      	str	r4, [r3, #12]
  Pipes[0]->SetPartnerPipePointer(Pipes[1]);
    a84c:	687b      	ldr	r3, [r7, #4]
    a84e:	689a      	ldr	r2, [r3, #8]
    a850:	687b      	ldr	r3, [r7, #4]
    a852:	68db      	ldr	r3, [r3, #12]
    a854:	1c10      	adds	r0, r2, #0
    a856:	1c19      	adds	r1, r3, #0
    a858:	f000 fb22 	bl	aea0 <_ZN10FfPipeline21SetPartnerPipePointerEPv>
  Pipes[1]->SetPartnerPipePointer(Pipes[0]);
    a85c:	687b      	ldr	r3, [r7, #4]
    a85e:	68da      	ldr	r2, [r3, #12]
    a860:	687b      	ldr	r3, [r7, #4]
    a862:	689b      	ldr	r3, [r3, #8]
    a864:	1c10      	adds	r0, r2, #0
    a866:	1c19      	adds	r1, r3, #0
    a868:	f000 fb1a 	bl	aea0 <_ZN10FfPipeline21SetPartnerPipePointerEPv>
  TimerCounter = 0;
    a86c:	687a      	ldr	r2, [r7, #4]
    a86e:	2300      	movs	r3, #0
    a870:	6013      	str	r3, [r2, #0]
  OutMemData = new Logging("mem.log", 7);
    a872:	1c3b      	adds	r3, r7, #0
    a874:	330f      	adds	r3, #15
    a876:	1c18      	adds	r0, r3, #0
    a878:	f7ff e984 	blx	9b84 <_init+0x3e0>
    a87c:	1c3b      	adds	r3, r7, #0
    a87e:	3308      	adds	r3, #8
    a880:	4a12      	ldr	r2, [pc, #72]	(a8cc <_ZN14FfWriterEngineC2Ev+0xbc>)
    a882:	1c3c      	adds	r4, r7, #0
    a884:	340f      	adds	r4, #15
    a886:	1c18      	adds	r0, r3, #0
    a888:	1c11      	adds	r1, r2, #0
    a88a:	1c22      	adds	r2, r4, #0
    a88c:	f7ff e8d2 	blx	9a34 <_init+0x290>
    a890:	1c3d      	adds	r5, r7, #0
    a892:	3508      	adds	r5, #8
    a894:	2018      	movs	r0, #24
    a896:	f7ff e8ec 	blx	9a70 <_init+0x2cc>
    a89a:	1c03      	adds	r3, r0, #0
    a89c:	1c1c      	adds	r4, r3, #0
    a89e:	1c20      	adds	r0, r4, #0
    a8a0:	1c29      	adds	r1, r5, #0
    a8a2:	2207      	movs	r2, #7
    a8a4:	f002 fbe6 	bl	d074 <_ZN9arlogging7LoggingC1ESsi>
    a8a8:	687b      	ldr	r3, [r7, #4]
    a8aa:	605c      	str	r4, [r3, #4]
    a8ac:	1c3b      	adds	r3, r7, #0
    a8ae:	3308      	adds	r3, #8
    a8b0:	1c18      	adds	r0, r3, #0
    a8b2:	f7ff e854 	blx	995c <_init+0x1b8>
    a8b6:	1c3b      	adds	r3, r7, #0
    a8b8:	330f      	adds	r3, #15
    a8ba:	1c18      	adds	r0, r3, #0
    a8bc:	f7ff e8fc 	blx	9ab8 <_init+0x314>
}
    a8c0:	687b      	ldr	r3, [r7, #4]
    a8c2:	1c18      	adds	r0, r3, #0
    a8c4:	46bd      	mov	sp, r7
    a8c6:	b004      	add	sp, #16
    a8c8:	bdb0      	pop	{r4, r5, r7, pc}
    a8ca:	46c0      	nop			(mov r8, r8)
    a8cc:	0000d83c 	.word	0x0000d83c

0000a8d0 <_ZNSt14unary_functionIiiEC2Ev>:
  /**
   *  This is one of the @link s20_3_1_base functor base classes@endlink.
   */
  template<typename _Arg, typename _Result>
    struct unary_function
    {
    a8d0:	b580      	push	{r7, lr}
    a8d2:	b082      	sub	sp, #8
    a8d4:	af00      	add	r7, sp, #0
    a8d6:	6078      	str	r0, [r7, #4]
    a8d8:	687b      	ldr	r3, [r7, #4]
    a8da:	1c18      	adds	r0, r3, #0
    a8dc:	46bd      	mov	sp, r7
    a8de:	b002      	add	sp, #8
    a8e0:	bd80      	pop	{r7, pc}
    a8e2:	46c0      	nop			(mov r8, r8)

0000a8e4 <_ZNSt25pointer_to_unary_functionIiiEC1EPFiiE>:

    public:
      pointer_to_unary_function() { }

      explicit
      pointer_to_unary_function(_Result (*__x)(_Arg))
    a8e4:	b580      	push	{r7, lr}
    a8e6:	b082      	sub	sp, #8
    a8e8:	af00      	add	r7, sp, #0
    a8ea:	6078      	str	r0, [r7, #4]
    a8ec:	6039      	str	r1, [r7, #0]
      : _M_ptr(__x) { }
    a8ee:	687b      	ldr	r3, [r7, #4]
    a8f0:	1c18      	adds	r0, r3, #0
    a8f2:	f7ff ffed 	bl	a8d0 <_ZNSt14unary_functionIiiEC2Ev>
    a8f6:	687a      	ldr	r2, [r7, #4]
    a8f8:	683b      	ldr	r3, [r7, #0]
    a8fa:	6013      	str	r3, [r2, #0]
    a8fc:	687b      	ldr	r3, [r7, #4]
    a8fe:	1c18      	adds	r0, r3, #0
    a900:	46bd      	mov	sp, r7
    a902:	b002      	add	sp, #8
    a904:	bd80      	pop	{r7, pc}
    a906:	46c0      	nop			(mov r8, r8)

0000a908 <_ZSt7ptr_funIiiESt25pointer_to_unary_functionIT_T0_EPFS2_S1_E>:
    };

  /// One of the @link s20_3_7_adaptors adaptors for function pointers@endlink.
  template<typename _Arg, typename _Result>
    inline pointer_to_unary_function<_Arg, _Result>
    ptr_fun(_Result (*__x)(_Arg))
    a908:	b580      	push	{r7, lr}
    a90a:	b084      	sub	sp, #16
    a90c:	af00      	add	r7, sp, #0
    a90e:	6078      	str	r0, [r7, #4]
    { return pointer_to_unary_function<_Arg, _Result>(__x); }
    a910:	1c3b      	adds	r3, r7, #0
    a912:	330c      	adds	r3, #12
    a914:	687a      	ldr	r2, [r7, #4]
    a916:	1c18      	adds	r0, r3, #0
    a918:	1c11      	adds	r1, r2, #0
    a91a:	f7ff ffe3 	bl	a8e4 <_ZNSt25pointer_to_unary_functionIiiEC1EPFiiE>
    a91e:	68fb      	ldr	r3, [r7, #12]
    a920:	1c18      	adds	r0, r3, #0
    a922:	46bd      	mov	sp, r7
    a924:	b004      	add	sp, #16
    a926:	bd80      	pop	{r7, pc}

0000a928 <_ZNSt14unary_functionIibEC2Ev>:
  /**
   *  This is one of the @link s20_3_1_base functor base classes@endlink.
   */
  template<typename _Arg, typename _Result>
    struct unary_function
    {
    a928:	b580      	push	{r7, lr}
    a92a:	b082      	sub	sp, #8
    a92c:	af00      	add	r7, sp, #0
    a92e:	6078      	str	r0, [r7, #4]
    a930:	687b      	ldr	r3, [r7, #4]
    a932:	1c18      	adds	r0, r3, #0
    a934:	46bd      	mov	sp, r7
    a936:	b002      	add	sp, #8
    a938:	bd80      	pop	{r7, pc}
    a93a:	46c0      	nop			(mov r8, r8)

0000a93c <_ZNSt12unary_negateISt25pointer_to_unary_functionIiiEEC1ERKS1_>:
    protected:
      _Predicate _M_pred;

    public:
      explicit
      unary_negate(const _Predicate& __x) : _M_pred(__x) { }
    a93c:	b580      	push	{r7, lr}
    a93e:	b082      	sub	sp, #8
    a940:	af00      	add	r7, sp, #0
    a942:	6078      	str	r0, [r7, #4]
    a944:	6039      	str	r1, [r7, #0]
    a946:	687b      	ldr	r3, [r7, #4]
    a948:	1c18      	adds	r0, r3, #0
    a94a:	f7ff ffed 	bl	a928 <_ZNSt14unary_functionIibEC2Ev>
    a94e:	683b      	ldr	r3, [r7, #0]
    a950:	681a      	ldr	r2, [r3, #0]
    a952:	687b      	ldr	r3, [r7, #4]
    a954:	601a      	str	r2, [r3, #0]
    a956:	687b      	ldr	r3, [r7, #4]
    a958:	1c18      	adds	r0, r3, #0
    a95a:	46bd      	mov	sp, r7
    a95c:	b002      	add	sp, #8
    a95e:	bd80      	pop	{r7, pc}

0000a960 <_ZSt4not1ISt25pointer_to_unary_functionIiiEESt12unary_negateIT_ERKS3_>:
    };

  /// One of the @link s20_3_5_negators negation functors@endlink.
  template<typename _Predicate>
    inline unary_negate<_Predicate>
    not1(const _Predicate& __pred)
    a960:	b580      	push	{r7, lr}
    a962:	b084      	sub	sp, #16
    a964:	af00      	add	r7, sp, #0
    a966:	6078      	str	r0, [r7, #4]
    { return unary_negate<_Predicate>(__pred); }
    a968:	1c3b      	adds	r3, r7, #0
    a96a:	330c      	adds	r3, #12
    a96c:	687a      	ldr	r2, [r7, #4]
    a96e:	1c18      	adds	r0, r3, #0
    a970:	1c11      	adds	r1, r2, #0
    a972:	f7ff ffe3 	bl	a93c <_ZNSt12unary_negateISt25pointer_to_unary_functionIiiEEC1ERKS1_>
    a976:	68fb      	ldr	r3, [r7, #12]
    a978:	1c18      	adds	r0, r3, #0
    a97a:	46bd      	mov	sp, r7
    a97c:	b004      	add	sp, #16
    a97e:	bd80      	pop	{r7, pc}

0000a980 <_ZN9__gnu_cxx17__normal_iteratorIPcSsEppEv>:
      pointer
      operator->() const
      { return _M_current; }

      __normal_iterator&
      operator++()
    a980:	b580      	push	{r7, lr}
    a982:	b082      	sub	sp, #8
    a984:	af00      	add	r7, sp, #0
    a986:	6078      	str	r0, [r7, #4]
      {
	++_M_current;
    a988:	687b      	ldr	r3, [r7, #4]
    a98a:	681b      	ldr	r3, [r3, #0]
    a98c:	1c5a      	adds	r2, r3, #1
    a98e:	687b      	ldr	r3, [r7, #4]
    a990:	601a      	str	r2, [r3, #0]
	return *this;
    a992:	687b      	ldr	r3, [r7, #4]
      }
    a994:	1c18      	adds	r0, r3, #0
    a996:	46bd      	mov	sp, r7
    a998:	b002      	add	sp, #8
    a99a:	bd80      	pop	{r7, pc}

0000a99c <_ZNK9__gnu_cxx17__normal_iteratorIPcSsEdeEv>:
		      _Container>::__type>& __i)
        : _M_current(__i.base()) { }

      // Forward iterator requirements
      reference
      operator*() const
    a99c:	b580      	push	{r7, lr}
    a99e:	b082      	sub	sp, #8
    a9a0:	af00      	add	r7, sp, #0
    a9a2:	6078      	str	r0, [r7, #4]
      { return *_M_current; }
    a9a4:	687b      	ldr	r3, [r7, #4]
    a9a6:	681b      	ldr	r3, [r3, #0]
    a9a8:	1c18      	adds	r0, r3, #0
    a9aa:	46bd      	mov	sp, r7
    a9ac:	b002      	add	sp, #8
    a9ae:	bd80      	pop	{r7, pc}

0000a9b0 <_ZSt19__iterator_categoryIN9__gnu_cxx17__normal_iteratorIPcSsEEENSt15iterator_traitsIT_E17iterator_categoryERKS5_>:
   *  This function is not a part of the C++ standard but is syntactic
   *  sugar for internal library use only.
  */
  template<typename _Iter>
    inline typename iterator_traits<_Iter>::iterator_category
    __iterator_category(const _Iter&)
    a9b0:	b580      	push	{r7, lr}
    a9b2:	b082      	sub	sp, #8
    a9b4:	af00      	add	r7, sp, #0
    a9b6:	6078      	str	r0, [r7, #4]
    { return typename iterator_traits<_Iter>::iterator_category(); }
    a9b8:	78fb      	ldrb	r3, [r7, #3]
    a9ba:	1c18      	adds	r0, r3, #0
    a9bc:	46bd      	mov	sp, r7
    a9be:	b002      	add	sp, #8
    a9c0:	bd80      	pop	{r7, pc}
    a9c2:	46c0      	nop			(mov r8, r8)

0000a9c4 <_ZNK9__gnu_cxx17__normal_iteratorIPcSsE4baseEv>:
      __normal_iterator
      operator-(const difference_type& __n) const
      { return __normal_iterator(_M_current - __n); }

      const _Iterator&
      base() const
    a9c4:	b580      	push	{r7, lr}
    a9c6:	b082      	sub	sp, #8
    a9c8:	af00      	add	r7, sp, #0
    a9ca:	6078      	str	r0, [r7, #4]
      { return _M_current; }
    a9cc:	687b      	ldr	r3, [r7, #4]
    a9ce:	1c18      	adds	r0, r3, #0
    a9d0:	46bd      	mov	sp, r7
    a9d2:	b002      	add	sp, #8
    a9d4:	bd80      	pop	{r7, pc}
    a9d6:	46c0      	nop			(mov r8, r8)

0000a9d8 <_ZN9__gnu_cxxmiIPcSsEENS_17__normal_iteratorIT_T0_E15difference_typeERKS5_S8_>:
    { return __lhs.base() - __rhs.base(); }

  template<typename _Iterator, typename _Container>
    inline typename __normal_iterator<_Iterator, _Container>::difference_type
    operator-(const __normal_iterator<_Iterator, _Container>& __lhs,
	      const __normal_iterator<_Iterator, _Container>& __rhs)
    a9d8:	b590      	push	{r4, r7, lr}
    a9da:	b083      	sub	sp, #12
    a9dc:	af00      	add	r7, sp, #0
    a9de:	6078      	str	r0, [r7, #4]
    a9e0:	6039      	str	r1, [r7, #0]
    { return __lhs.base() - __rhs.base(); }
    a9e2:	687b      	ldr	r3, [r7, #4]
    a9e4:	1c18      	adds	r0, r3, #0
    a9e6:	f7ff ffed 	bl	a9c4 <_ZNK9__gnu_cxx17__normal_iteratorIPcSsE4baseEv>
    a9ea:	1c03      	adds	r3, r0, #0
    a9ec:	681b      	ldr	r3, [r3, #0]
    a9ee:	1c1c      	adds	r4, r3, #0
    a9f0:	683b      	ldr	r3, [r7, #0]
    a9f2:	1c18      	adds	r0, r3, #0
    a9f4:	f7ff ffe6 	bl	a9c4 <_ZNK9__gnu_cxx17__normal_iteratorIPcSsE4baseEv>
    a9f8:	1c03      	adds	r3, r0, #0
    a9fa:	681b      	ldr	r3, [r3, #0]
    a9fc:	1ae3      	subs	r3, r4, r3
    a9fe:	1c18      	adds	r0, r3, #0
    aa00:	46bd      	mov	sp, r7
    aa02:	b003      	add	sp, #12
    aa04:	bd90      	pop	{r4, r7, pc}
    aa06:	46c0      	nop			(mov r8, r8)

0000aa08 <_ZN9__gnu_cxxeqIPcSsEEbRKNS_17__normal_iteratorIT_T0_EES7_>:
    { return __lhs.base() == __rhs.base(); }

  template<typename _Iterator, typename _Container>
    inline bool
    operator==(const __normal_iterator<_Iterator, _Container>& __lhs,
	       const __normal_iterator<_Iterator, _Container>& __rhs)
    aa08:	b590      	push	{r4, r7, lr}
    aa0a:	b085      	sub	sp, #20
    aa0c:	af00      	add	r7, sp, #0
    aa0e:	60f8      	str	r0, [r7, #12]
    aa10:	60b9      	str	r1, [r7, #8]
    { return __lhs.base() == __rhs.base(); }
    aa12:	68fb      	ldr	r3, [r7, #12]
    aa14:	1c18      	adds	r0, r3, #0
    aa16:	f7ff ffd5 	bl	a9c4 <_ZNK9__gnu_cxx17__normal_iteratorIPcSsE4baseEv>
    aa1a:	1c03      	adds	r3, r0, #0
    aa1c:	681c      	ldr	r4, [r3, #0]
    aa1e:	68bb      	ldr	r3, [r7, #8]
    aa20:	1c18      	adds	r0, r3, #0
    aa22:	f7ff ffcf 	bl	a9c4 <_ZNK9__gnu_cxx17__normal_iteratorIPcSsE4baseEv>
    aa26:	1c03      	adds	r3, r0, #0
    aa28:	681b      	ldr	r3, [r3, #0]
    aa2a:	1ae3      	subs	r3, r4, r3
    aa2c:	1c1a      	adds	r2, r3, #0
    aa2e:	4253      	negs	r3, r2
    aa30:	4153      	adcs	r3, r2
    aa32:	061b      	lsls	r3, r3, #24
    aa34:	0e1b      	lsrs	r3, r3, #24
    aa36:	1c18      	adds	r0, r3, #0
    aa38:	46bd      	mov	sp, r7
    aa3a:	b005      	add	sp, #20
    aa3c:	bd90      	pop	{r4, r7, pc}
    aa3e:	46c0      	nop			(mov r8, r8)

0000aa40 <_ZN9__gnu_cxxneIPcSsEEbRKNS_17__normal_iteratorIT_T0_EES7_>:
    { return __lhs.base() != __rhs.base(); }

  template<typename _Iterator, typename _Container>
    inline bool
    operator!=(const __normal_iterator<_Iterator, _Container>& __lhs,
	       const __normal_iterator<_Iterator, _Container>& __rhs)
    aa40:	b590      	push	{r4, r7, lr}
    aa42:	b085      	sub	sp, #20
    aa44:	af00      	add	r7, sp, #0
    aa46:	60f8      	str	r0, [r7, #12]
    aa48:	60b9      	str	r1, [r7, #8]
    { return __lhs.base() != __rhs.base(); }
    aa4a:	68fb      	ldr	r3, [r7, #12]
    aa4c:	1c18      	adds	r0, r3, #0
    aa4e:	f7ff ffb9 	bl	a9c4 <_ZNK9__gnu_cxx17__normal_iteratorIPcSsE4baseEv>
    aa52:	1c03      	adds	r3, r0, #0
    aa54:	681c      	ldr	r4, [r3, #0]
    aa56:	68bb      	ldr	r3, [r7, #8]
    aa58:	1c18      	adds	r0, r3, #0
    aa5a:	f7ff ffb3 	bl	a9c4 <_ZNK9__gnu_cxx17__normal_iteratorIPcSsE4baseEv>
    aa5e:	1c03      	adds	r3, r0, #0
    aa60:	681b      	ldr	r3, [r3, #0]
    aa62:	1ae3      	subs	r3, r4, r3
    aa64:	1e5a      	subs	r2, r3, #1
    aa66:	4193      	sbcs	r3, r2
    aa68:	061b      	lsls	r3, r3, #24
    aa6a:	0e1b      	lsrs	r3, r3, #24
    aa6c:	1c18      	adds	r0, r3, #0
    aa6e:	46bd      	mov	sp, r7
    aa70:	b005      	add	sp, #20
    aa72:	bd90      	pop	{r4, r7, pc}

0000aa74 <_ZNKSt25pointer_to_unary_functionIiiEclEi>:
      explicit
      pointer_to_unary_function(_Result (*__x)(_Arg))
      : _M_ptr(__x) { }

      _Result
      operator()(_Arg __x) const
    aa74:	b580      	push	{r7, lr}
    aa76:	b082      	sub	sp, #8
    aa78:	af00      	add	r7, sp, #0
    aa7a:	6078      	str	r0, [r7, #4]
    aa7c:	6039      	str	r1, [r7, #0]
      { return _M_ptr(__x); }
    aa7e:	687b      	ldr	r3, [r7, #4]
    aa80:	681a      	ldr	r2, [r3, #0]
    aa82:	683b      	ldr	r3, [r7, #0]
    aa84:	1c18      	adds	r0, r3, #0
    aa86:	4790      	blx	r2
    aa88:	1c03      	adds	r3, r0, #0
    aa8a:	469c      	mov	ip, r3
    aa8c:	4663      	mov	r3, ip
    aa8e:	1c18      	adds	r0, r3, #0
    aa90:	46bd      	mov	sp, r7
    aa92:	b002      	add	sp, #8
    aa94:	bd80      	pop	{r7, pc}
    aa96:	46c0      	nop			(mov r8, r8)

0000aa98 <_ZNKSt12unary_negateISt25pointer_to_unary_functionIiiEEclERKi>:
    public:
      explicit
      unary_negate(const _Predicate& __x) : _M_pred(__x) { }

      bool
      operator()(const typename _Predicate::argument_type& __x) const
    aa98:	b580      	push	{r7, lr}
    aa9a:	b084      	sub	sp, #16
    aa9c:	af00      	add	r7, sp, #0
    aa9e:	60f8      	str	r0, [r7, #12]
    aaa0:	60b9      	str	r1, [r7, #8]
      { return !_M_pred(__x); }
    aaa2:	68fa      	ldr	r2, [r7, #12]
    aaa4:	68bb      	ldr	r3, [r7, #8]
    aaa6:	681b      	ldr	r3, [r3, #0]
    aaa8:	1c10      	adds	r0, r2, #0
    aaaa:	1c19      	adds	r1, r3, #0
    aaac:	f7ff ffe2 	bl	aa74 <_ZNKSt25pointer_to_unary_functionIiiEclEi>
    aab0:	1c03      	adds	r3, r0, #0
    aab2:	1c1a      	adds	r2, r3, #0
    aab4:	4253      	negs	r3, r2
    aab6:	4153      	adcs	r3, r2
    aab8:	061b      	lsls	r3, r3, #24
    aaba:	0e1b      	lsrs	r3, r3, #24
    aabc:	1c18      	adds	r0, r3, #0
    aabe:	46bd      	mov	sp, r7
    aac0:	b004      	add	sp, #16
    aac2:	bd80      	pop	{r7, pc}

0000aac4 <_ZSt9__find_ifIN9__gnu_cxx17__normal_iteratorIPcSsEESt12unary_negateISt25pointer_to_unary_functionIiiEEET_S8_S8_T0_St26random_access_iterator_tag>:

  /// This is an overload used by find_if() for the RAI case.
  template<typename _RandomAccessIterator, typename _Predicate>
    _RandomAccessIterator
    __find_if(_RandomAccessIterator __first, _RandomAccessIterator __last,
	      _Predicate __pred, random_access_iterator_tag)
    aac4:	b580      	push	{r7, lr}
    aac6:	b08e      	sub	sp, #56
    aac8:	af00      	add	r7, sp, #0
    aaca:	6178      	str	r0, [r7, #20]
    aacc:	6139      	str	r1, [r7, #16]
    aace:	60fa      	str	r2, [r7, #12]
    aad0:	1c3a      	adds	r2, r7, #0
    aad2:	320b      	adds	r2, #11
    aad4:	7013      	strb	r3, [r2, #0]
    {
      typename iterator_traits<_RandomAccessIterator>::difference_type
	__trip_count = (__last - __first) >> 2;
    aad6:	1c3b      	adds	r3, r7, #0
    aad8:	3310      	adds	r3, #16
    aada:	1c3a      	adds	r2, r7, #0
    aadc:	3214      	adds	r2, #20
    aade:	1c18      	adds	r0, r3, #0
    aae0:	1c11      	adds	r1, r2, #0
    aae2:	f7ff ff79 	bl	a9d8 <_ZN9__gnu_cxxmiIPcSsEENS_17__normal_iteratorIT_T0_E15difference_typeERKS5_S8_>
    aae6:	1c03      	adds	r3, r0, #0
    aae8:	109b      	asrs	r3, r3, #2
    aaea:	637b      	str	r3, [r7, #52]
    aaec:	e076      	b.n	abdc <_ZSt9__find_ifIN9__gnu_cxx17__normal_iteratorIPcSsEESt12unary_negateISt25pointer_to_unary_functionIiiEEET_S8_S8_T0_St26random_access_iterator_tag+0x118>

      for (; __trip_count > 0; --__trip_count)
	{
	  if (__pred(*__first))
    aaee:	1c3b      	adds	r3, r7, #0
    aaf0:	3314      	adds	r3, #20
    aaf2:	1c18      	adds	r0, r3, #0
    aaf4:	f7ff ff52 	bl	a99c <_ZNK9__gnu_cxx17__normal_iteratorIPcSsEdeEv>
    aaf8:	1c03      	adds	r3, r0, #0
    aafa:	781b      	ldrb	r3, [r3, #0]
    aafc:	61bb      	str	r3, [r7, #24]
    aafe:	1c3b      	adds	r3, r7, #0
    ab00:	330c      	adds	r3, #12
    ab02:	1c3a      	adds	r2, r7, #0
    ab04:	3218      	adds	r2, #24
    ab06:	1c18      	adds	r0, r3, #0
    ab08:	1c11      	adds	r1, r2, #0
    ab0a:	f7ff ffc5 	bl	aa98 <_ZNKSt12unary_negateISt25pointer_to_unary_functionIiiEEclERKi>
    ab0e:	1c03      	adds	r3, r0, #0
    ab10:	469c      	mov	ip, r3
    ab12:	4663      	mov	r3, ip
    ab14:	2b00      	cmp	r3, #0
    ab16:	d002      	beq.n	ab1e <_ZSt9__find_ifIN9__gnu_cxx17__normal_iteratorIPcSsEESt12unary_negateISt25pointer_to_unary_functionIiiEEET_S8_S8_T0_St26random_access_iterator_tag+0x5a>
	    return __first;
    ab18:	697b      	ldr	r3, [r7, #20]
    ab1a:	603b      	str	r3, [r7, #0]
    ab1c:	e0ce      	b.n	acbc <_ZSt9__find_ifIN9__gnu_cxx17__normal_iteratorIPcSsEESt12unary_negateISt25pointer_to_unary_functionIiiEEET_S8_S8_T0_St26random_access_iterator_tag+0x1f8>
	  ++__first;
    ab1e:	1c3b      	adds	r3, r7, #0
    ab20:	3314      	adds	r3, #20
    ab22:	1c18      	adds	r0, r3, #0
    ab24:	f7ff ff2c 	bl	a980 <_ZN9__gnu_cxx17__normal_iteratorIPcSsEppEv>

	  if (__pred(*__first))
    ab28:	1c3b      	adds	r3, r7, #0
    ab2a:	3314      	adds	r3, #20
    ab2c:	1c18      	adds	r0, r3, #0
    ab2e:	f7ff ff35 	bl	a99c <_ZNK9__gnu_cxx17__normal_iteratorIPcSsEdeEv>
    ab32:	1c03      	adds	r3, r0, #0
    ab34:	781b      	ldrb	r3, [r3, #0]
    ab36:	61fb      	str	r3, [r7, #28]
    ab38:	1c3b      	adds	r3, r7, #0
    ab3a:	330c      	adds	r3, #12
    ab3c:	1c3a      	adds	r2, r7, #0
    ab3e:	321c      	adds	r2, #28
    ab40:	1c18      	adds	r0, r3, #0
    ab42:	1c11      	adds	r1, r2, #0
    ab44:	f7ff ffa8 	bl	aa98 <_ZNKSt12unary_negateISt25pointer_to_unary_functionIiiEEclERKi>
    ab48:	1c03      	adds	r3, r0, #0
    ab4a:	469c      	mov	ip, r3
    ab4c:	4663      	mov	r3, ip
    ab4e:	2b00      	cmp	r3, #0
    ab50:	d002      	beq.n	ab58 <_ZSt9__find_ifIN9__gnu_cxx17__normal_iteratorIPcSsEESt12unary_negateISt25pointer_to_unary_functionIiiEEET_S8_S8_T0_St26random_access_iterator_tag+0x94>
	    return __first;
    ab52:	697b      	ldr	r3, [r7, #20]
    ab54:	603b      	str	r3, [r7, #0]
    ab56:	e0b1      	b.n	acbc <_ZSt9__find_ifIN9__gnu_cxx17__normal_iteratorIPcSsEESt12unary_negateISt25pointer_to_unary_functionIiiEEET_S8_S8_T0_St26random_access_iterator_tag+0x1f8>
	  ++__first;
    ab58:	1c3b      	adds	r3, r7, #0
    ab5a:	3314      	adds	r3, #20
    ab5c:	1c18      	adds	r0, r3, #0
    ab5e:	f7ff ff0f 	bl	a980 <_ZN9__gnu_cxx17__normal_iteratorIPcSsEppEv>

	  if (__pred(*__first))
    ab62:	1c3b      	adds	r3, r7, #0
    ab64:	3314      	adds	r3, #20
    ab66:	1c18      	adds	r0, r3, #0
    ab68:	f7ff ff18 	bl	a99c <_ZNK9__gnu_cxx17__normal_iteratorIPcSsEdeEv>
    ab6c:	1c03      	adds	r3, r0, #0
    ab6e:	781b      	ldrb	r3, [r3, #0]
    ab70:	623b      	str	r3, [r7, #32]
    ab72:	1c3b      	adds	r3, r7, #0
    ab74:	330c      	adds	r3, #12
    ab76:	1c3a      	adds	r2, r7, #0
    ab78:	3220      	adds	r2, #32
    ab7a:	1c18      	adds	r0, r3, #0
    ab7c:	1c11      	adds	r1, r2, #0
    ab7e:	f7ff ff8b 	bl	aa98 <_ZNKSt12unary_negateISt25pointer_to_unary_functionIiiEEclERKi>
    ab82:	1c03      	adds	r3, r0, #0
    ab84:	469c      	mov	ip, r3
    ab86:	4663      	mov	r3, ip
    ab88:	2b00      	cmp	r3, #0
    ab8a:	d002      	beq.n	ab92 <_ZSt9__find_ifIN9__gnu_cxx17__normal_iteratorIPcSsEESt12unary_negateISt25pointer_to_unary_functionIiiEEET_S8_S8_T0_St26random_access_iterator_tag+0xce>
	    return __first;
    ab8c:	697b      	ldr	r3, [r7, #20]
    ab8e:	603b      	str	r3, [r7, #0]
    ab90:	e094      	b.n	acbc <_ZSt9__find_ifIN9__gnu_cxx17__normal_iteratorIPcSsEESt12unary_negateISt25pointer_to_unary_functionIiiEEET_S8_S8_T0_St26random_access_iterator_tag+0x1f8>
	  ++__first;
    ab92:	1c3b      	adds	r3, r7, #0
    ab94:	3314      	adds	r3, #20
    ab96:	1c18      	adds	r0, r3, #0
    ab98:	f7ff fef2 	bl	a980 <_ZN9__gnu_cxx17__normal_iteratorIPcSsEppEv>

	  if (__pred(*__first))
    ab9c:	1c3b      	adds	r3, r7, #0
    ab9e:	3314      	adds	r3, #20
    aba0:	1c18      	adds	r0, r3, #0
    aba2:	f7ff fefb 	bl	a99c <_ZNK9__gnu_cxx17__normal_iteratorIPcSsEdeEv>
    aba6:	1c03      	adds	r3, r0, #0
    aba8:	781b      	ldrb	r3, [r3, #0]
    abaa:	627b      	str	r3, [r7, #36]
    abac:	1c3b      	adds	r3, r7, #0
    abae:	330c      	adds	r3, #12
    abb0:	1c3a      	adds	r2, r7, #0
    abb2:	3224      	adds	r2, #36
    abb4:	1c18      	adds	r0, r3, #0
    abb6:	1c11      	adds	r1, r2, #0
    abb8:	f7ff ff6e 	bl	aa98 <_ZNKSt12unary_negateISt25pointer_to_unary_functionIiiEEclERKi>
    abbc:	1c03      	adds	r3, r0, #0
    abbe:	469c      	mov	ip, r3
    abc0:	4663      	mov	r3, ip
    abc2:	2b00      	cmp	r3, #0
    abc4:	d002      	beq.n	abcc <_ZSt9__find_ifIN9__gnu_cxx17__normal_iteratorIPcSsEESt12unary_negateISt25pointer_to_unary_functionIiiEEET_S8_S8_T0_St26random_access_iterator_tag+0x108>
	    return __first;
    abc6:	697b      	ldr	r3, [r7, #20]
    abc8:	603b      	str	r3, [r7, #0]
    abca:	e077      	b.n	acbc <_ZSt9__find_ifIN9__gnu_cxx17__normal_iteratorIPcSsEESt12unary_negateISt25pointer_to_unary_functionIiiEEET_S8_S8_T0_St26random_access_iterator_tag+0x1f8>
	  ++__first;
    abcc:	1c3b      	adds	r3, r7, #0
    abce:	3314      	adds	r3, #20
    abd0:	1c18      	adds	r0, r3, #0
    abd2:	f7ff fed5 	bl	a980 <_ZN9__gnu_cxx17__normal_iteratorIPcSsEppEv>
	      _Predicate __pred, random_access_iterator_tag)
    {
      typename iterator_traits<_RandomAccessIterator>::difference_type
	__trip_count = (__last - __first) >> 2;

      for (; __trip_count > 0; --__trip_count)
    abd6:	6b7b      	ldr	r3, [r7, #52]
    abd8:	3b01      	subs	r3, #1
    abda:	637b      	str	r3, [r7, #52]
    abdc:	6b7b      	ldr	r3, [r7, #52]
    abde:	2b00      	cmp	r3, #0
    abe0:	dc85      	bgt.n	aaee <_ZSt9__find_ifIN9__gnu_cxx17__normal_iteratorIPcSsEESt12unary_negateISt25pointer_to_unary_functionIiiEEET_S8_S8_T0_St26random_access_iterator_tag+0x2a>
	  if (__pred(*__first))
	    return __first;
	  ++__first;
	}

      switch (__last - __first)
    abe2:	1c3b      	adds	r3, r7, #0
    abe4:	3310      	adds	r3, #16
    abe6:	1c3a      	adds	r2, r7, #0
    abe8:	3214      	adds	r2, #20
    abea:	1c18      	adds	r0, r3, #0
    abec:	1c11      	adds	r1, r2, #0
    abee:	f7ff fef3 	bl	a9d8 <_ZN9__gnu_cxxmiIPcSsEENS_17__normal_iteratorIT_T0_E15difference_typeERKS5_S8_>
    abf2:	1c03      	adds	r3, r0, #0
    abf4:	607b      	str	r3, [r7, #4]
    abf6:	687b      	ldr	r3, [r7, #4]
    abf8:	2b02      	cmp	r3, #2
    abfa:	d023      	beq.n	ac44 <_ZSt9__find_ifIN9__gnu_cxx17__normal_iteratorIPcSsEESt12unary_negateISt25pointer_to_unary_functionIiiEEET_S8_S8_T0_St26random_access_iterator_tag+0x180>
    abfc:	687b      	ldr	r3, [r7, #4]
    abfe:	2b03      	cmp	r3, #3
    ac00:	d003      	beq.n	ac0a <_ZSt9__find_ifIN9__gnu_cxx17__normal_iteratorIPcSsEESt12unary_negateISt25pointer_to_unary_functionIiiEEET_S8_S8_T0_St26random_access_iterator_tag+0x146>
    ac02:	687b      	ldr	r3, [r7, #4]
    ac04:	2b01      	cmp	r3, #1
    ac06:	d03a      	beq.n	ac7e <_ZSt9__find_ifIN9__gnu_cxx17__normal_iteratorIPcSsEESt12unary_negateISt25pointer_to_unary_functionIiiEEET_S8_S8_T0_St26random_access_iterator_tag+0x1ba>
    ac08:	e056      	b.n	acb8 <_ZSt9__find_ifIN9__gnu_cxx17__normal_iteratorIPcSsEESt12unary_negateISt25pointer_to_unary_functionIiiEEET_S8_S8_T0_St26random_access_iterator_tag+0x1f4>
	{
	case 3:
	  if (__pred(*__first))
    ac0a:	1c3b      	adds	r3, r7, #0
    ac0c:	3314      	adds	r3, #20
    ac0e:	1c18      	adds	r0, r3, #0
    ac10:	f7ff fec4 	bl	a99c <_ZNK9__gnu_cxx17__normal_iteratorIPcSsEdeEv>
    ac14:	1c03      	adds	r3, r0, #0
    ac16:	781b      	ldrb	r3, [r3, #0]
    ac18:	62bb      	str	r3, [r7, #40]
    ac1a:	1c3b      	adds	r3, r7, #0
    ac1c:	330c      	adds	r3, #12
    ac1e:	1c3a      	adds	r2, r7, #0
    ac20:	3228      	adds	r2, #40
    ac22:	1c18      	adds	r0, r3, #0
    ac24:	1c11      	adds	r1, r2, #0
    ac26:	f7ff ff37 	bl	aa98 <_ZNKSt12unary_negateISt25pointer_to_unary_functionIiiEEclERKi>
    ac2a:	1c03      	adds	r3, r0, #0
    ac2c:	469c      	mov	ip, r3
    ac2e:	4663      	mov	r3, ip
    ac30:	2b00      	cmp	r3, #0
    ac32:	d002      	beq.n	ac3a <_ZSt9__find_ifIN9__gnu_cxx17__normal_iteratorIPcSsEESt12unary_negateISt25pointer_to_unary_functionIiiEEET_S8_S8_T0_St26random_access_iterator_tag+0x176>
	    return __first;
    ac34:	697b      	ldr	r3, [r7, #20]
    ac36:	603b      	str	r3, [r7, #0]
    ac38:	e040      	b.n	acbc <_ZSt9__find_ifIN9__gnu_cxx17__normal_iteratorIPcSsEESt12unary_negateISt25pointer_to_unary_functionIiiEEET_S8_S8_T0_St26random_access_iterator_tag+0x1f8>
	  ++__first;
    ac3a:	1c3b      	adds	r3, r7, #0
    ac3c:	3314      	adds	r3, #20
    ac3e:	1c18      	adds	r0, r3, #0
    ac40:	f7ff fe9e 	bl	a980 <_ZN9__gnu_cxx17__normal_iteratorIPcSsEppEv>
	case 2:
	  if (__pred(*__first))
    ac44:	1c3b      	adds	r3, r7, #0
    ac46:	3314      	adds	r3, #20
    ac48:	1c18      	adds	r0, r3, #0
    ac4a:	f7ff fea7 	bl	a99c <_ZNK9__gnu_cxx17__normal_iteratorIPcSsEdeEv>
    ac4e:	1c03      	adds	r3, r0, #0
    ac50:	781b      	ldrb	r3, [r3, #0]
    ac52:	62fb      	str	r3, [r7, #44]
    ac54:	1c3b      	adds	r3, r7, #0
    ac56:	330c      	adds	r3, #12
    ac58:	1c3a      	adds	r2, r7, #0
    ac5a:	322c      	adds	r2, #44
    ac5c:	1c18      	adds	r0, r3, #0
    ac5e:	1c11      	adds	r1, r2, #0
    ac60:	f7ff ff1a 	bl	aa98 <_ZNKSt12unary_negateISt25pointer_to_unary_functionIiiEEclERKi>
    ac64:	1c03      	adds	r3, r0, #0
    ac66:	469c      	mov	ip, r3
    ac68:	4663      	mov	r3, ip
    ac6a:	2b00      	cmp	r3, #0
    ac6c:	d002      	beq.n	ac74 <_ZSt9__find_ifIN9__gnu_cxx17__normal_iteratorIPcSsEESt12unary_negateISt25pointer_to_unary_functionIiiEEET_S8_S8_T0_St26random_access_iterator_tag+0x1b0>
	    return __first;
    ac6e:	697b      	ldr	r3, [r7, #20]
    ac70:	603b      	str	r3, [r7, #0]
    ac72:	e023      	b.n	acbc <_ZSt9__find_ifIN9__gnu_cxx17__normal_iteratorIPcSsEESt12unary_negateISt25pointer_to_unary_functionIiiEEET_S8_S8_T0_St26random_access_iterator_tag+0x1f8>
	  ++__first;
    ac74:	1c3b      	adds	r3, r7, #0
    ac76:	3314      	adds	r3, #20
    ac78:	1c18      	adds	r0, r3, #0
    ac7a:	f7ff fe81 	bl	a980 <_ZN9__gnu_cxx17__normal_iteratorIPcSsEppEv>
	case 1:
	  if (__pred(*__first))
    ac7e:	1c3b      	adds	r3, r7, #0
    ac80:	3314      	adds	r3, #20
    ac82:	1c18      	adds	r0, r3, #0
    ac84:	f7ff fe8a 	bl	a99c <_ZNK9__gnu_cxx17__normal_iteratorIPcSsEdeEv>
    ac88:	1c03      	adds	r3, r0, #0
    ac8a:	781b      	ldrb	r3, [r3, #0]
    ac8c:	633b      	str	r3, [r7, #48]
    ac8e:	1c3b      	adds	r3, r7, #0
    ac90:	330c      	adds	r3, #12
    ac92:	1c3a      	adds	r2, r7, #0
    ac94:	3230      	adds	r2, #48
    ac96:	1c18      	adds	r0, r3, #0
    ac98:	1c11      	adds	r1, r2, #0
    ac9a:	f7ff fefd 	bl	aa98 <_ZNKSt12unary_negateISt25pointer_to_unary_functionIiiEEclERKi>
    ac9e:	1c03      	adds	r3, r0, #0
    aca0:	469c      	mov	ip, r3
    aca2:	4663      	mov	r3, ip
    aca4:	2b00      	cmp	r3, #0
    aca6:	d002      	beq.n	acae <_ZSt9__find_ifIN9__gnu_cxx17__normal_iteratorIPcSsEESt12unary_negateISt25pointer_to_unary_functionIiiEEET_S8_S8_T0_St26random_access_iterator_tag+0x1ea>
	    return __first;
    aca8:	697b      	ldr	r3, [r7, #20]
    acaa:	603b      	str	r3, [r7, #0]
    acac:	e006      	b.n	acbc <_ZSt9__find_ifIN9__gnu_cxx17__normal_iteratorIPcSsEESt12unary_negateISt25pointer_to_unary_functionIiiEEET_S8_S8_T0_St26random_access_iterator_tag+0x1f8>
	  ++__first;
    acae:	1c3b      	adds	r3, r7, #0
    acb0:	3314      	adds	r3, #20
    acb2:	1c18      	adds	r0, r3, #0
    acb4:	f7ff fe64 	bl	a980 <_ZN9__gnu_cxx17__normal_iteratorIPcSsEppEv>
	case 0:
	default:
	  return __last;
    acb8:	693b      	ldr	r3, [r7, #16]
    acba:	603b      	str	r3, [r7, #0]
    acbc:	683b      	ldr	r3, [r7, #0]
	}
    }
    acbe:	1c18      	adds	r0, r3, #0
    acc0:	46bd      	mov	sp, r7
    acc2:	b00e      	add	sp, #56
    acc4:	bd80      	pop	{r7, pc}
    acc6:	46c0      	nop			(mov r8, r8)

0000acc8 <_ZSt7find_ifIN9__gnu_cxx17__normal_iteratorIPcSsEESt12unary_negateISt25pointer_to_unary_functionIiiEEET_S8_S8_T0_>:
   *  such that @p pred(*i) is true, or @p last if no such iterator exists.
  */
  template<typename _InputIterator, typename _Predicate>
    inline _InputIterator
    find_if(_InputIterator __first, _InputIterator __last,
	    _Predicate __pred)
    acc8:	b590      	push	{r4, r7, lr}
    acca:	b085      	sub	sp, #20
    accc:	af00      	add	r7, sp, #0
    acce:	60f8      	str	r0, [r7, #12]
    acd0:	60b9      	str	r1, [r7, #8]
    acd2:	607a      	str	r2, [r7, #4]
      __glibcxx_function_requires(_InputIteratorConcept<_InputIterator>)
      __glibcxx_function_requires(_UnaryPredicateConcept<_Predicate,
	      typename iterator_traits<_InputIterator>::value_type>)
      __glibcxx_requires_valid_range(__first, __last);
      return std::__find_if(__first, __last, __pred,
			    std::__iterator_category(__first));
    acd4:	1c3b      	adds	r3, r7, #0
    acd6:	330c      	adds	r3, #12
    acd8:	1c18      	adds	r0, r3, #0
    acda:	f7ff fe69 	bl	a9b0 <_ZSt19__iterator_categoryIN9__gnu_cxx17__normal_iteratorIPcSsEEENSt15iterator_traitsIT_E17iterator_categoryERKS5_>
    acde:	68fb      	ldr	r3, [r7, #12]
    ace0:	68ba      	ldr	r2, [r7, #8]
    ace2:	687c      	ldr	r4, [r7, #4]
    ace4:	1c18      	adds	r0, r3, #0
    ace6:	1c11      	adds	r1, r2, #0
    ace8:	1c22      	adds	r2, r4, #0
    acea:	78fb      	ldrb	r3, [r7, #3]
    acec:	f7ff feea 	bl	aac4 <_ZSt9__find_ifIN9__gnu_cxx17__normal_iteratorIPcSsEESt12unary_negateISt25pointer_to_unary_functionIiiEEET_S8_S8_T0_St26random_access_iterator_tag>
    acf0:	1c03      	adds	r3, r0, #0
    acf2:	469c      	mov	ip, r3
    acf4:	4663      	mov	r3, ip
    }
    acf6:	1c18      	adds	r0, r3, #0
    acf8:	46bd      	mov	sp, r7
    acfa:	b005      	add	sp, #20
    acfc:	bd90      	pop	{r4, r7, pc}
    acfe:	46c0      	nop			(mov r8, r8)

0000ad00 <_ZSt9remove_ifIN9__gnu_cxx17__normal_iteratorIPcSsEESt12unary_negateISt25pointer_to_unary_functionIiiEEET_S8_S8_T0_>:
   *  are still present, but their value is unspecified.
  */
  template<typename _ForwardIterator, typename _Predicate>
    _ForwardIterator
    remove_if(_ForwardIterator __first, _ForwardIterator __last,
	      _Predicate __pred)
    ad00:	b590      	push	{r4, r7, lr}
    ad02:	b087      	sub	sp, #28
    ad04:	af00      	add	r7, sp, #0
    ad06:	60f8      	str	r0, [r7, #12]
    ad08:	60b9      	str	r1, [r7, #8]
    ad0a:	607a      	str	r2, [r7, #4]
				  _ForwardIterator>)
      __glibcxx_function_requires(_UnaryPredicateConcept<_Predicate,
	    typename iterator_traits<_ForwardIterator>::value_type>)
      __glibcxx_requires_valid_range(__first, __last);

      __first = _GLIBCXX_STD_P::find_if(__first, __last, __pred);
    ad0c:	68fb      	ldr	r3, [r7, #12]
    ad0e:	68ba      	ldr	r2, [r7, #8]
    ad10:	687c      	ldr	r4, [r7, #4]
    ad12:	1c18      	adds	r0, r3, #0
    ad14:	1c11      	adds	r1, r2, #0
    ad16:	1c22      	adds	r2, r4, #0
    ad18:	f7ff ffd6 	bl	acc8 <_ZSt7find_ifIN9__gnu_cxx17__normal_iteratorIPcSsEESt12unary_negateISt25pointer_to_unary_functionIiiEEET_S8_S8_T0_>
    ad1c:	1c03      	adds	r3, r0, #0
    ad1e:	60fb      	str	r3, [r7, #12]
      if(__first == __last)
    ad20:	1c3b      	adds	r3, r7, #0
    ad22:	330c      	adds	r3, #12
    ad24:	1c3a      	adds	r2, r7, #0
    ad26:	3208      	adds	r2, #8
    ad28:	1c18      	adds	r0, r3, #0
    ad2a:	1c11      	adds	r1, r2, #0
    ad2c:	f7ff fe6c 	bl	aa08 <_ZN9__gnu_cxxeqIPcSsEEbRKNS_17__normal_iteratorIT_T0_EES7_>
    ad30:	1c03      	adds	r3, r0, #0
    ad32:	469c      	mov	ip, r3
    ad34:	4663      	mov	r3, ip
    ad36:	2b00      	cmp	r3, #0
    ad38:	d002      	beq.n	ad40 <_ZSt9remove_ifIN9__gnu_cxx17__normal_iteratorIPcSsEESt12unary_negateISt25pointer_to_unary_functionIiiEEET_S8_S8_T0_+0x40>
        return __first;
    ad3a:	68fb      	ldr	r3, [r7, #12]
    ad3c:	603b      	str	r3, [r7, #0]
    ad3e:	e046      	b.n	adce <_ZSt9remove_ifIN9__gnu_cxx17__normal_iteratorIPcSsEESt12unary_negateISt25pointer_to_unary_functionIiiEEET_S8_S8_T0_+0xce>
      _ForwardIterator __result = __first;
    ad40:	68fb      	ldr	r3, [r7, #12]
    ad42:	613b      	str	r3, [r7, #16]
      ++__first;
    ad44:	1c3b      	adds	r3, r7, #0
    ad46:	330c      	adds	r3, #12
    ad48:	1c18      	adds	r0, r3, #0
    ad4a:	f7ff fe19 	bl	a980 <_ZN9__gnu_cxx17__normal_iteratorIPcSsEppEv>
    ad4e:	e02f      	b.n	adb0 <_ZSt9remove_ifIN9__gnu_cxx17__normal_iteratorIPcSsEESt12unary_negateISt25pointer_to_unary_functionIiiEEET_S8_S8_T0_+0xb0>
      for(; __first != __last; ++__first)
        if(!bool(__pred(*__first)))
    ad50:	1c3b      	adds	r3, r7, #0
    ad52:	330c      	adds	r3, #12
    ad54:	1c18      	adds	r0, r3, #0
    ad56:	f7ff fe21 	bl	a99c <_ZNK9__gnu_cxx17__normal_iteratorIPcSsEdeEv>
    ad5a:	1c03      	adds	r3, r0, #0
    ad5c:	781b      	ldrb	r3, [r3, #0]
    ad5e:	617b      	str	r3, [r7, #20]
    ad60:	1d3b      	adds	r3, r7, #4
    ad62:	1c3a      	adds	r2, r7, #0
    ad64:	3214      	adds	r2, #20
    ad66:	1c18      	adds	r0, r3, #0
    ad68:	1c11      	adds	r1, r2, #0
    ad6a:	f7ff fe95 	bl	aa98 <_ZNKSt12unary_negateISt25pointer_to_unary_functionIiiEEclERKi>
    ad6e:	1c03      	adds	r3, r0, #0
    ad70:	469c      	mov	ip, r3
    ad72:	4662      	mov	r2, ip
    ad74:	2301      	movs	r3, #1
    ad76:	4053      	eors	r3, r2
    ad78:	061b      	lsls	r3, r3, #24
    ad7a:	0e1b      	lsrs	r3, r3, #24
    ad7c:	2b00      	cmp	r3, #0
    ad7e:	d012      	beq.n	ada6 <_ZSt9remove_ifIN9__gnu_cxx17__normal_iteratorIPcSsEESt12unary_negateISt25pointer_to_unary_functionIiiEEET_S8_S8_T0_+0xa6>
          {
            *__result = _GLIBCXX_MOVE(*__first);
    ad80:	1c3b      	adds	r3, r7, #0
    ad82:	3310      	adds	r3, #16
    ad84:	1c18      	adds	r0, r3, #0
    ad86:	f7ff fe09 	bl	a99c <_ZNK9__gnu_cxx17__normal_iteratorIPcSsEdeEv>
    ad8a:	1c04      	adds	r4, r0, #0
    ad8c:	1c3b      	adds	r3, r7, #0
    ad8e:	330c      	adds	r3, #12
    ad90:	1c18      	adds	r0, r3, #0
    ad92:	f7ff fe03 	bl	a99c <_ZNK9__gnu_cxx17__normal_iteratorIPcSsEdeEv>
    ad96:	1c03      	adds	r3, r0, #0
    ad98:	781b      	ldrb	r3, [r3, #0]
    ad9a:	7023      	strb	r3, [r4, #0]
            ++__result;
    ad9c:	1c3b      	adds	r3, r7, #0
    ad9e:	3310      	adds	r3, #16
    ada0:	1c18      	adds	r0, r3, #0
    ada2:	f7ff fded 	bl	a980 <_ZN9__gnu_cxx17__normal_iteratorIPcSsEppEv>
      __first = _GLIBCXX_STD_P::find_if(__first, __last, __pred);
      if(__first == __last)
        return __first;
      _ForwardIterator __result = __first;
      ++__first;
      for(; __first != __last; ++__first)
    ada6:	1c3b      	adds	r3, r7, #0
    ada8:	330c      	adds	r3, #12
    adaa:	1c18      	adds	r0, r3, #0
    adac:	f7ff fde8 	bl	a980 <_ZN9__gnu_cxx17__normal_iteratorIPcSsEppEv>
    adb0:	1c3b      	adds	r3, r7, #0
    adb2:	330c      	adds	r3, #12
    adb4:	1c3a      	adds	r2, r7, #0
    adb6:	3208      	adds	r2, #8
    adb8:	1c18      	adds	r0, r3, #0
    adba:	1c11      	adds	r1, r2, #0
    adbc:	f7ff fe40 	bl	aa40 <_ZN9__gnu_cxxneIPcSsEEbRKNS_17__normal_iteratorIT_T0_EES7_>
    adc0:	1c03      	adds	r3, r0, #0
    adc2:	469c      	mov	ip, r3
    adc4:	4663      	mov	r3, ip
    adc6:	2b00      	cmp	r3, #0
    adc8:	d1c2      	bne.n	ad50 <_ZSt9remove_ifIN9__gnu_cxx17__normal_iteratorIPcSsEESt12unary_negateISt25pointer_to_unary_functionIiiEEET_S8_S8_T0_+0x50>
        if(!bool(__pred(*__first)))
          {
            *__result = _GLIBCXX_MOVE(*__first);
            ++__result;
          }
      return __result;
    adca:	693b      	ldr	r3, [r7, #16]
    adcc:	603b      	str	r3, [r7, #0]
    adce:	683b      	ldr	r3, [r7, #0]
    }
    add0:	1c18      	adds	r0, r3, #0
    add2:	46bd      	mov	sp, r7
    add4:	b007      	add	sp, #28
    add6:	bd90      	pop	{r4, r7, pc}

0000add8 <_ZN10FfPipelineC2Eh>:
#include "include/ffmpeg_pipeline.h"

FfPipeline::FfPipeline(unsigned char slot_num)
    add8:	b590      	push	{r4, r7, lr}
    adda:	b083      	sub	sp, #12
    addc:	af00      	add	r7, sp, #0
    adde:	6078      	str	r0, [r7, #4]
    ade0:	1c0b      	adds	r3, r1, #0
    ade2:	1cfa      	adds	r2, r7, #3
    ade4:	7013      	strb	r3, [r2, #0]
{
  Slot = slot_num;
    ade6:	687a      	ldr	r2, [r7, #4]
    ade8:	1cfb      	adds	r3, r7, #3
    adea:	781b      	ldrb	r3, [r3, #0]
    adec:	7113      	strb	r3, [r2, #4]
  RecState = REC_NOTINITIALIZED;
    adee:	687a      	ldr	r2, [r7, #4]
    adf0:	2300      	movs	r3, #0
    adf2:	6093      	str	r3, [r2, #8]
  PrevPadTimestamp = 0;
    adf4:	687a      	ldr	r2, [r7, #4]
    adf6:	2300      	movs	r3, #0
    adf8:	60d3      	str	r3, [r2, #12]
  WaitKeyframeFlag = false;
    adfa:	687a      	ldr	r2, [r7, #4]
    adfc:	2300      	movs	r3, #0
    adfe:	7453      	strb	r3, [r2, #17]
  IsNeedStopFlag = false;
    ae00:	687a      	ldr	r2, [r7, #4]
    ae02:	2300      	movs	r3, #0
    ae04:	7413      	strb	r3, [r2, #16]
  LastMuxDts = AV_NOPTS_VALUE;
    ae06:	687a      	ldr	r2, [r7, #4]
    ae08:	4c06      	ldr	r4, [pc, #24]	(ae24 <_ZN10FfPipelineC2Eh+0x4c>)
    ae0a:	4b05      	ldr	r3, [pc, #20]	(ae20 <_ZN10FfPipelineC2Eh+0x48>)
    ae0c:	6193      	str	r3, [r2, #24]
    ae0e:	61d4      	str	r4, [r2, #28]
}
    ae10:	687b      	ldr	r3, [r7, #4]
    ae12:	1c18      	adds	r0, r3, #0
    ae14:	46bd      	mov	sp, r7
    ae16:	b003      	add	sp, #12
    ae18:	bd90      	pop	{r4, r7, pc}
    ae1a:	46c0      	nop			(mov r8, r8)
    ae1c:	46c0      	nop			(mov r8, r8)
    ae1e:	46c0      	nop			(mov r8, r8)
    ae20:	00000000 	.word	0x00000000
    ae24:	80000000 	.word	0x80000000

0000ae28 <_ZN10FfPipelineC1Eh>:
#include "include/ffmpeg_pipeline.h"

FfPipeline::FfPipeline(unsigned char slot_num)
    ae28:	b590      	push	{r4, r7, lr}
    ae2a:	b083      	sub	sp, #12
    ae2c:	af00      	add	r7, sp, #0
    ae2e:	6078      	str	r0, [r7, #4]
    ae30:	1c0b      	adds	r3, r1, #0
    ae32:	1cfa      	adds	r2, r7, #3
    ae34:	7013      	strb	r3, [r2, #0]
{
  Slot = slot_num;
    ae36:	687a      	ldr	r2, [r7, #4]
    ae38:	1cfb      	adds	r3, r7, #3
    ae3a:	781b      	ldrb	r3, [r3, #0]
    ae3c:	7113      	strb	r3, [r2, #4]
  RecState = REC_NOTINITIALIZED;
    ae3e:	687a      	ldr	r2, [r7, #4]
    ae40:	2300      	movs	r3, #0
    ae42:	6093      	str	r3, [r2, #8]
  PrevPadTimestamp = 0;
    ae44:	687a      	ldr	r2, [r7, #4]
    ae46:	2300      	movs	r3, #0
    ae48:	60d3      	str	r3, [r2, #12]
  WaitKeyframeFlag = false;
    ae4a:	687a      	ldr	r2, [r7, #4]
    ae4c:	2300      	movs	r3, #0
    ae4e:	7453      	strb	r3, [r2, #17]
  IsNeedStopFlag = false;
    ae50:	687a      	ldr	r2, [r7, #4]
    ae52:	2300      	movs	r3, #0
    ae54:	7413      	strb	r3, [r2, #16]
  LastMuxDts = AV_NOPTS_VALUE;
    ae56:	687a      	ldr	r2, [r7, #4]
    ae58:	4c06      	ldr	r4, [pc, #24]	(ae74 <_ZN10FfPipelineC1Eh+0x4c>)
    ae5a:	4b05      	ldr	r3, [pc, #20]	(ae70 <_ZN10FfPipelineC1Eh+0x48>)
    ae5c:	6193      	str	r3, [r2, #24]
    ae5e:	61d4      	str	r4, [r2, #28]
}
    ae60:	687b      	ldr	r3, [r7, #4]
    ae62:	1c18      	adds	r0, r3, #0
    ae64:	46bd      	mov	sp, r7
    ae66:	b003      	add	sp, #12
    ae68:	bd90      	pop	{r4, r7, pc}
    ae6a:	46c0      	nop			(mov r8, r8)
    ae6c:	46c0      	nop			(mov r8, r8)
    ae6e:	46c0      	nop			(mov r8, r8)
    ae70:	00000000 	.word	0x00000000
    ae74:	80000000 	.word	0x80000000

0000ae78 <_ZN10FfPipelineD2Ev>:

FfPipeline::~FfPipeline()
    ae78:	b580      	push	{r7, lr}
    ae7a:	b082      	sub	sp, #8
    ae7c:	af00      	add	r7, sp, #0
    ae7e:	6078      	str	r0, [r7, #4]
{
}
    ae80:	687b      	ldr	r3, [r7, #4]
    ae82:	1c18      	adds	r0, r3, #0
    ae84:	46bd      	mov	sp, r7
    ae86:	b002      	add	sp, #8
    ae88:	bd80      	pop	{r7, pc}
    ae8a:	46c0      	nop			(mov r8, r8)

0000ae8c <_ZN10FfPipelineD1Ev>:
  WaitKeyframeFlag = false;
  IsNeedStopFlag = false;
  LastMuxDts = AV_NOPTS_VALUE;
}

FfPipeline::~FfPipeline()
    ae8c:	b580      	push	{r7, lr}
    ae8e:	b082      	sub	sp, #8
    ae90:	af00      	add	r7, sp, #0
    ae92:	6078      	str	r0, [r7, #4]
{
}
    ae94:	687b      	ldr	r3, [r7, #4]
    ae96:	1c18      	adds	r0, r3, #0
    ae98:	46bd      	mov	sp, r7
    ae9a:	b002      	add	sp, #8
    ae9c:	bd80      	pop	{r7, pc}
    ae9e:	46c0      	nop			(mov r8, r8)

0000aea0 <_ZN10FfPipeline21SetPartnerPipePointerEPv>:
  pthread_mutex_lock(&mutex);
  IsNeedStopFlag = true;
  pthread_mutex_unlock(&mutex);
}

void FfPipeline::SetPartnerPipePointer(gpointer p)
    aea0:	b580      	push	{r7, lr}
    aea2:	b082      	sub	sp, #8
    aea4:	af00      	add	r7, sp, #0
    aea6:	6078      	str	r0, [r7, #4]
    aea8:	6039      	str	r1, [r7, #0]
{
  PartnerPipePointer = p;
    aeaa:	687a      	ldr	r2, [r7, #4]
    aeac:	683b      	ldr	r3, [r7, #0]
    aeae:	6013      	str	r3, [r2, #0]
}
    aeb0:	46bd      	mov	sp, r7
    aeb2:	b002      	add	sp, #8
    aeb4:	bd80      	pop	{r7, pc}
    aeb6:	46c0      	nop			(mov r8, r8)

0000aeb8 <_ZN10FfPipeline11SetRecStateE14RecordingState>:

void FfPipeline::SetRecState(RecordingState rst)
    aeb8:	b580      	push	{r7, lr}
    aeba:	b082      	sub	sp, #8
    aebc:	af00      	add	r7, sp, #0
    aebe:	6078      	str	r0, [r7, #4]
    aec0:	6039      	str	r1, [r7, #0]
{
  RecState = rst;
    aec2:	687a      	ldr	r2, [r7, #4]
    aec4:	683b      	ldr	r3, [r7, #0]
    aec6:	6093      	str	r3, [r2, #8]
}
    aec8:	46bd      	mov	sp, r7
    aeca:	b002      	add	sp, #8
    aecc:	bd80      	pop	{r7, pc}
    aece:	46c0      	nop			(mov r8, r8)

0000aed0 <_ZN10FfPipeline22SetWaitingKeyframeFlagEv>:
  sprintf(str, "DEBUG: Slot '%d' was marked for stopping by SetNeedStopFlag().\n", Pipe->Slot);
  AppendLog(str, class_name);
  return 0;
}

void FfPipeline::SetWaitingKeyframeFlag()
    aed0:	b580      	push	{r7, lr}
    aed2:	b082      	sub	sp, #8
    aed4:	af00      	add	r7, sp, #0
    aed6:	6078      	str	r0, [r7, #4]
{
  WaitKeyframeFlag = true;
    aed8:	687b      	ldr	r3, [r7, #4]
    aeda:	2201      	movs	r2, #1
    aedc:	745a      	strb	r2, [r3, #17]
}
    aede:	46bd      	mov	sp, r7
    aee0:	b002      	add	sp, #8
    aee2:	bd80      	pop	{r7, pc}

0000aee4 <_ZN10FfPipeline24ClearWaitingKeyframeFlagEv>:

void FfPipeline::ClearWaitingKeyframeFlag()
    aee4:	b580      	push	{r7, lr}
    aee6:	b082      	sub	sp, #8
    aee8:	af00      	add	r7, sp, #0
    aeea:	6078      	str	r0, [r7, #4]
{
  WaitKeyframeFlag = false;
    aeec:	687b      	ldr	r3, [r7, #4]
    aeee:	2200      	movs	r2, #0
    aef0:	745a      	strb	r2, [r3, #17]
}
    aef2:	46bd      	mov	sp, r7
    aef4:	b002      	add	sp, #8
    aef6:	bd80      	pop	{r7, pc}

0000aef8 <_ZN10FfPipeline17IsWaitingKeyframeEv>:

bool FfPipeline::IsWaitingKeyframe()
    aef8:	b580      	push	{r7, lr}
    aefa:	b082      	sub	sp, #8
    aefc:	af00      	add	r7, sp, #0
    aefe:	6078      	str	r0, [r7, #4]
{
  return WaitKeyframeFlag;
    af00:	687b      	ldr	r3, [r7, #4]
    af02:	7c5b      	ldrb	r3, [r3, #17]
}
    af04:	1c18      	adds	r0, r3, #0
    af06:	46bd      	mov	sp, r7
    af08:	b002      	add	sp, #8
    af0a:	bd80      	pop	{r7, pc}

0000af0c <_ZN10FfPipeline11GetRecStateEv>:
  Pip->DoRecording();

  return pdata;
}

RecordingState FfPipeline::GetRecState()
    af0c:	b580      	push	{r7, lr}
    af0e:	b082      	sub	sp, #8
    af10:	af00      	add	r7, sp, #0
    af12:	6078      	str	r0, [r7, #4]
{
  return RecState;
    af14:	687b      	ldr	r3, [r7, #4]
    af16:	689b      	ldr	r3, [r3, #8]
}
    af18:	1c18      	adds	r0, r3, #0
    af1a:	46bd      	mov	sp, r7
    af1c:	b002      	add	sp, #8
    af1e:	bd80      	pop	{r7, pc}

0000af20 <_Z41__static_initialization_and_destruction_0ii>:
  avformat_close_input(&ifcx);

  SetRecState(REC_STOPPED);

  return 0;
}
    af20:	b580      	push	{r7, lr}
    af22:	b082      	sub	sp, #8
    af24:	af00      	add	r7, sp, #0
    af26:	6078      	str	r0, [r7, #4]
    af28:	6039      	str	r1, [r7, #0]
    af2a:	687b      	ldr	r3, [r7, #4]
    af2c:	2b01      	cmp	r3, #1
    af2e:	d10d      	bne.n	af4c <_Z41__static_initialization_and_destruction_0ii+0x2c>
    af30:	683a      	ldr	r2, [r7, #0]
    af32:	4b08      	ldr	r3, [pc, #32]	(af54 <_Z41__static_initialization_and_destruction_0ii+0x34>)
    af34:	429a      	cmp	r2, r3
    af36:	d109      	bne.n	af4c <_Z41__static_initialization_and_destruction_0ii+0x2c>
    af38:	4b07      	ldr	r3, [pc, #28]	(af58 <_Z41__static_initialization_and_destruction_0ii+0x38>)
    af3a:	1c18      	adds	r0, r3, #0
    af3c:	f7fe eccc 	blx	98d8 <_init+0x134>
    af40:	4906      	ldr	r1, [pc, #24]	(af5c <_Z41__static_initialization_and_destruction_0ii+0x3c>)
    af42:	4b05      	ldr	r3, [pc, #20]	(af58 <_Z41__static_initialization_and_destruction_0ii+0x38>)
    af44:	4a06      	ldr	r2, [pc, #24]	(af60 <_Z41__static_initialization_and_destruction_0ii+0x40>)
    af46:	1c18      	adds	r0, r3, #0
    af48:	f7fe edc2 	blx	9ad0 <_init+0x32c>
    af4c:	46bd      	mov	sp, r7
    af4e:	b002      	add	sp, #8
    af50:	bd80      	pop	{r7, pc}
    af52:	46c0      	nop			(mov r8, r8)
    af54:	0000ffff 	.word	0x0000ffff
    af58:	00016762 	.word	0x00016762
    af5c:	00009938 	.word	0x00009938
    af60:	00016718 	.word	0x00016718

0000af64 <_GLOBAL__I__ZN10FfPipelineC2Eh>:
    af64:	b580      	push	{r7, lr}
    af66:	af00      	add	r7, sp, #0
    af68:	4b03      	ldr	r3, [pc, #12]	(af78 <_GLOBAL__I__ZN10FfPipelineC2Eh+0x14>)
    af6a:	2001      	movs	r0, #1
    af6c:	1c19      	adds	r1, r3, #0
    af6e:	f7ff ffd7 	bl	af20 <_Z41__static_initialization_and_destruction_0ii>
    af72:	46bd      	mov	sp, r7
    af74:	bd80      	pop	{r7, pc}
    af76:	46c0      	nop			(mov r8, r8)
    af78:	0000ffff 	.word	0x0000ffff

0000af7c <_ZN10FfPipeline26r_avformat_close_input_v24EPP15AVFormatContext>:

FfPipeline::~FfPipeline()
{
}

void FfPipeline::r_avformat_close_input_v24(AVFormatContext **ps)
    af7c:	b580      	push	{r7, lr}
    af7e:	b082      	sub	sp, #8
    af80:	af00      	add	r7, sp, #0
    af82:	6078      	str	r0, [r7, #4]
    af84:	6039      	str	r1, [r7, #0]
{
  return avformat_close_input(ps);
    af86:	683b      	ldr	r3, [r7, #0]
    af88:	1c18      	adds	r0, r3, #0
    af8a:	f7fe edf6 	blx	9b78 <_init+0x3d4>
}
    af8e:	46bd      	mov	sp, r7
    af90:	b002      	add	sp, #8
    af92:	bd80      	pop	{r7, pc}

0000af94 <_ZN10FfPipeline15RescalePtsDts24EP8AVPacketP8AVStreamS3_>:
      sprintf(str, "ERROR: Error executing av_interleaved_write_frame()...Error code: %d. Error: '%s'.\n", ret, av_err2str(ret));
      AppendLog(str, class_name);
    }
}

void FfPipeline::RescalePtsDts24(AVPacket *pkt, AVStream *in_stream, AVStream *out_stream)
    af94:	b5f0      	push	{r4, r5, r6, r7, lr}
    af96:	4647      	mov	r7, r8
    af98:	b480      	push	{r7}
    af9a:	b08c      	sub	sp, #48
    af9c:	af02      	add	r7, sp, #8
    af9e:	6278      	str	r0, [r7, #36]
    afa0:	6239      	str	r1, [r7, #32]
    afa2:	61fa      	str	r2, [r7, #28]
    afa4:	61bb      	str	r3, [r7, #24]
{
  pkt->pts = av_rescale_q(pkt->pts, in_stream->time_base, out_stream->time_base);
    afa6:	6a3b      	ldr	r3, [r7, #32]
    afa8:	6899      	ldr	r1, [r3, #8]
    afaa:	68da      	ldr	r2, [r3, #12]
    afac:	69fc      	ldr	r4, [r7, #28]
    afae:	69bb      	ldr	r3, [r7, #24]
    afb0:	4668      	mov	r0, sp
    afb2:	4684      	mov	ip, r0
    afb4:	46e0      	mov	r8, ip
    afb6:	4645      	mov	r5, r8
    afb8:	617d      	str	r5, [r7, #20]
    afba:	1c18      	adds	r0, r3, #0
    afbc:	3028      	adds	r0, #40
    afbe:	6138      	str	r0, [r7, #16]
    afc0:	697b      	ldr	r3, [r7, #20]
    afc2:	693d      	ldr	r5, [r7, #16]
    afc4:	cd41      	ldmia	r5!, {r0, r6}
    afc6:	c341      	stmia	r3!, {r0, r6}
    afc8:	1c08      	adds	r0, r1, #0
    afca:	1c11      	adds	r1, r2, #0
    afcc:	6aa2      	ldr	r2, [r4, #40]
    afce:	6ae3      	ldr	r3, [r4, #44]
    afd0:	f7fe ec76 	blx	98c0 <_init+0x11c>
    afd4:	1c03      	adds	r3, r0, #0
    afd6:	1c0c      	adds	r4, r1, #0
    afd8:	6a3a      	ldr	r2, [r7, #32]
    afda:	6093      	str	r3, [r2, #8]
    afdc:	60d4      	str	r4, [r2, #12]
  pkt->dts = av_rescale_q(pkt->dts, in_stream->time_base, out_stream->time_base);
    afde:	6a3b      	ldr	r3, [r7, #32]
    afe0:	6919      	ldr	r1, [r3, #16]
    afe2:	695a      	ldr	r2, [r3, #20]
    afe4:	69fc      	ldr	r4, [r7, #28]
    afe6:	69bb      	ldr	r3, [r7, #24]
    afe8:	466d      	mov	r5, sp
    afea:	46ac      	mov	ip, r5
    afec:	46e0      	mov	r8, ip
    afee:	4646      	mov	r6, r8
    aff0:	60fe      	str	r6, [r7, #12]
    aff2:	1c18      	adds	r0, r3, #0
    aff4:	3028      	adds	r0, #40
    aff6:	60b8      	str	r0, [r7, #8]
    aff8:	68fb      	ldr	r3, [r7, #12]
    affa:	68bd      	ldr	r5, [r7, #8]
    affc:	cd41      	ldmia	r5!, {r0, r6}
    affe:	c341      	stmia	r3!, {r0, r6}
    b000:	1c08      	adds	r0, r1, #0
    b002:	1c11      	adds	r1, r2, #0
    b004:	6aa2      	ldr	r2, [r4, #40]
    b006:	6ae3      	ldr	r3, [r4, #44]
    b008:	f7fe ec5a 	blx	98c0 <_init+0x11c>
    b00c:	1c03      	adds	r3, r0, #0
    b00e:	1c0c      	adds	r4, r1, #0
    b010:	6a3a      	ldr	r2, [r7, #32]
    b012:	6113      	str	r3, [r2, #16]
    b014:	6154      	str	r4, [r2, #20]
  pkt->duration = av_rescale_q(pkt->duration, in_stream->time_base, out_stream->time_base);
    b016:	6a3b      	ldr	r3, [r7, #32]
    b018:	6b1a      	ldr	r2, [r3, #48]
    b01a:	17d1      	asrs	r1, r2, #31
    b01c:	1c13      	adds	r3, r2, #0
    b01e:	1c0c      	adds	r4, r1, #0
    b020:	69fd      	ldr	r5, [r7, #28]
    b022:	69ba      	ldr	r2, [r7, #24]
    b024:	4669      	mov	r1, sp
    b026:	468c      	mov	ip, r1
    b028:	46e0      	mov	r8, ip
    b02a:	4646      	mov	r6, r8
    b02c:	607e      	str	r6, [r7, #4]
    b02e:	1c10      	adds	r0, r2, #0
    b030:	3028      	adds	r0, #40
    b032:	6038      	str	r0, [r7, #0]
    b034:	6879      	ldr	r1, [r7, #4]
    b036:	683a      	ldr	r2, [r7, #0]
    b038:	ca41      	ldmia	r2!, {r0, r6}
    b03a:	c141      	stmia	r1!, {r0, r6}
    b03c:	1c18      	adds	r0, r3, #0
    b03e:	1c21      	adds	r1, r4, #0
    b040:	6aaa      	ldr	r2, [r5, #40]
    b042:	6aeb      	ldr	r3, [r5, #44]
    b044:	f7fe ec3c 	blx	98c0 <_init+0x11c>
    b048:	1c03      	adds	r3, r0, #0
    b04a:	1c0c      	adds	r4, r1, #0
    b04c:	1c1a      	adds	r2, r3, #0
    b04e:	6a3b      	ldr	r3, [r7, #32]
    b050:	631a      	str	r2, [r3, #48]
}
    b052:	46bd      	mov	sp, r7
    b054:	b00a      	add	sp, #40
    b056:	bc04      	pop	{r2}
    b058:	4690      	mov	r8, r2
    b05a:	bdf0      	pop	{r4, r5, r6, r7, pc}

0000b05c <av_make_error_string>:
 * @param errbuf_size    size in bytes of errbuf
 * @param errnum         error code to describe
 * @return the buffer in input, filled with the error description
 * @see av_strerror()
 */
static inline char *av_make_error_string(char *errbuf, size_t errbuf_size, int errnum)
    b05c:	b590      	push	{r4, r7, lr}
    b05e:	b085      	sub	sp, #20
    b060:	af00      	add	r7, sp, #0
    b062:	60f8      	str	r0, [r7, #12]
    b064:	60b9      	str	r1, [r7, #8]
    b066:	607a      	str	r2, [r7, #4]
{
    av_strerror(errnum, errbuf, errbuf_size);
    b068:	687b      	ldr	r3, [r7, #4]
    b06a:	68fa      	ldr	r2, [r7, #12]
    b06c:	68bc      	ldr	r4, [r7, #8]
    b06e:	1c18      	adds	r0, r3, #0
    b070:	1c11      	adds	r1, r2, #0
    b072:	1c22      	adds	r2, r4, #0
    b074:	f7fe ecd8 	blx	9a28 <_init+0x284>
    return errbuf;
    b078:	68fb      	ldr	r3, [r7, #12]
}
    b07a:	1c18      	adds	r0, r3, #0
    b07c:	46bd      	mov	sp, r7
    b07e:	b005      	add	sp, #20
    b080:	bd90      	pop	{r4, r7, pc}
    b082:	46c0      	nop			(mov r8, r8)

0000b084 <_ZN10FfPipeline15WriteFrame_v242EP15AVFormatContextP8AVStreamP8AVPacketP24AVBitStreamFilterContext>:
int FfPipeline::Start()
{
	return ThInitiateRecording();
}

void FfPipeline::WriteFrame_v242(AVFormatContext *s, AVStream *st, AVPacket *pkt, AVBitStreamFilterContext *bsfc)
    b084:	b5f0      	push	{r4, r5, r6, r7, lr}
    b086:	b0a1      	sub	sp, #132
    b088:	af00      	add	r7, sp, #0
    b08a:	64f8      	str	r0, [r7, #76]
    b08c:	64b9      	str	r1, [r7, #72]
    b08e:	647a      	str	r2, [r7, #68]
    b090:	643b      	str	r3, [r7, #64]
{
  const char *class_name = "FfPipeline::WriteFrame_v242";
    b092:	4b7f      	ldr	r3, [pc, #508]	(b290 <_ZN10FfPipeline15WriteFrame_v242EP15AVFormatContextP8AVStreamP8AVPacketP24AVBitStreamFilterContext+0x20c>)
    b094:	66fb      	str	r3, [r7, #108]
  int ret;
  AVCodecContext *avctx = st->codec;
    b096:	6c7b      	ldr	r3, [r7, #68]
    b098:	689b      	ldr	r3, [r3, #8]
    b09a:	677b      	str	r3, [r7, #116]

  if ((avctx->codec_type == AVMEDIA_TYPE_AUDIO || avctx->codec_type == AVMEDIA_TYPE_VIDEO) && pkt->dts != AV_NOPTS_VALUE)
    b09c:	6f7b      	ldr	r3, [r7, #116]
    b09e:	689b      	ldr	r3, [r3, #8]
    b0a0:	2b01      	cmp	r3, #1
    b0a2:	d004      	beq.n	b0ae <_ZN10FfPipeline15WriteFrame_v242EP15AVFormatContextP8AVStreamP8AVPacketP24AVBitStreamFilterContext+0x2a>
    b0a4:	6f7b      	ldr	r3, [r7, #116]
    b0a6:	689b      	ldr	r3, [r3, #8]
    b0a8:	2b00      	cmp	r3, #0
    b0aa:	d000      	beq.n	b0ae <_ZN10FfPipeline15WriteFrame_v242EP15AVFormatContextP8AVStreamP8AVPacketP24AVBitStreamFilterContext+0x2a>
    b0ac:	e0aa      	b.n	b204 <_ZN10FfPipeline15WriteFrame_v242EP15AVFormatContextP8AVStreamP8AVPacketP24AVBitStreamFilterContext+0x180>
    b0ae:	6c3b      	ldr	r3, [r7, #64]
    b0b0:	6919      	ldr	r1, [r3, #16]
    b0b2:	695a      	ldr	r2, [r3, #20]
    b0b4:	60b9      	str	r1, [r7, #8]
    b0b6:	60fa      	str	r2, [r7, #12]
    b0b8:	68ba      	ldr	r2, [r7, #8]
    b0ba:	2a00      	cmp	r2, #0
    b0bc:	d104      	bne.n	b0c8 <_ZN10FfPipeline15WriteFrame_v242EP15AVFormatContextP8AVStreamP8AVPacketP24AVBitStreamFilterContext+0x44>
    b0be:	4b75      	ldr	r3, [pc, #468]	(b294 <_ZN10FfPipeline15WriteFrame_v242EP15AVFormatContextP8AVStreamP8AVPacketP24AVBitStreamFilterContext+0x210>)
    b0c0:	68fc      	ldr	r4, [r7, #12]
    b0c2:	429c      	cmp	r4, r3
    b0c4:	d100      	bne.n	b0c8 <_ZN10FfPipeline15WriteFrame_v242EP15AVFormatContextP8AVStreamP8AVPacketP24AVBitStreamFilterContext+0x44>
    b0c6:	e09d      	b.n	b204 <_ZN10FfPipeline15WriteFrame_v242EP15AVFormatContextP8AVStreamP8AVPacketP24AVBitStreamFilterContext+0x180>
    {
      int64_t max = st->cur_dts + !(s->oformat->flags & AVFMT_TS_NONSTRICT);
    b0c8:	6c7b      	ldr	r3, [r7, #68]
    b0ca:	33d8      	adds	r3, #216
    b0cc:	681d      	ldr	r5, [r3, #0]
    b0ce:	685e      	ldr	r6, [r3, #4]
    b0d0:	6cbb      	ldr	r3, [r7, #72]
    b0d2:	689b      	ldr	r3, [r3, #8]
    b0d4:	69da      	ldr	r2, [r3, #28]
    b0d6:	2380      	movs	r3, #128
    b0d8:	029b      	lsls	r3, r3, #10
    b0da:	4013      	ands	r3, r2
    b0dc:	425a      	negs	r2, r3
    b0de:	415a      	adcs	r2, r3
    b0e0:	2100      	movs	r1, #0
    b0e2:	1c13      	adds	r3, r2, #0
    b0e4:	1c0c      	adds	r4, r1, #0
    b0e6:	195b      	adds	r3, r3, r5
    b0e8:	4174      	adcs	r4, r6
    b0ea:	67bb      	str	r3, [r7, #120]
    b0ec:	67fc      	str	r4, [r7, #124]
      if (st->cur_dts && st->cur_dts != AV_NOPTS_VALUE && max > pkt->dts)
    b0ee:	6c7b      	ldr	r3, [r7, #68]
    b0f0:	33d8      	adds	r3, #216
    b0f2:	6819      	ldr	r1, [r3, #0]
    b0f4:	685a      	ldr	r2, [r3, #4]
    b0f6:	1c0b      	adds	r3, r1, #0
    b0f8:	4313      	orrs	r3, r2
    b0fa:	2b00      	cmp	r3, #0
    b0fc:	d100      	bne.n	b100 <_ZN10FfPipeline15WriteFrame_v242EP15AVFormatContextP8AVStreamP8AVPacketP24AVBitStreamFilterContext+0x7c>
    b0fe:	e081      	b.n	b204 <_ZN10FfPipeline15WriteFrame_v242EP15AVFormatContextP8AVStreamP8AVPacketP24AVBitStreamFilterContext+0x180>
    b100:	6c7b      	ldr	r3, [r7, #68]
    b102:	33d8      	adds	r3, #216
    b104:	6819      	ldr	r1, [r3, #0]
    b106:	685a      	ldr	r2, [r3, #4]
    b108:	6139      	str	r1, [r7, #16]
    b10a:	617a      	str	r2, [r7, #20]
    b10c:	693a      	ldr	r2, [r7, #16]
    b10e:	2a00      	cmp	r2, #0
    b110:	d104      	bne.n	b11c <_ZN10FfPipeline15WriteFrame_v242EP15AVFormatContextP8AVStreamP8AVPacketP24AVBitStreamFilterContext+0x98>
    b112:	4b60      	ldr	r3, [pc, #384]	(b294 <_ZN10FfPipeline15WriteFrame_v242EP15AVFormatContextP8AVStreamP8AVPacketP24AVBitStreamFilterContext+0x210>)
    b114:	697c      	ldr	r4, [r7, #20]
    b116:	429c      	cmp	r4, r3
    b118:	d100      	bne.n	b11c <_ZN10FfPipeline15WriteFrame_v242EP15AVFormatContextP8AVStreamP8AVPacketP24AVBitStreamFilterContext+0x98>
    b11a:	e073      	b.n	b204 <_ZN10FfPipeline15WriteFrame_v242EP15AVFormatContextP8AVStreamP8AVPacketP24AVBitStreamFilterContext+0x180>
    b11c:	6c3b      	ldr	r3, [r7, #64]
    b11e:	6919      	ldr	r1, [r3, #16]
    b120:	695a      	ldr	r2, [r3, #20]
    b122:	61b9      	str	r1, [r7, #24]
    b124:	61fa      	str	r2, [r7, #28]
    b126:	6ffb      	ldr	r3, [r7, #124]
    b128:	69fa      	ldr	r2, [r7, #28]
    b12a:	4293      	cmp	r3, r2
    b12c:	dc07      	bgt.n	b13e <_ZN10FfPipeline15WriteFrame_v242EP15AVFormatContextP8AVStreamP8AVPacketP24AVBitStreamFilterContext+0xba>
    b12e:	6ffb      	ldr	r3, [r7, #124]
    b130:	69fc      	ldr	r4, [r7, #28]
    b132:	42a3      	cmp	r3, r4
    b134:	d166      	bne.n	b204 <_ZN10FfPipeline15WriteFrame_v242EP15AVFormatContextP8AVStreamP8AVPacketP24AVBitStreamFilterContext+0x180>
    b136:	6fbb      	ldr	r3, [r7, #120]
    b138:	69b9      	ldr	r1, [r7, #24]
    b13a:	428b      	cmp	r3, r1
    b13c:	d962      	bls.n	b204 <_ZN10FfPipeline15WriteFrame_v242EP15AVFormatContextP8AVStreamP8AVPacketP24AVBitStreamFilterContext+0x180>
        {
          AppendLog("WARNING: PTS:DTS < PRId64 invalid, clipping\n", class_name);
    b13e:	1c3b      	adds	r3, r7, #0
    b140:	335f      	adds	r3, #95
    b142:	1c18      	adds	r0, r3, #0
    b144:	f7fe ed1e 	blx	9b84 <_init+0x3e0>
    b148:	1c3b      	adds	r3, r7, #0
    b14a:	3358      	adds	r3, #88
    b14c:	4a52      	ldr	r2, [pc, #328]	(b298 <_ZN10FfPipeline15WriteFrame_v242EP15AVFormatContextP8AVStreamP8AVPacketP24AVBitStreamFilterContext+0x214>)
    b14e:	1c3c      	adds	r4, r7, #0
    b150:	345f      	adds	r4, #95
    b152:	1c18      	adds	r0, r3, #0
    b154:	1c11      	adds	r1, r2, #0
    b156:	1c22      	adds	r2, r4, #0
    b158:	f7fe ec6c 	blx	9a34 <_init+0x290>
    b15c:	1c3b      	adds	r3, r7, #0
    b15e:	3354      	adds	r3, #84
    b160:	1c3a      	adds	r2, r7, #0
    b162:	3258      	adds	r2, #88
    b164:	6efc      	ldr	r4, [r7, #108]
    b166:	1c18      	adds	r0, r3, #0
    b168:	1c11      	adds	r1, r2, #0
    b16a:	1c22      	adds	r2, r4, #0
    b16c:	f001 f832 	bl	c1d4 <_Z9AppendLogSsPKc>
    b170:	1c3b      	adds	r3, r7, #0
    b172:	3354      	adds	r3, #84
    b174:	1c18      	adds	r0, r3, #0
    b176:	f7fe ebf2 	blx	995c <_init+0x1b8>
    b17a:	1c3b      	adds	r3, r7, #0
    b17c:	3358      	adds	r3, #88
    b17e:	1c18      	adds	r0, r3, #0
    b180:	f7fe ebec 	blx	995c <_init+0x1b8>
    b184:	1c3b      	adds	r3, r7, #0
    b186:	335f      	adds	r3, #95
    b188:	1c18      	adds	r0, r3, #0
    b18a:	f7fe ec96 	blx	9ab8 <_init+0x314>
          if (pkt->pts >= pkt->dts)
    b18e:	6c3b      	ldr	r3, [r7, #64]
    b190:	6899      	ldr	r1, [r3, #8]
    b192:	68da      	ldr	r2, [r3, #12]
    b194:	6239      	str	r1, [r7, #32]
    b196:	627a      	str	r2, [r7, #36]
    b198:	6c3b      	ldr	r3, [r7, #64]
    b19a:	6919      	ldr	r1, [r3, #16]
    b19c:	695a      	ldr	r2, [r3, #20]
    b19e:	62b9      	str	r1, [r7, #40]
    b1a0:	62fa      	str	r2, [r7, #44]
    b1a2:	6afa      	ldr	r2, [r7, #44]
    b1a4:	6a7b      	ldr	r3, [r7, #36]
    b1a6:	429a      	cmp	r2, r3
    b1a8:	dc27      	bgt.n	b1fa <_ZN10FfPipeline15WriteFrame_v242EP15AVFormatContextP8AVStreamP8AVPacketP24AVBitStreamFilterContext+0x176>
    b1aa:	6afc      	ldr	r4, [r7, #44]
    b1ac:	6a79      	ldr	r1, [r7, #36]
    b1ae:	428c      	cmp	r4, r1
    b1b0:	d103      	bne.n	b1ba <_ZN10FfPipeline15WriteFrame_v242EP15AVFormatContextP8AVStreamP8AVPacketP24AVBitStreamFilterContext+0x136>
    b1b2:	6aba      	ldr	r2, [r7, #40]
    b1b4:	6a3b      	ldr	r3, [r7, #32]
    b1b6:	429a      	cmp	r2, r3
    b1b8:	d81f      	bhi.n	b1fa <_ZN10FfPipeline15WriteFrame_v242EP15AVFormatContextP8AVStreamP8AVPacketP24AVBitStreamFilterContext+0x176>
            pkt->pts = FFMAX(pkt->pts, max);
    b1ba:	6c3b      	ldr	r3, [r7, #64]
    b1bc:	6899      	ldr	r1, [r3, #8]
    b1be:	68da      	ldr	r2, [r3, #12]
    b1c0:	63b9      	str	r1, [r7, #56]
    b1c2:	63fa      	str	r2, [r7, #60]
    b1c4:	6ffb      	ldr	r3, [r7, #124]
    b1c6:	6bfa      	ldr	r2, [r7, #60]
    b1c8:	4293      	cmp	r3, r2
    b1ca:	db07      	blt.n	b1dc <_ZN10FfPipeline15WriteFrame_v242EP15AVFormatContextP8AVStreamP8AVPacketP24AVBitStreamFilterContext+0x158>
    b1cc:	6ffb      	ldr	r3, [r7, #124]
    b1ce:	6bfc      	ldr	r4, [r7, #60]
    b1d0:	42a3      	cmp	r3, r4
    b1d2:	d109      	bne.n	b1e8 <_ZN10FfPipeline15WriteFrame_v242EP15AVFormatContextP8AVStreamP8AVPacketP24AVBitStreamFilterContext+0x164>
    b1d4:	6fbb      	ldr	r3, [r7, #120]
    b1d6:	6bb9      	ldr	r1, [r7, #56]
    b1d8:	428b      	cmp	r3, r1
    b1da:	d205      	bcs.n	b1e8 <_ZN10FfPipeline15WriteFrame_v242EP15AVFormatContextP8AVStreamP8AVPacketP24AVBitStreamFilterContext+0x164>
    b1dc:	6c3b      	ldr	r3, [r7, #64]
    b1de:	6899      	ldr	r1, [r3, #8]
    b1e0:	68da      	ldr	r2, [r3, #12]
    b1e2:	6339      	str	r1, [r7, #48]
    b1e4:	637a      	str	r2, [r7, #52]
    b1e6:	e003      	b.n	b1f0 <_ZN10FfPipeline15WriteFrame_v242EP15AVFormatContextP8AVStreamP8AVPacketP24AVBitStreamFilterContext+0x16c>
    b1e8:	6fba      	ldr	r2, [r7, #120]
    b1ea:	6ffb      	ldr	r3, [r7, #124]
    b1ec:	633a      	str	r2, [r7, #48]
    b1ee:	637b      	str	r3, [r7, #52]
    b1f0:	6c3b      	ldr	r3, [r7, #64]
    b1f2:	6b39      	ldr	r1, [r7, #48]
    b1f4:	6b7a      	ldr	r2, [r7, #52]
    b1f6:	6099      	str	r1, [r3, #8]
    b1f8:	60da      	str	r2, [r3, #12]
          pkt->dts = max;
    b1fa:	6c3a      	ldr	r2, [r7, #64]
    b1fc:	6fbb      	ldr	r3, [r7, #120]
    b1fe:	6ffc      	ldr	r4, [r7, #124]
    b200:	6113      	str	r3, [r2, #16]
    b202:	6154      	str	r4, [r2, #20]
        }
    }

  ret = av_interleaved_write_frame(s, pkt);
    b204:	6cbb      	ldr	r3, [r7, #72]
    b206:	6c3a      	ldr	r2, [r7, #64]
    b208:	1c18      	adds	r0, r3, #0
    b20a:	1c11      	adds	r1, r2, #0
    b20c:	f7fe eb7c 	blx	9908 <_init+0x164>
    b210:	1c03      	adds	r3, r0, #0
    b212:	673b      	str	r3, [r7, #112]

  if (ret < 0)
    b214:	6f3b      	ldr	r3, [r7, #112]
    b216:	2b00      	cmp	r3, #0
    b218:	da37      	bge.n	b28a <_ZN10FfPipeline15WriteFrame_v242EP15AVFormatContextP8AVStreamP8AVPacketP24AVBitStreamFilterContext+0x206>
    {
      sprintf(str, "ERROR: Error executing av_interleaved_write_frame()...Error code: %d. Error: '%s'.\n", ret, av_err2str(ret));
    b21a:	4b20      	ldr	r3, [pc, #128]	(b29c <_ZN10FfPipeline15WriteFrame_v242EP15AVFormatContextP8AVStreamP8AVPacketP24AVBitStreamFilterContext+0x218>)
    b21c:	6f3a      	ldr	r2, [r7, #112]
    b21e:	1c18      	adds	r0, r3, #0
    b220:	2140      	movs	r1, #64
    b222:	f7ff ff1b 	bl	b05c <av_make_error_string>
    b226:	1c05      	adds	r5, r0, #0
    b228:	4b1d      	ldr	r3, [pc, #116]	(b2a0 <_ZN10FfPipeline15WriteFrame_v242EP15AVFormatContextP8AVStreamP8AVPacketP24AVBitStreamFilterContext+0x21c>)
    b22a:	4a1e      	ldr	r2, [pc, #120]	(b2a4 <_ZN10FfPipeline15WriteFrame_v242EP15AVFormatContextP8AVStreamP8AVPacketP24AVBitStreamFilterContext+0x220>)
    b22c:	6f3c      	ldr	r4, [r7, #112]
    b22e:	1c18      	adds	r0, r3, #0
    b230:	1c11      	adds	r1, r2, #0
    b232:	1c22      	adds	r2, r4, #0
    b234:	1c2b      	adds	r3, r5, #0
    b236:	f7fe ecd6 	blx	9be4 <_init+0x440>
      AppendLog(str, class_name);
    b23a:	1c3b      	adds	r3, r7, #0
    b23c:	336b      	adds	r3, #107
    b23e:	1c18      	adds	r0, r3, #0
    b240:	f7fe eca0 	blx	9b84 <_init+0x3e0>
    b244:	1c3b      	adds	r3, r7, #0
    b246:	3364      	adds	r3, #100
    b248:	4a15      	ldr	r2, [pc, #84]	(b2a0 <_ZN10FfPipeline15WriteFrame_v242EP15AVFormatContextP8AVStreamP8AVPacketP24AVBitStreamFilterContext+0x21c>)
    b24a:	1c3c      	adds	r4, r7, #0
    b24c:	346b      	adds	r4, #107
    b24e:	1c18      	adds	r0, r3, #0
    b250:	1c11      	adds	r1, r2, #0
    b252:	1c22      	adds	r2, r4, #0
    b254:	f7fe ebee 	blx	9a34 <_init+0x290>
    b258:	1c3b      	adds	r3, r7, #0
    b25a:	3360      	adds	r3, #96
    b25c:	1c3a      	adds	r2, r7, #0
    b25e:	3264      	adds	r2, #100
    b260:	6efc      	ldr	r4, [r7, #108]
    b262:	1c18      	adds	r0, r3, #0
    b264:	1c11      	adds	r1, r2, #0
    b266:	1c22      	adds	r2, r4, #0
    b268:	f000 ffb4 	bl	c1d4 <_Z9AppendLogSsPKc>
    b26c:	1c3b      	adds	r3, r7, #0
    b26e:	3360      	adds	r3, #96
    b270:	1c18      	adds	r0, r3, #0
    b272:	f7fe eb74 	blx	995c <_init+0x1b8>
    b276:	1c3b      	adds	r3, r7, #0
    b278:	3364      	adds	r3, #100
    b27a:	1c18      	adds	r0, r3, #0
    b27c:	f7fe eb6e 	blx	995c <_init+0x1b8>
    b280:	1c3b      	adds	r3, r7, #0
    b282:	336b      	adds	r3, #107
    b284:	1c18      	adds	r0, r3, #0
    b286:	f7fe ec18 	blx	9ab8 <_init+0x314>
    }
}
    b28a:	46bd      	mov	sp, r7
    b28c:	b021      	add	sp, #132
    b28e:	bdf0      	pop	{r4, r5, r6, r7, pc}
    b290:	0000d844 	.word	0x0000d844
    b294:	80000000 	.word	0x80000000
    b298:	0000d860 	.word	0x0000d860
    b29c:	0001671c 	.word	0x0001671c
    b2a0:	00016780 	.word	0x00016780
    b2a4:	0000d890 	.word	0x0000d890

0000b2a8 <_ZN10FfPipeline19ThInitiateRecordingEv>:
  pthread_mutex_unlock(&mutex);

  return retval;
}

int FfPipeline::ThInitiateRecording()
    b2a8:	b590      	push	{r4, r7, lr}
    b2aa:	b08b      	sub	sp, #44
    b2ac:	af00      	add	r7, sp, #0
    b2ae:	6078      	str	r0, [r7, #4]
{
  const char *class_name = "FfPipeline::ThInitiateRecording";
    b2b0:	4b3b      	ldr	r3, [pc, #236]	(b3a0 <_ZN10FfPipeline19ThInitiateRecordingEv+0xf8>)
    b2b2:	627b      	str	r3, [r7, #36]
  pthread_t ptid;

  sprintf(str, "DEBUG: Pipeline slot '%d'. Try to starting thread with stopping...\n", Slot);
    b2b4:	687b      	ldr	r3, [r7, #4]
    b2b6:	791b      	ldrb	r3, [r3, #4]
    b2b8:	1c1c      	adds	r4, r3, #0
    b2ba:	4b3a      	ldr	r3, [pc, #232]	(b3a4 <_ZN10FfPipeline19ThInitiateRecordingEv+0xfc>)
    b2bc:	4a3a      	ldr	r2, [pc, #232]	(b3a8 <_ZN10FfPipeline19ThInitiateRecordingEv+0x100>)
    b2be:	1c18      	adds	r0, r3, #0
    b2c0:	1c11      	adds	r1, r2, #0
    b2c2:	1c22      	adds	r2, r4, #0
    b2c4:	f7fe ec8e 	blx	9be4 <_init+0x440>
  AppendLog(str, class_name);
    b2c8:	1c3b      	adds	r3, r7, #0
    b2ca:	3317      	adds	r3, #23
    b2cc:	1c18      	adds	r0, r3, #0
    b2ce:	f7fe ec5a 	blx	9b84 <_init+0x3e0>
    b2d2:	1c3b      	adds	r3, r7, #0
    b2d4:	3310      	adds	r3, #16
    b2d6:	4a33      	ldr	r2, [pc, #204]	(b3a4 <_ZN10FfPipeline19ThInitiateRecordingEv+0xfc>)
    b2d8:	1c3c      	adds	r4, r7, #0
    b2da:	3417      	adds	r4, #23
    b2dc:	1c18      	adds	r0, r3, #0
    b2de:	1c11      	adds	r1, r2, #0
    b2e0:	1c22      	adds	r2, r4, #0
    b2e2:	f7fe eba8 	blx	9a34 <_init+0x290>
    b2e6:	1c3b      	adds	r3, r7, #0
    b2e8:	330c      	adds	r3, #12
    b2ea:	1c3a      	adds	r2, r7, #0
    b2ec:	3210      	adds	r2, #16
    b2ee:	6a7c      	ldr	r4, [r7, #36]
    b2f0:	1c18      	adds	r0, r3, #0
    b2f2:	1c11      	adds	r1, r2, #0
    b2f4:	1c22      	adds	r2, r4, #0
    b2f6:	f000 ff6d 	bl	c1d4 <_Z9AppendLogSsPKc>
    b2fa:	1c3b      	adds	r3, r7, #0
    b2fc:	330c      	adds	r3, #12
    b2fe:	1c18      	adds	r0, r3, #0
    b300:	f7fe eb2c 	blx	995c <_init+0x1b8>
    b304:	1c3b      	adds	r3, r7, #0
    b306:	3310      	adds	r3, #16
    b308:	1c18      	adds	r0, r3, #0
    b30a:	f7fe eb28 	blx	995c <_init+0x1b8>
    b30e:	1c3b      	adds	r3, r7, #0
    b310:	3317      	adds	r3, #23
    b312:	1c18      	adds	r0, r3, #0
    b314:	f7fe ebd0 	blx	9ab8 <_init+0x314>

  pthread_create(&ptid, NULL, &ThRecording, (void *) this);
    b318:	1c3b      	adds	r3, r7, #0
    b31a:	3308      	adds	r3, #8
    b31c:	4a23      	ldr	r2, [pc, #140]	(b3ac <_ZN10FfPipeline19ThInitiateRecordingEv+0x104>)
    b31e:	687c      	ldr	r4, [r7, #4]
    b320:	1c18      	adds	r0, r3, #0
    b322:	2100      	movs	r1, #0
    b324:	1c23      	adds	r3, r4, #0
    b326:	f7fe eb6e 	blx	9a04 <_init+0x260>

  pthread_detach(ptid);
    b32a:	68bb      	ldr	r3, [r7, #8]
    b32c:	1c18      	adds	r0, r3, #0
    b32e:	f7fe ec30 	blx	9b90 <_init+0x3ec>

  sprintf(str, "DEBUG: Pipeline slot '%d'. Starting thread ended!\n", Slot);
    b332:	687b      	ldr	r3, [r7, #4]
    b334:	791b      	ldrb	r3, [r3, #4]
    b336:	1c1c      	adds	r4, r3, #0
    b338:	4b1a      	ldr	r3, [pc, #104]	(b3a4 <_ZN10FfPipeline19ThInitiateRecordingEv+0xfc>)
    b33a:	4a1d      	ldr	r2, [pc, #116]	(b3b0 <_ZN10FfPipeline19ThInitiateRecordingEv+0x108>)
    b33c:	1c18      	adds	r0, r3, #0
    b33e:	1c11      	adds	r1, r2, #0
    b340:	1c22      	adds	r2, r4, #0
    b342:	f7fe ec50 	blx	9be4 <_init+0x440>
  AppendLog(str, class_name);
    b346:	1c3b      	adds	r3, r7, #0
    b348:	3323      	adds	r3, #35
    b34a:	1c18      	adds	r0, r3, #0
    b34c:	f7fe ec1a 	blx	9b84 <_init+0x3e0>
    b350:	1c3b      	adds	r3, r7, #0
    b352:	331c      	adds	r3, #28
    b354:	4a13      	ldr	r2, [pc, #76]	(b3a4 <_ZN10FfPipeline19ThInitiateRecordingEv+0xfc>)
    b356:	1c3c      	adds	r4, r7, #0
    b358:	3423      	adds	r4, #35
    b35a:	1c18      	adds	r0, r3, #0
    b35c:	1c11      	adds	r1, r2, #0
    b35e:	1c22      	adds	r2, r4, #0
    b360:	f7fe eb68 	blx	9a34 <_init+0x290>
    b364:	1c3b      	adds	r3, r7, #0
    b366:	3318      	adds	r3, #24
    b368:	1c3a      	adds	r2, r7, #0
    b36a:	321c      	adds	r2, #28
    b36c:	6a7c      	ldr	r4, [r7, #36]
    b36e:	1c18      	adds	r0, r3, #0
    b370:	1c11      	adds	r1, r2, #0
    b372:	1c22      	adds	r2, r4, #0
    b374:	f000 ff2e 	bl	c1d4 <_Z9AppendLogSsPKc>
    b378:	1c3b      	adds	r3, r7, #0
    b37a:	3318      	adds	r3, #24
    b37c:	1c18      	adds	r0, r3, #0
    b37e:	f7fe eaee 	blx	995c <_init+0x1b8>
    b382:	1c3b      	adds	r3, r7, #0
    b384:	331c      	adds	r3, #28
    b386:	1c18      	adds	r0, r3, #0
    b388:	f7fe eae8 	blx	995c <_init+0x1b8>
    b38c:	1c3b      	adds	r3, r7, #0
    b38e:	3323      	adds	r3, #35
    b390:	1c18      	adds	r0, r3, #0
    b392:	f7fe eb92 	blx	9ab8 <_init+0x314>

  return 0;
    b396:	2300      	movs	r3, #0
}
    b398:	1c18      	adds	r0, r3, #0
    b39a:	46bd      	mov	sp, r7
    b39c:	b00b      	add	sp, #44
    b39e:	bd90      	pop	{r4, r7, pc}
    b3a0:	0000d8e4 	.word	0x0000d8e4
    b3a4:	00016780 	.word	0x00016780
    b3a8:	0000d904 	.word	0x0000d904
    b3ac:	0000c159 	.word	0x0000c159
    b3b0:	0000d948 	.word	0x0000d948

0000b3b4 <_ZN10FfPipeline5StartEv>:
RecordingState FfPipeline::GetRecState()
{
  return RecState;
}

int FfPipeline::Start()
    b3b4:	b580      	push	{r7, lr}
    b3b6:	b082      	sub	sp, #8
    b3b8:	af00      	add	r7, sp, #0
    b3ba:	6078      	str	r0, [r7, #4]
{
	return ThInitiateRecording();
    b3bc:	687b      	ldr	r3, [r7, #4]
    b3be:	1c18      	adds	r0, r3, #0
    b3c0:	f7ff ff72 	bl	b2a8 <_ZN10FfPipeline19ThInitiateRecordingEv>
    b3c4:	1c03      	adds	r3, r0, #0
    b3c6:	469c      	mov	ip, r3
    b3c8:	4663      	mov	r3, ip
}
    b3ca:	1c18      	adds	r0, r3, #0
    b3cc:	46bd      	mov	sp, r7
    b3ce:	b002      	add	sp, #8
    b3d0:	bd80      	pop	{r7, pc}
    b3d2:	46c0      	nop			(mov r8, r8)

0000b3d4 <_ZN10FfPipeline10IsNeedStopEv>:
bool FfPipeline::IsWaitingKeyframe()
{
  return WaitKeyframeFlag;
}

bool FfPipeline::IsNeedStop()
    b3d4:	b580      	push	{r7, lr}
    b3d6:	b08a      	sub	sp, #40
    b3d8:	af00      	add	r7, sp, #0
    b3da:	6078      	str	r0, [r7, #4]
{
  pthread_mutex_t mutex = PTHREAD_MUTEX_INITIALIZER;
    b3dc:	1c3b      	adds	r3, r7, #0
    b3de:	330c      	adds	r3, #12
    b3e0:	603b      	str	r3, [r7, #0]
    b3e2:	2300      	movs	r3, #0
    b3e4:	683a      	ldr	r2, [r7, #0]
    b3e6:	6013      	str	r3, [r2, #0]
    b3e8:	683b      	ldr	r3, [r7, #0]
    b3ea:	3304      	adds	r3, #4
    b3ec:	603b      	str	r3, [r7, #0]
    b3ee:	2300      	movs	r3, #0
    b3f0:	683a      	ldr	r2, [r7, #0]
    b3f2:	6013      	str	r3, [r2, #0]
    b3f4:	683b      	ldr	r3, [r7, #0]
    b3f6:	3304      	adds	r3, #4
    b3f8:	603b      	str	r3, [r7, #0]
    b3fa:	2300      	movs	r3, #0
    b3fc:	683a      	ldr	r2, [r7, #0]
    b3fe:	6013      	str	r3, [r2, #0]
    b400:	683b      	ldr	r3, [r7, #0]
    b402:	3304      	adds	r3, #4
    b404:	603b      	str	r3, [r7, #0]
    b406:	2300      	movs	r3, #0
    b408:	683a      	ldr	r2, [r7, #0]
    b40a:	6013      	str	r3, [r2, #0]
    b40c:	683b      	ldr	r3, [r7, #0]
    b40e:	3304      	adds	r3, #4
    b410:	603b      	str	r3, [r7, #0]
    b412:	2300      	movs	r3, #0
    b414:	683a      	ldr	r2, [r7, #0]
    b416:	6013      	str	r3, [r2, #0]
    b418:	683b      	ldr	r3, [r7, #0]
    b41a:	3304      	adds	r3, #4
    b41c:	603b      	str	r3, [r7, #0]
    b41e:	2300      	movs	r3, #0
    b420:	683a      	ldr	r2, [r7, #0]
    b422:	6013      	str	r3, [r2, #0]
    b424:	683b      	ldr	r3, [r7, #0]
    b426:	3304      	adds	r3, #4
  bool retval;

  pthread_mutex_lock(&mutex);
    b428:	1c3b      	adds	r3, r7, #0
    b42a:	330c      	adds	r3, #12
    b42c:	1c18      	adds	r0, r3, #0
    b42e:	f7fe ead8 	blx	99e0 <_init+0x23c>
  retval = IsNeedStopFlag;
    b432:	1c3a      	adds	r2, r7, #0
    b434:	3227      	adds	r2, #39
    b436:	687b      	ldr	r3, [r7, #4]
    b438:	7c1b      	ldrb	r3, [r3, #16]
    b43a:	7013      	strb	r3, [r2, #0]
  pthread_mutex_unlock(&mutex);
    b43c:	1c3b      	adds	r3, r7, #0
    b43e:	330c      	adds	r3, #12
    b440:	1c18      	adds	r0, r3, #0
    b442:	f7fe eab6 	blx	99b0 <_init+0x20c>

  return retval;
    b446:	1c3b      	adds	r3, r7, #0
    b448:	3327      	adds	r3, #39
    b44a:	781b      	ldrb	r3, [r3, #0]
}
    b44c:	1c18      	adds	r0, r3, #0
    b44e:	46bd      	mov	sp, r7
    b450:	b00a      	add	sp, #40
    b452:	bd80      	pop	{r7, pc}

0000b454 <_ZN10FfPipeline11SetNeedStopEv>:
  pthread_mutex_lock(&mutex);
  IsNeedStopFlag = false;
  pthread_mutex_unlock(&mutex);
}

void FfPipeline::SetNeedStop()
    b454:	b580      	push	{r7, lr}
    b456:	b088      	sub	sp, #32
    b458:	af00      	add	r7, sp, #0
    b45a:	6078      	str	r0, [r7, #4]
{
  pthread_mutex_t mutex = PTHREAD_MUTEX_INITIALIZER;
    b45c:	1c3b      	adds	r3, r7, #0
    b45e:	3308      	adds	r3, #8
    b460:	603b      	str	r3, [r7, #0]
    b462:	2300      	movs	r3, #0
    b464:	683a      	ldr	r2, [r7, #0]
    b466:	6013      	str	r3, [r2, #0]
    b468:	683b      	ldr	r3, [r7, #0]
    b46a:	3304      	adds	r3, #4
    b46c:	603b      	str	r3, [r7, #0]
    b46e:	2300      	movs	r3, #0
    b470:	683a      	ldr	r2, [r7, #0]
    b472:	6013      	str	r3, [r2, #0]
    b474:	683b      	ldr	r3, [r7, #0]
    b476:	3304      	adds	r3, #4
    b478:	603b      	str	r3, [r7, #0]
    b47a:	2300      	movs	r3, #0
    b47c:	683a      	ldr	r2, [r7, #0]
    b47e:	6013      	str	r3, [r2, #0]
    b480:	683b      	ldr	r3, [r7, #0]
    b482:	3304      	adds	r3, #4
    b484:	603b      	str	r3, [r7, #0]
    b486:	2300      	movs	r3, #0
    b488:	683a      	ldr	r2, [r7, #0]
    b48a:	6013      	str	r3, [r2, #0]
    b48c:	683b      	ldr	r3, [r7, #0]
    b48e:	3304      	adds	r3, #4
    b490:	603b      	str	r3, [r7, #0]
    b492:	2300      	movs	r3, #0
    b494:	683a      	ldr	r2, [r7, #0]
    b496:	6013      	str	r3, [r2, #0]
    b498:	683b      	ldr	r3, [r7, #0]
    b49a:	3304      	adds	r3, #4
    b49c:	603b      	str	r3, [r7, #0]
    b49e:	2300      	movs	r3, #0
    b4a0:	683a      	ldr	r2, [r7, #0]
    b4a2:	6013      	str	r3, [r2, #0]
    b4a4:	683b      	ldr	r3, [r7, #0]
    b4a6:	3304      	adds	r3, #4

  pthread_mutex_lock(&mutex);
    b4a8:	1c3b      	adds	r3, r7, #0
    b4aa:	3308      	adds	r3, #8
    b4ac:	1c18      	adds	r0, r3, #0
    b4ae:	f7fe ea98 	blx	99e0 <_init+0x23c>
  IsNeedStopFlag = true;
    b4b2:	687a      	ldr	r2, [r7, #4]
    b4b4:	2301      	movs	r3, #1
    b4b6:	7413      	strb	r3, [r2, #16]
  pthread_mutex_unlock(&mutex);
    b4b8:	1c3b      	adds	r3, r7, #0
    b4ba:	3308      	adds	r3, #8
    b4bc:	1c18      	adds	r0, r3, #0
    b4be:	f7fe ea78 	blx	99b0 <_init+0x20c>
}
    b4c2:	46bd      	mov	sp, r7
    b4c4:	b008      	add	sp, #32
    b4c6:	bd80      	pop	{r7, pc}

0000b4c8 <_ZN10FfPipeline16SetPartnerToStopEv>:
void FfPipeline::SetRecState(RecordingState rst)
{
  RecState = rst;
}

int FfPipeline::SetPartnerToStop()
    b4c8:	b590      	push	{r4, r7, lr}
    b4ca:	b089      	sub	sp, #36
    b4cc:	af00      	add	r7, sp, #0
    b4ce:	6078      	str	r0, [r7, #4]
{
  const char *class_name = "FfPipeline::SetPartnerToStop";
    b4d0:	4b1f      	ldr	r3, [pc, #124]	(b550 <_ZN10FfPipeline16SetPartnerToStopEv+0x88>)
    b4d2:	61bb      	str	r3, [r7, #24]
  FfPipeline *Pipe = (FfPipeline *) PartnerPipePointer;
    b4d4:	687b      	ldr	r3, [r7, #4]
    b4d6:	681b      	ldr	r3, [r3, #0]
    b4d8:	61fb      	str	r3, [r7, #28]

  Pipe->SetNeedStop();
    b4da:	69fb      	ldr	r3, [r7, #28]
    b4dc:	1c18      	adds	r0, r3, #0
    b4de:	f7ff ffb9 	bl	b454 <_ZN10FfPipeline11SetNeedStopEv>

  sprintf(str, "DEBUG: Slot '%d' was marked for stopping by SetNeedStopFlag().\n", Pipe->Slot);
    b4e2:	69fb      	ldr	r3, [r7, #28]
    b4e4:	791b      	ldrb	r3, [r3, #4]
    b4e6:	1c1c      	adds	r4, r3, #0
    b4e8:	4b1a      	ldr	r3, [pc, #104]	(b554 <_ZN10FfPipeline16SetPartnerToStopEv+0x8c>)
    b4ea:	4a1b      	ldr	r2, [pc, #108]	(b558 <_ZN10FfPipeline16SetPartnerToStopEv+0x90>)
    b4ec:	1c18      	adds	r0, r3, #0
    b4ee:	1c11      	adds	r1, r2, #0
    b4f0:	1c22      	adds	r2, r4, #0
    b4f2:	f7fe eb78 	blx	9be4 <_init+0x440>
  AppendLog(str, class_name);
    b4f6:	1c3b      	adds	r3, r7, #0
    b4f8:	3317      	adds	r3, #23
    b4fa:	1c18      	adds	r0, r3, #0
    b4fc:	f7fe eb42 	blx	9b84 <_init+0x3e0>
    b500:	1c3b      	adds	r3, r7, #0
    b502:	3310      	adds	r3, #16
    b504:	4a13      	ldr	r2, [pc, #76]	(b554 <_ZN10FfPipeline16SetPartnerToStopEv+0x8c>)
    b506:	1c3c      	adds	r4, r7, #0
    b508:	3417      	adds	r4, #23
    b50a:	1c18      	adds	r0, r3, #0
    b50c:	1c11      	adds	r1, r2, #0
    b50e:	1c22      	adds	r2, r4, #0
    b510:	f7fe ea90 	blx	9a34 <_init+0x290>
    b514:	1c3b      	adds	r3, r7, #0
    b516:	330c      	adds	r3, #12
    b518:	1c3a      	adds	r2, r7, #0
    b51a:	3210      	adds	r2, #16
    b51c:	69bc      	ldr	r4, [r7, #24]
    b51e:	1c18      	adds	r0, r3, #0
    b520:	1c11      	adds	r1, r2, #0
    b522:	1c22      	adds	r2, r4, #0
    b524:	f000 fe56 	bl	c1d4 <_Z9AppendLogSsPKc>
    b528:	1c3b      	adds	r3, r7, #0
    b52a:	330c      	adds	r3, #12
    b52c:	1c18      	adds	r0, r3, #0
    b52e:	f7fe ea16 	blx	995c <_init+0x1b8>
    b532:	1c3b      	adds	r3, r7, #0
    b534:	3310      	adds	r3, #16
    b536:	1c18      	adds	r0, r3, #0
    b538:	f7fe ea10 	blx	995c <_init+0x1b8>
    b53c:	1c3b      	adds	r3, r7, #0
    b53e:	3317      	adds	r3, #23
    b540:	1c18      	adds	r0, r3, #0
    b542:	f7fe eaba 	blx	9ab8 <_init+0x314>
  return 0;
    b546:	2300      	movs	r3, #0
}
    b548:	1c18      	adds	r0, r3, #0
    b54a:	46bd      	mov	sp, r7
    b54c:	b009      	add	sp, #36
    b54e:	bd90      	pop	{r4, r7, pc}
    b550:	0000d97c 	.word	0x0000d97c
    b554:	00016780 	.word	0x00016780
    b558:	0000d99c 	.word	0x0000d99c

0000b55c <_ZN10FfPipeline13ClearNeedStopEv>:
void FfPipeline::r_avformat_close_input_v24(AVFormatContext **ps)
{
  return avformat_close_input(ps);
}

void FfPipeline::ClearNeedStop()
    b55c:	b580      	push	{r7, lr}
    b55e:	b088      	sub	sp, #32
    b560:	af00      	add	r7, sp, #0
    b562:	6078      	str	r0, [r7, #4]
{
  pthread_mutex_t mutex = PTHREAD_MUTEX_INITIALIZER;
    b564:	1c3b      	adds	r3, r7, #0
    b566:	3308      	adds	r3, #8
    b568:	603b      	str	r3, [r7, #0]
    b56a:	2300      	movs	r3, #0
    b56c:	683a      	ldr	r2, [r7, #0]
    b56e:	6013      	str	r3, [r2, #0]
    b570:	683b      	ldr	r3, [r7, #0]
    b572:	3304      	adds	r3, #4
    b574:	603b      	str	r3, [r7, #0]
    b576:	2300      	movs	r3, #0
    b578:	683a      	ldr	r2, [r7, #0]
    b57a:	6013      	str	r3, [r2, #0]
    b57c:	683b      	ldr	r3, [r7, #0]
    b57e:	3304      	adds	r3, #4
    b580:	603b      	str	r3, [r7, #0]
    b582:	2300      	movs	r3, #0
    b584:	683a      	ldr	r2, [r7, #0]
    b586:	6013      	str	r3, [r2, #0]
    b588:	683b      	ldr	r3, [r7, #0]
    b58a:	3304      	adds	r3, #4
    b58c:	603b      	str	r3, [r7, #0]
    b58e:	2300      	movs	r3, #0
    b590:	683a      	ldr	r2, [r7, #0]
    b592:	6013      	str	r3, [r2, #0]
    b594:	683b      	ldr	r3, [r7, #0]
    b596:	3304      	adds	r3, #4
    b598:	603b      	str	r3, [r7, #0]
    b59a:	2300      	movs	r3, #0
    b59c:	683a      	ldr	r2, [r7, #0]
    b59e:	6013      	str	r3, [r2, #0]
    b5a0:	683b      	ldr	r3, [r7, #0]
    b5a2:	3304      	adds	r3, #4
    b5a4:	603b      	str	r3, [r7, #0]
    b5a6:	2300      	movs	r3, #0
    b5a8:	683a      	ldr	r2, [r7, #0]
    b5aa:	6013      	str	r3, [r2, #0]
    b5ac:	683b      	ldr	r3, [r7, #0]
    b5ae:	3304      	adds	r3, #4

  pthread_mutex_lock(&mutex);
    b5b0:	1c3b      	adds	r3, r7, #0
    b5b2:	3308      	adds	r3, #8
    b5b4:	1c18      	adds	r0, r3, #0
    b5b6:	f7fe ea14 	blx	99e0 <_init+0x23c>
  IsNeedStopFlag = false;
    b5ba:	687a      	ldr	r2, [r7, #4]
    b5bc:	2300      	movs	r3, #0
    b5be:	7413      	strb	r3, [r2, #16]
  pthread_mutex_unlock(&mutex);
    b5c0:	1c3b      	adds	r3, r7, #0
    b5c2:	3308      	adds	r3, #8
    b5c4:	1c18      	adds	r0, r3, #0
    b5c6:	f7fe e9f4 	blx	99b0 <_init+0x20c>
}
    b5ca:	46bd      	mov	sp, r7
    b5cc:	b008      	add	sp, #32
    b5ce:	bd80      	pop	{r7, pc}

0000b5d0 <_ZN10FfPipeline11DoRecordingEv>:
  pkt->pts = av_rescale_q(pkt->pts, in_stream->time_base, out_stream->time_base);
  pkt->dts = av_rescale_q(pkt->dts, in_stream->time_base, out_stream->time_base);
  pkt->duration = av_rescale_q(pkt->duration, in_stream->time_base, out_stream->time_base);
}

int FfPipeline::DoRecording(void)
    b5d0:	b5b0      	push	{r4, r5, r7, lr}
    b5d2:	4ceb      	ldr	r4, [pc, #940]	(b980 <_ZN10FfPipeline11DoRecordingEv+0x3b0>)
    b5d4:	44a5      	add	sp, r4
    b5d6:	af02      	add	r7, sp, #8
    b5d8:	60f8      	str	r0, [r7, #12]
{
  const char *class_name = "FfPipeline::DoRecording";
    b5da:	4bea      	ldr	r3, [pc, #936]	(b984 <_ZN10FfPipeline11DoRecordingEv+0x3b4>)
    b5dc:	208f      	movs	r0, #143
    b5de:	0100      	lsls	r0, r0, #4
    b5e0:	19c0      	adds	r0, r0, r7
    b5e2:	6003      	str	r3, [r0, #0]
  AVFormatContext *ifcx = NULL;
    b5e4:	2300      	movs	r3, #0
    b5e6:	49e8      	ldr	r1, [pc, #928]	(b988 <_ZN10FfPipeline11DoRecordingEv+0x3b8>)
    b5e8:	19c9      	adds	r1, r1, r7
    b5ea:	600b      	str	r3, [r1, #0]
  AVFormatContext *ofcx = NULL;
    b5ec:	2300      	movs	r3, #0
    b5ee:	4ae7      	ldr	r2, [pc, #924]	(b98c <_ZN10FfPipeline11DoRecordingEv+0x3bc>)
    b5f0:	19d2      	adds	r2, r2, r7
    b5f2:	6013      	str	r3, [r2, #0]
  AVDictionary *opts = NULL;
    b5f4:	2300      	movs	r3, #0
    b5f6:	2086      	movs	r0, #134
    b5f8:	0100      	lsls	r0, r0, #4
    b5fa:	19c0      	adds	r0, r0, r7
    b5fc:	6003      	str	r3, [r0, #0]
  AVOutputFormat *ofmt = NULL;
    b5fe:	2300      	movs	r3, #0
    b600:	49e3      	ldr	r1, [pc, #908]	(b990 <_ZN10FfPipeline11DoRecordingEv+0x3c0>)
    b602:	19c9      	adds	r1, r1, r7
    b604:	600b      	str	r3, [r1, #0]
  AVPacket pkt;
  uint64_t a_packets = 0, v_packets = 0;
    b606:	2300      	movs	r3, #0
    b608:	2400      	movs	r4, #0
    b60a:	4ae2      	ldr	r2, [pc, #904]	(b994 <_ZN10FfPipeline11DoRecordingEv+0x3c4>)
    b60c:	19d2      	adds	r2, r2, r7
    b60e:	6013      	str	r3, [r2, #0]
    b610:	6054      	str	r4, [r2, #4]
    b612:	2300      	movs	r3, #0
    b614:	2400      	movs	r4, #0
    b616:	2090      	movs	r0, #144
    b618:	0100      	lsls	r0, r0, #4
    b61a:	19c0      	adds	r0, r0, r7
    b61c:	6003      	str	r3, [r0, #0]
    b61e:	6044      	str	r4, [r0, #4]
  size_t i;
  int ret;
  char path[BUF_SIZE];

  sprintf(path, "%s_%d.mkv", SAVE_PATH, ++Count);
    b620:	4bdd      	ldr	r3, [pc, #884]	(b998 <_ZN10FfPipeline11DoRecordingEv+0x3c8>)
    b622:	681b      	ldr	r3, [r3, #0]
    b624:	1c5a      	adds	r2, r3, #1
    b626:	4bdc      	ldr	r3, [pc, #880]	(b998 <_ZN10FfPipeline11DoRecordingEv+0x3c8>)
    b628:	601a      	str	r2, [r3, #0]
    b62a:	4bdb      	ldr	r3, [pc, #876]	(b998 <_ZN10FfPipeline11DoRecordingEv+0x3c8>)
    b62c:	681d      	ldr	r5, [r3, #0]
    b62e:	1c3b      	adds	r3, r7, #0
    b630:	3310      	adds	r3, #16
    b632:	4ada      	ldr	r2, [pc, #872]	(b99c <_ZN10FfPipeline11DoRecordingEv+0x3cc>)
    b634:	4cda      	ldr	r4, [pc, #872]	(b9a0 <_ZN10FfPipeline11DoRecordingEv+0x3d0>)
    b636:	1c18      	adds	r0, r3, #0
    b638:	1c11      	adds	r1, r2, #0
    b63a:	1c22      	adds	r2, r4, #0
    b63c:	1c2b      	adds	r3, r5, #0
    b63e:	f7fe ead2 	blx	9be4 <_init+0x440>

  sprintf(str, "DEBUG: Output path: '%s'\n", path);
    b642:	4bd8      	ldr	r3, [pc, #864]	(b9a4 <_ZN10FfPipeline11DoRecordingEv+0x3d4>)
    b644:	4ad8      	ldr	r2, [pc, #864]	(b9a8 <_ZN10FfPipeline11DoRecordingEv+0x3d8>)
    b646:	1c3c      	adds	r4, r7, #0
    b648:	3410      	adds	r4, #16
    b64a:	1c18      	adds	r0, r3, #0
    b64c:	1c11      	adds	r1, r2, #0
    b64e:	1c22      	adds	r2, r4, #0
    b650:	f7fe eac8 	blx	9be4 <_init+0x440>
  AppendLog(str, class_name);
    b654:	49d5      	ldr	r1, [pc, #852]	(b9ac <_ZN10FfPipeline11DoRecordingEv+0x3dc>)
    b656:	187b      	adds	r3, r7, r1
    b658:	1c18      	adds	r0, r3, #0
    b65a:	f7fe ea94 	blx	9b84 <_init+0x3e0>
    b65e:	2287      	movs	r2, #135
    b660:	0112      	lsls	r2, r2, #4
    b662:	18bb      	adds	r3, r7, r2
    b664:	4acf      	ldr	r2, [pc, #828]	(b9a4 <_ZN10FfPipeline11DoRecordingEv+0x3d4>)
    b666:	48d1      	ldr	r0, [pc, #836]	(b9ac <_ZN10FfPipeline11DoRecordingEv+0x3dc>)
    b668:	183c      	adds	r4, r7, r0
    b66a:	1c18      	adds	r0, r3, #0
    b66c:	1c11      	adds	r1, r2, #0
    b66e:	1c22      	adds	r2, r4, #0
    b670:	f7fe e9e0 	blx	9a34 <_init+0x290>
    b674:	49ce      	ldr	r1, [pc, #824]	(b9b0 <_ZN10FfPipeline11DoRecordingEv+0x3e0>)
    b676:	187b      	adds	r3, r7, r1
    b678:	2087      	movs	r0, #135
    b67a:	0100      	lsls	r0, r0, #4
    b67c:	183a      	adds	r2, r7, r0
    b67e:	218f      	movs	r1, #143
    b680:	0109      	lsls	r1, r1, #4
    b682:	19c9      	adds	r1, r1, r7
    b684:	680c      	ldr	r4, [r1, #0]
    b686:	1c18      	adds	r0, r3, #0
    b688:	1c11      	adds	r1, r2, #0
    b68a:	1c22      	adds	r2, r4, #0
    b68c:	f000 fda2 	bl	c1d4 <_Z9AppendLogSsPKc>
    b690:	4ac7      	ldr	r2, [pc, #796]	(b9b0 <_ZN10FfPipeline11DoRecordingEv+0x3e0>)
    b692:	18bb      	adds	r3, r7, r2
    b694:	1c18      	adds	r0, r3, #0
    b696:	f7fe e962 	blx	995c <_init+0x1b8>
    b69a:	2087      	movs	r0, #135
    b69c:	0100      	lsls	r0, r0, #4
    b69e:	183b      	adds	r3, r7, r0
    b6a0:	1c18      	adds	r0, r3, #0
    b6a2:	f7fe e95c 	blx	995c <_init+0x1b8>
    b6a6:	49c1      	ldr	r1, [pc, #772]	(b9ac <_ZN10FfPipeline11DoRecordingEv+0x3dc>)
    b6a8:	187b      	adds	r3, r7, r1
    b6aa:	1c18      	adds	r0, r3, #0
    b6ac:	f7fe ea04 	blx	9ab8 <_init+0x314>

  av_dict_set(&opts, "rtsp_transport", "tcp", 0);
    b6b0:	2286      	movs	r2, #134
    b6b2:	0112      	lsls	r2, r2, #4
    b6b4:	18bb      	adds	r3, r7, r2
    b6b6:	4abf      	ldr	r2, [pc, #764]	(b9b4 <_ZN10FfPipeline11DoRecordingEv+0x3e4>)
    b6b8:	4cbf      	ldr	r4, [pc, #764]	(b9b8 <_ZN10FfPipeline11DoRecordingEv+0x3e8>)
    b6ba:	1c18      	adds	r0, r3, #0
    b6bc:	1c11      	adds	r1, r2, #0
    b6be:	1c22      	adds	r2, r4, #0
    b6c0:	2300      	movs	r3, #0
    b6c2:	f7fe e892 	blx	97e8 <_init+0x44>

  if (avformat_open_input(&ifcx, CAM_URL, NULL, &opts) < 0)
    b6c6:	48b0      	ldr	r0, [pc, #704]	(b988 <_ZN10FfPipeline11DoRecordingEv+0x3b8>)
    b6c8:	183b      	adds	r3, r7, r0
    b6ca:	4abc      	ldr	r2, [pc, #752]	(b9bc <_ZN10FfPipeline11DoRecordingEv+0x3ec>)
    b6cc:	2186      	movs	r1, #134
    b6ce:	0109      	lsls	r1, r1, #4
    b6d0:	187c      	adds	r4, r7, r1
    b6d2:	1c18      	adds	r0, r3, #0
    b6d4:	1c11      	adds	r1, r2, #0
    b6d6:	2200      	movs	r2, #0
    b6d8:	1c23      	adds	r3, r4, #0
    b6da:	f7fe e964 	blx	99a4 <_init+0x200>
    b6de:	1c03      	adds	r3, r0, #0
    b6e0:	0fdb      	lsrs	r3, r3, #31
    b6e2:	061b      	lsls	r3, r3, #24
    b6e4:	0e1b      	lsrs	r3, r3, #24
    b6e6:	2b00      	cmp	r3, #0
    b6e8:	d015      	beq.n	b716 <_ZN10FfPipeline11DoRecordingEv+0x146>
    {
      avformat_close_input(&ifcx);
    b6ea:	4aa7      	ldr	r2, [pc, #668]	(b988 <_ZN10FfPipeline11DoRecordingEv+0x3b8>)
    b6ec:	18bb      	adds	r3, r7, r2
    b6ee:	1c18      	adds	r0, r3, #0
    b6f0:	f7fe ea42 	blx	9b78 <_init+0x3d4>
      ifcx = NULL;
    b6f4:	2300      	movs	r3, #0
    b6f6:	48a4      	ldr	r0, [pc, #656]	(b988 <_ZN10FfPipeline11DoRecordingEv+0x3b8>)
    b6f8:	19c0      	adds	r0, r0, r7
    b6fa:	6003      	str	r3, [r0, #0]

      av_dict_free(&opts);
    b6fc:	2186      	movs	r1, #134
    b6fe:	0109      	lsls	r1, r1, #4
    b700:	187b      	adds	r3, r7, r1
    b702:	1c18      	adds	r0, r3, #0
    b704:	f7fe e948 	blx	9998 <_init+0x1f4>

      return -1;
    b708:	2201      	movs	r2, #1
    b70a:	603a      	str	r2, [r7, #0]
    b70c:	683b      	ldr	r3, [r7, #0]
    b70e:	425b      	negs	r3, r3
    b710:	603b      	str	r3, [r7, #0]
    b712:	f000 fce6 	bl	c0e2 <_ZN10FfPipeline11DoRecordingEv+0xb12>
    }
  else
    {
    }

  av_dict_free(&opts);
    b716:	2086      	movs	r0, #134
    b718:	0100      	lsls	r0, r0, #4
    b71a:	183b      	adds	r3, r7, r0
    b71c:	1c18      	adds	r0, r3, #0
    b71e:	f7fe e93c 	blx	9998 <_init+0x1f4>

  if (avformat_find_stream_info(ifcx, NULL) < 0)
    b722:	4999      	ldr	r1, [pc, #612]	(b988 <_ZN10FfPipeline11DoRecordingEv+0x3b8>)
    b724:	19c9      	adds	r1, r1, r7
    b726:	680b      	ldr	r3, [r1, #0]
    b728:	1c18      	adds	r0, r3, #0
    b72a:	2100      	movs	r1, #0
    b72c:	f7fe e8e0 	blx	98f0 <_init+0x14c>
    b730:	1c03      	adds	r3, r0, #0
    b732:	0fdb      	lsrs	r3, r3, #31
    b734:	061b      	lsls	r3, r3, #24
    b736:	0e1b      	lsrs	r3, r3, #24
    b738:	2b00      	cmp	r3, #0
    b73a:	d00f      	beq.n	b75c <_ZN10FfPipeline11DoRecordingEv+0x18c>
    {
      avformat_close_input(&ifcx);
    b73c:	4a92      	ldr	r2, [pc, #584]	(b988 <_ZN10FfPipeline11DoRecordingEv+0x3b8>)
    b73e:	18bb      	adds	r3, r7, r2
    b740:	1c18      	adds	r0, r3, #0
    b742:	f7fe ea1a 	blx	9b78 <_init+0x3d4>
      ifcx = NULL;
    b746:	2300      	movs	r3, #0
    b748:	488f      	ldr	r0, [pc, #572]	(b988 <_ZN10FfPipeline11DoRecordingEv+0x3b8>)
    b74a:	19c0      	adds	r0, r0, r7
    b74c:	6003      	str	r3, [r0, #0]

      return -1;
    b74e:	2101      	movs	r1, #1
    b750:	6039      	str	r1, [r7, #0]
    b752:	683a      	ldr	r2, [r7, #0]
    b754:	4252      	negs	r2, r2
    b756:	603a      	str	r2, [r7, #0]
    b758:	f000 fcc3 	bl	c0e2 <_ZN10FfPipeline11DoRecordingEv+0xb12>
    }

  avformat_alloc_output_context2(&ofcx, NULL, NULL, path);
    b75c:	488b      	ldr	r0, [pc, #556]	(b98c <_ZN10FfPipeline11DoRecordingEv+0x3bc>)
    b75e:	183b      	adds	r3, r7, r0
    b760:	1c3c      	adds	r4, r7, #0
    b762:	3410      	adds	r4, #16
    b764:	1c18      	adds	r0, r3, #0
    b766:	2100      	movs	r1, #0
    b768:	2200      	movs	r2, #0
    b76a:	1c23      	adds	r3, r4, #0
    b76c:	f7fe e98c 	blx	9a88 <_init+0x2e4>

  if (ofcx == NULL)
    b770:	4986      	ldr	r1, [pc, #536]	(b98c <_ZN10FfPipeline11DoRecordingEv+0x3bc>)
    b772:	19c9      	adds	r1, r1, r7
    b774:	680b      	ldr	r3, [r1, #0]
    b776:	2b00      	cmp	r3, #0
    b778:	d106      	bne.n	b788 <_ZN10FfPipeline11DoRecordingEv+0x1b8>
    {
      return -1;
    b77a:	2201      	movs	r2, #1
    b77c:	603a      	str	r2, [r7, #0]
    b77e:	683b      	ldr	r3, [r7, #0]
    b780:	425b      	negs	r3, r3
    b782:	603b      	str	r3, [r7, #0]
    b784:	f000 fcad 	bl	c0e2 <_ZN10FfPipeline11DoRecordingEv+0xb12>
    }
  else
    {
    }

  ofmt = ofcx->oformat;
    b788:	4880      	ldr	r0, [pc, #512]	(b98c <_ZN10FfPipeline11DoRecordingEv+0x3bc>)
    b78a:	19c0      	adds	r0, r0, r7
    b78c:	6803      	ldr	r3, [r0, #0]
    b78e:	689b      	ldr	r3, [r3, #8]
    b790:	497f      	ldr	r1, [pc, #508]	(b990 <_ZN10FfPipeline11DoRecordingEv+0x3c0>)
    b792:	19c9      	adds	r1, r1, r7
    b794:	600b      	str	r3, [r1, #0]

  if (ofmt == NULL)
    b796:	4a7e      	ldr	r2, [pc, #504]	(b990 <_ZN10FfPipeline11DoRecordingEv+0x3c0>)
    b798:	19d2      	adds	r2, r2, r7
    b79a:	6813      	ldr	r3, [r2, #0]
    b79c:	2b00      	cmp	r3, #0
    b79e:	d106      	bne.n	b7ae <_ZN10FfPipeline11DoRecordingEv+0x1de>
    {
      return -1;
    b7a0:	2301      	movs	r3, #1
    b7a2:	603b      	str	r3, [r7, #0]
    b7a4:	6838      	ldr	r0, [r7, #0]
    b7a6:	4240      	negs	r0, r0
    b7a8:	6038      	str	r0, [r7, #0]
    b7aa:	f000 fc9a 	bl	c0e2 <_ZN10FfPipeline11DoRecordingEv+0xb12>
    }

  for (i = 0; i < ifcx->nb_streams; i++)
    b7ae:	2300      	movs	r3, #0
    b7b0:	4983      	ldr	r1, [pc, #524]	(b9c0 <_ZN10FfPipeline11DoRecordingEv+0x3f0>)
    b7b2:	19c9      	adds	r1, r1, r7
    b7b4:	600b      	str	r3, [r1, #0]
    b7b6:	e0b2      	b.n	b91e <_ZN10FfPipeline11DoRecordingEv+0x34e>
    {
      AVStream *in_stream = ifcx->streams[i];
    b7b8:	4a73      	ldr	r2, [pc, #460]	(b988 <_ZN10FfPipeline11DoRecordingEv+0x3b8>)
    b7ba:	19d2      	adds	r2, r2, r7
    b7bc:	6813      	ldr	r3, [r2, #0]
    b7be:	69da      	ldr	r2, [r3, #28]
    b7c0:	487f      	ldr	r0, [pc, #508]	(b9c0 <_ZN10FfPipeline11DoRecordingEv+0x3f0>)
    b7c2:	19c0      	adds	r0, r0, r7
    b7c4:	6803      	ldr	r3, [r0, #0]
    b7c6:	009b      	lsls	r3, r3, #2
    b7c8:	18d3      	adds	r3, r2, r3
    b7ca:	681b      	ldr	r3, [r3, #0]
    b7cc:	2191      	movs	r1, #145
    b7ce:	0109      	lsls	r1, r1, #4
    b7d0:	19c9      	adds	r1, r1, r7
    b7d2:	600b      	str	r3, [r1, #0]
      AVStream *out_stream = avformat_new_stream(ofcx, in_stream->codec->codec);
    b7d4:	4b6d      	ldr	r3, [pc, #436]	(b98c <_ZN10FfPipeline11DoRecordingEv+0x3bc>)
    b7d6:	19db      	adds	r3, r3, r7
    b7d8:	681a      	ldr	r2, [r3, #0]
    b7da:	2091      	movs	r0, #145
    b7dc:	0100      	lsls	r0, r0, #4
    b7de:	19c0      	adds	r0, r0, r7
    b7e0:	6803      	ldr	r3, [r0, #0]
    b7e2:	689b      	ldr	r3, [r3, #8]
    b7e4:	68db      	ldr	r3, [r3, #12]
    b7e6:	1c10      	adds	r0, r2, #0
    b7e8:	1c19      	adds	r1, r3, #0
    b7ea:	f7fe e89a 	blx	9920 <_init+0x17c>
    b7ee:	1c03      	adds	r3, r0, #0
    b7f0:	4974      	ldr	r1, [pc, #464]	(b9c4 <_ZN10FfPipeline11DoRecordingEv+0x3f4>)
    b7f2:	19c9      	adds	r1, r1, r7
    b7f4:	600b      	str	r3, [r1, #0]

      if (!out_stream)
    b7f6:	4a73      	ldr	r2, [pc, #460]	(b9c4 <_ZN10FfPipeline11DoRecordingEv+0x3f4>)
    b7f8:	19d2      	adds	r2, r2, r7
    b7fa:	6813      	ldr	r3, [r2, #0]
    b7fc:	2b00      	cmp	r3, #0
    b7fe:	d131      	bne.n	b864 <_ZN10FfPipeline11DoRecordingEv+0x294>
        {
          AppendLog("Failed allocating output stream\n", class_name);
    b800:	4871      	ldr	r0, [pc, #452]	(b9c8 <_ZN10FfPipeline11DoRecordingEv+0x3f8>)
    b802:	183b      	adds	r3, r7, r0
    b804:	1c18      	adds	r0, r3, #0
    b806:	f7fe e9be 	blx	9b84 <_init+0x3e0>
    b80a:	4970      	ldr	r1, [pc, #448]	(b9cc <_ZN10FfPipeline11DoRecordingEv+0x3fc>)
    b80c:	187b      	adds	r3, r7, r1
    b80e:	4a70      	ldr	r2, [pc, #448]	(b9d0 <_ZN10FfPipeline11DoRecordingEv+0x400>)
    b810:	486d      	ldr	r0, [pc, #436]	(b9c8 <_ZN10FfPipeline11DoRecordingEv+0x3f8>)
    b812:	183c      	adds	r4, r7, r0
    b814:	1c18      	adds	r0, r3, #0
    b816:	1c11      	adds	r1, r2, #0
    b818:	1c22      	adds	r2, r4, #0
    b81a:	f7fe e90c 	blx	9a34 <_init+0x290>
    b81e:	496d      	ldr	r1, [pc, #436]	(b9d4 <_ZN10FfPipeline11DoRecordingEv+0x404>)
    b820:	187b      	adds	r3, r7, r1
    b822:	486a      	ldr	r0, [pc, #424]	(b9cc <_ZN10FfPipeline11DoRecordingEv+0x3fc>)
    b824:	183a      	adds	r2, r7, r0
    b826:	218f      	movs	r1, #143
    b828:	0109      	lsls	r1, r1, #4
    b82a:	19c9      	adds	r1, r1, r7
    b82c:	680c      	ldr	r4, [r1, #0]
    b82e:	1c18      	adds	r0, r3, #0
    b830:	1c11      	adds	r1, r2, #0
    b832:	1c22      	adds	r2, r4, #0
    b834:	f000 fcce 	bl	c1d4 <_Z9AppendLogSsPKc>
    b838:	4a66      	ldr	r2, [pc, #408]	(b9d4 <_ZN10FfPipeline11DoRecordingEv+0x404>)
    b83a:	18bb      	adds	r3, r7, r2
    b83c:	1c18      	adds	r0, r3, #0
    b83e:	f7fe e88e 	blx	995c <_init+0x1b8>
    b842:	4862      	ldr	r0, [pc, #392]	(b9cc <_ZN10FfPipeline11DoRecordingEv+0x3fc>)
    b844:	183b      	adds	r3, r7, r0
    b846:	1c18      	adds	r0, r3, #0
    b848:	f7fe e888 	blx	995c <_init+0x1b8>
    b84c:	495e      	ldr	r1, [pc, #376]	(b9c8 <_ZN10FfPipeline11DoRecordingEv+0x3f8>)
    b84e:	187b      	adds	r3, r7, r1
    b850:	1c18      	adds	r0, r3, #0
    b852:	f7fe e932 	blx	9ab8 <_init+0x314>
          return -1;
    b856:	2201      	movs	r2, #1
    b858:	603a      	str	r2, [r7, #0]
    b85a:	683b      	ldr	r3, [r7, #0]
    b85c:	425b      	negs	r3, r3
    b85e:	603b      	str	r3, [r7, #0]
    b860:	f000 fc3f 	bl	c0e2 <_ZN10FfPipeline11DoRecordingEv+0xb12>
        }

      ret = avcodec_copy_context(out_stream->codec, in_stream->codec);
    b864:	4857      	ldr	r0, [pc, #348]	(b9c4 <_ZN10FfPipeline11DoRecordingEv+0x3f4>)
    b866:	19c0      	adds	r0, r0, r7
    b868:	6803      	ldr	r3, [r0, #0]
    b86a:	689a      	ldr	r2, [r3, #8]
    b86c:	2191      	movs	r1, #145
    b86e:	0109      	lsls	r1, r1, #4
    b870:	19c9      	adds	r1, r1, r7
    b872:	680b      	ldr	r3, [r1, #0]
    b874:	689b      	ldr	r3, [r3, #8]
    b876:	1c10      	adds	r0, r2, #0
    b878:	1c19      	adds	r1, r3, #0
    b87a:	f7fe e9a8 	blx	9bcc <_init+0x428>
    b87e:	1c03      	adds	r3, r0, #0
    b880:	4a55      	ldr	r2, [pc, #340]	(b9d8 <_ZN10FfPipeline11DoRecordingEv+0x408>)
    b882:	19d2      	adds	r2, r2, r7
    b884:	6013      	str	r3, [r2, #0]

      if (ret < 0)
    b886:	4854      	ldr	r0, [pc, #336]	(b9d8 <_ZN10FfPipeline11DoRecordingEv+0x408>)
    b888:	19c0      	adds	r0, r0, r7
    b88a:	6803      	ldr	r3, [r0, #0]
    b88c:	2b00      	cmp	r3, #0
    b88e:	da05      	bge.n	b89c <_ZN10FfPipeline11DoRecordingEv+0x2cc>
        {
          return ret;
    b890:	4951      	ldr	r1, [pc, #324]	(b9d8 <_ZN10FfPipeline11DoRecordingEv+0x408>)
    b892:	19c9      	adds	r1, r1, r7
    b894:	6809      	ldr	r1, [r1, #0]
    b896:	6039      	str	r1, [r7, #0]
    b898:	f000 fc23 	bl	c0e2 <_ZN10FfPipeline11DoRecordingEv+0xb12>
        }

      out_stream->time_base = in_stream->time_base;
    b89c:	4a49      	ldr	r2, [pc, #292]	(b9c4 <_ZN10FfPipeline11DoRecordingEv+0x3f4>)
    b89e:	19d2      	adds	r2, r2, r7
    b8a0:	6813      	ldr	r3, [r2, #0]
    b8a2:	2091      	movs	r0, #145
    b8a4:	0100      	lsls	r0, r0, #4
    b8a6:	19c0      	adds	r0, r0, r7
    b8a8:	6802      	ldr	r2, [r0, #0]
    b8aa:	3328      	adds	r3, #40
    b8ac:	3228      	adds	r2, #40
    b8ae:	2408      	movs	r4, #8
    b8b0:	1c18      	adds	r0, r3, #0
    b8b2:	1c11      	adds	r1, r2, #0
    b8b4:	1c22      	adds	r2, r4, #0
    b8b6:	f7fe e8ac 	blx	9a10 <_init+0x26c>
      out_stream->codec->time_base = out_stream->time_base;
    b8ba:	4942      	ldr	r1, [pc, #264]	(b9c4 <_ZN10FfPipeline11DoRecordingEv+0x3f4>)
    b8bc:	19c9      	adds	r1, r1, r7
    b8be:	680b      	ldr	r3, [r1, #0]
    b8c0:	689b      	ldr	r3, [r3, #8]
    b8c2:	4840      	ldr	r0, [pc, #256]	(b9c4 <_ZN10FfPipeline11DoRecordingEv+0x3f4>)
    b8c4:	19c0      	adds	r0, r0, r7
    b8c6:	6802      	ldr	r2, [r0, #0]
    b8c8:	3368      	adds	r3, #104
    b8ca:	3228      	adds	r2, #40
    b8cc:	2408      	movs	r4, #8
    b8ce:	1c18      	adds	r0, r3, #0
    b8d0:	1c11      	adds	r1, r2, #0
    b8d2:	1c22      	adds	r2, r4, #0
    b8d4:	f7fe e89c 	blx	9a10 <_init+0x26c>
      out_stream->codec->codec_tag = 0;
    b8d8:	493a      	ldr	r1, [pc, #232]	(b9c4 <_ZN10FfPipeline11DoRecordingEv+0x3f4>)
    b8da:	19c9      	adds	r1, r1, r7
    b8dc:	680b      	ldr	r3, [r1, #0]
    b8de:	689a      	ldr	r2, [r3, #8]
    b8e0:	2300      	movs	r3, #0
    b8e2:	6353      	str	r3, [r2, #52]

      if (ofcx->oformat->flags & AVFMT_GLOBALHEADER)
    b8e4:	4a29      	ldr	r2, [pc, #164]	(b98c <_ZN10FfPipeline11DoRecordingEv+0x3bc>)
    b8e6:	19d2      	adds	r2, r2, r7
    b8e8:	6813      	ldr	r3, [r2, #0]
    b8ea:	689b      	ldr	r3, [r3, #8]
    b8ec:	69da      	ldr	r2, [r3, #28]
    b8ee:	2340      	movs	r3, #64
    b8f0:	4013      	ands	r3, r2
    b8f2:	2b00      	cmp	r3, #0
    b8f4:	d00c      	beq.n	b910 <_ZN10FfPipeline11DoRecordingEv+0x340>
        out_stream->codec->flags |= CODEC_FLAG_GLOBAL_HEADER;
    b8f6:	4833      	ldr	r0, [pc, #204]	(b9c4 <_ZN10FfPipeline11DoRecordingEv+0x3f4>)
    b8f8:	19c0      	adds	r0, r0, r7
    b8fa:	6803      	ldr	r3, [r0, #0]
    b8fc:	6899      	ldr	r1, [r3, #8]
    b8fe:	4a31      	ldr	r2, [pc, #196]	(b9c4 <_ZN10FfPipeline11DoRecordingEv+0x3f4>)
    b900:	19d2      	adds	r2, r2, r7
    b902:	6813      	ldr	r3, [r2, #0]
    b904:	689b      	ldr	r3, [r3, #8]
    b906:	6d9a      	ldr	r2, [r3, #88]
    b908:	2380      	movs	r3, #128
    b90a:	03db      	lsls	r3, r3, #15
    b90c:	4313      	orrs	r3, r2
    b90e:	658b      	str	r3, [r1, #88]
  if (ofmt == NULL)
    {
      return -1;
    }

  for (i = 0; i < ifcx->nb_streams; i++)
    b910:	482b      	ldr	r0, [pc, #172]	(b9c0 <_ZN10FfPipeline11DoRecordingEv+0x3f0>)
    b912:	19c0      	adds	r0, r0, r7
    b914:	6803      	ldr	r3, [r0, #0]
    b916:	3301      	adds	r3, #1
    b918:	4929      	ldr	r1, [pc, #164]	(b9c0 <_ZN10FfPipeline11DoRecordingEv+0x3f0>)
    b91a:	19c9      	adds	r1, r1, r7
    b91c:	600b      	str	r3, [r1, #0]
    b91e:	4a1a      	ldr	r2, [pc, #104]	(b988 <_ZN10FfPipeline11DoRecordingEv+0x3b8>)
    b920:	19d2      	adds	r2, r2, r7
    b922:	6813      	ldr	r3, [r2, #0]
    b924:	699a      	ldr	r2, [r3, #24]
    b926:	4826      	ldr	r0, [pc, #152]	(b9c0 <_ZN10FfPipeline11DoRecordingEv+0x3f0>)
    b928:	19c0      	adds	r0, r0, r7
    b92a:	6803      	ldr	r3, [r0, #0]
    b92c:	429a      	cmp	r2, r3
    b92e:	d900      	bls.n	b932 <_ZN10FfPipeline11DoRecordingEv+0x362>
    b930:	e742      	b.n	b7b8 <_ZN10FfPipeline11DoRecordingEv+0x1e8>
      if (ofcx->oformat->flags & AVFMT_GLOBALHEADER)
        out_stream->codec->flags |= CODEC_FLAG_GLOBAL_HEADER;

    }   // End of for streams

  if (!(ofmt->flags & AVFMT_NOFILE))
    b932:	4917      	ldr	r1, [pc, #92]	(b990 <_ZN10FfPipeline11DoRecordingEv+0x3c0>)
    b934:	19c9      	adds	r1, r1, r7
    b936:	680b      	ldr	r3, [r1, #0]
    b938:	69da      	ldr	r2, [r3, #28]
    b93a:	2301      	movs	r3, #1
    b93c:	4013      	ands	r3, r2
    b93e:	061b      	lsls	r3, r3, #24
    b940:	0e1a      	lsrs	r2, r3, #24
    b942:	2301      	movs	r3, #1
    b944:	4053      	eors	r3, r2
    b946:	061b      	lsls	r3, r3, #24
    b948:	0e1b      	lsrs	r3, r3, #24
    b94a:	2b00      	cmp	r3, #0
    b94c:	d046      	beq.n	b9dc <_ZN10FfPipeline11DoRecordingEv+0x40c>
    {
      ret = avio_open(&ofcx->pb, path, AVIO_FLAG_WRITE);
    b94e:	4a0f      	ldr	r2, [pc, #60]	(b98c <_ZN10FfPipeline11DoRecordingEv+0x3bc>)
    b950:	19d2      	adds	r2, r2, r7
    b952:	6813      	ldr	r3, [r2, #0]
    b954:	3310      	adds	r3, #16
    b956:	1c3a      	adds	r2, r7, #0
    b958:	3210      	adds	r2, #16
    b95a:	1c18      	adds	r0, r3, #0
    b95c:	1c11      	adds	r1, r2, #0
    b95e:	2202      	movs	r2, #2
    b960:	f7fd efa8 	blx	98b4 <_init+0x110>
    b964:	1c03      	adds	r3, r0, #0
    b966:	481c      	ldr	r0, [pc, #112]	(b9d8 <_ZN10FfPipeline11DoRecordingEv+0x408>)
    b968:	19c0      	adds	r0, r0, r7
    b96a:	6003      	str	r3, [r0, #0]
      if (ret < 0)
    b96c:	491a      	ldr	r1, [pc, #104]	(b9d8 <_ZN10FfPipeline11DoRecordingEv+0x408>)
    b96e:	19c9      	adds	r1, r1, r7
    b970:	680b      	ldr	r3, [r1, #0]
    b972:	2b00      	cmp	r3, #0
    b974:	da5d      	bge.n	ba32 <_ZN10FfPipeline11DoRecordingEv+0x462>
        {
          return ret;
    b976:	4a18      	ldr	r2, [pc, #96]	(b9d8 <_ZN10FfPipeline11DoRecordingEv+0x408>)
    b978:	19d2      	adds	r2, r2, r7
    b97a:	6812      	ldr	r2, [r2, #0]
    b97c:	603a      	str	r2, [r7, #0]
    b97e:	e3b0      	b.n	c0e2 <_ZN10FfPipeline11DoRecordingEv+0xb12>
    b980:	fffff6d8 	.word	0xfffff6d8
    b984:	0000d9dc 	.word	0x0000d9dc
    b988:	00000868 	.word	0x00000868
    b98c:	00000864 	.word	0x00000864
    b990:	000008f4 	.word	0x000008f4
    b994:	000008f8 	.word	0x000008f8
    b998:	00016f88 	.word	0x00016f88
    b99c:	0000d9f4 	.word	0x0000d9f4
    b9a0:	0000da00 	.word	0x0000da00
    b9a4:	00016780 	.word	0x00016780
    b9a8:	0000da18 	.word	0x0000da18
    b9ac:	00000877 	.word	0x00000877
    b9b0:	0000086c 	.word	0x0000086c
    b9b4:	0000da34 	.word	0x0000da34
    b9b8:	0000da44 	.word	0x0000da44
    b9bc:	0000da48 	.word	0x0000da48
    b9c0:	00000908 	.word	0x00000908
    b9c4:	00000914 	.word	0x00000914
    b9c8:	00000883 	.word	0x00000883
    b9cc:	0000087c 	.word	0x0000087c
    b9d0:	0000da78 	.word	0x0000da78
    b9d4:	00000878 	.word	0x00000878
    b9d8:	0000090c 	.word	0x0000090c
        }
    }
  else
    {
      AppendLog("WARNING: for ofmt set flag AVFMT_NOFILE so we skip open file.\n", class_name);
    b9dc:	48da      	ldr	r0, [pc, #872]	(bd48 <_ZN10FfPipeline11DoRecordingEv+0x778>)
    b9de:	183b      	adds	r3, r7, r0
    b9e0:	1c18      	adds	r0, r3, #0
    b9e2:	f7fe e8d0 	blx	9b84 <_init+0x3e0>
    b9e6:	49d9      	ldr	r1, [pc, #868]	(bd4c <_ZN10FfPipeline11DoRecordingEv+0x77c>)
    b9e8:	187b      	adds	r3, r7, r1
    b9ea:	4ad9      	ldr	r2, [pc, #868]	(bd50 <_ZN10FfPipeline11DoRecordingEv+0x780>)
    b9ec:	48d6      	ldr	r0, [pc, #856]	(bd48 <_ZN10FfPipeline11DoRecordingEv+0x778>)
    b9ee:	183c      	adds	r4, r7, r0
    b9f0:	1c18      	adds	r0, r3, #0
    b9f2:	1c11      	adds	r1, r2, #0
    b9f4:	1c22      	adds	r2, r4, #0
    b9f6:	f7fe e81e 	blx	9a34 <_init+0x290>
    b9fa:	49d6      	ldr	r1, [pc, #856]	(bd54 <_ZN10FfPipeline11DoRecordingEv+0x784>)
    b9fc:	187b      	adds	r3, r7, r1
    b9fe:	48d3      	ldr	r0, [pc, #844]	(bd4c <_ZN10FfPipeline11DoRecordingEv+0x77c>)
    ba00:	183a      	adds	r2, r7, r0
    ba02:	218f      	movs	r1, #143
    ba04:	0109      	lsls	r1, r1, #4
    ba06:	19c9      	adds	r1, r1, r7
    ba08:	680c      	ldr	r4, [r1, #0]
    ba0a:	1c18      	adds	r0, r3, #0
    ba0c:	1c11      	adds	r1, r2, #0
    ba0e:	1c22      	adds	r2, r4, #0
    ba10:	f000 fbe0 	bl	c1d4 <_Z9AppendLogSsPKc>
    ba14:	4acf      	ldr	r2, [pc, #828]	(bd54 <_ZN10FfPipeline11DoRecordingEv+0x784>)
    ba16:	18bb      	adds	r3, r7, r2
    ba18:	1c18      	adds	r0, r3, #0
    ba1a:	f7fd efa0 	blx	995c <_init+0x1b8>
    ba1e:	48cb      	ldr	r0, [pc, #812]	(bd4c <_ZN10FfPipeline11DoRecordingEv+0x77c>)
    ba20:	183b      	adds	r3, r7, r0
    ba22:	1c18      	adds	r0, r3, #0
    ba24:	f7fd ef9a 	blx	995c <_init+0x1b8>
    ba28:	49c7      	ldr	r1, [pc, #796]	(bd48 <_ZN10FfPipeline11DoRecordingEv+0x778>)
    ba2a:	187b      	adds	r3, r7, r1
    ba2c:	1c18      	adds	r0, r3, #0
    ba2e:	f7fe e844 	blx	9ab8 <_init+0x314>
    }

  ret = avformat_write_header(ofcx, NULL);
    ba32:	4ac9      	ldr	r2, [pc, #804]	(bd58 <_ZN10FfPipeline11DoRecordingEv+0x788>)
    ba34:	19d2      	adds	r2, r2, r7
    ba36:	6813      	ldr	r3, [r2, #0]
    ba38:	1c18      	adds	r0, r3, #0
    ba3a:	2100      	movs	r1, #0
    ba3c:	f7fd efc4 	blx	99c8 <_init+0x224>
    ba40:	1c03      	adds	r3, r0, #0
    ba42:	48c6      	ldr	r0, [pc, #792]	(bd5c <_ZN10FfPipeline11DoRecordingEv+0x78c>)
    ba44:	19c0      	adds	r0, r0, r7
    ba46:	6003      	str	r3, [r0, #0]

  if (ret < 0)
    ba48:	49c4      	ldr	r1, [pc, #784]	(bd5c <_ZN10FfPipeline11DoRecordingEv+0x78c>)
    ba4a:	19c9      	adds	r1, r1, r7
    ba4c:	680b      	ldr	r3, [r1, #0]
    ba4e:	2b00      	cmp	r3, #0
    ba50:	da04      	bge.n	ba5c <_ZN10FfPipeline11DoRecordingEv+0x48c>
    {
      return ret;
    ba52:	4ac2      	ldr	r2, [pc, #776]	(bd5c <_ZN10FfPipeline11DoRecordingEv+0x78c>)
    ba54:	19d2      	adds	r2, r2, r7
    ba56:	6812      	ldr	r2, [r2, #0]
    ba58:	603a      	str	r2, [r7, #0]
    ba5a:	e342      	b.n	c0e2 <_ZN10FfPipeline11DoRecordingEv+0xb12>
    }

  SetWaitingKeyframeFlag();
    ba5c:	68fb      	ldr	r3, [r7, #12]
    ba5e:	1c18      	adds	r0, r3, #0
    ba60:	f7ff fa36 	bl	aed0 <_ZN10FfPipeline22SetWaitingKeyframeFlagEv>
  ClearNeedStop();
    ba64:	68fb      	ldr	r3, [r7, #12]
    ba66:	1c18      	adds	r0, r3, #0
    ba68:	f7ff fd78 	bl	b55c <_ZN10FfPipeline13ClearNeedStopEv>
    ba6c:	e147      	b.n	bcfe <_ZN10FfPipeline11DoRecordingEv+0x72e>

  while((av_read_frame(ifcx, &pkt) >= 0) && (!IsNeedStop()))
    {
      AVStream *in_stream = NULL, *out_stream = NULL;
    ba6e:	2300      	movs	r3, #0
    ba70:	48bb      	ldr	r0, [pc, #748]	(bd60 <_ZN10FfPipeline11DoRecordingEv+0x790>)
    ba72:	19c0      	adds	r0, r0, r7
    ba74:	6003      	str	r3, [r0, #0]
    ba76:	2300      	movs	r3, #0
    ba78:	49ba      	ldr	r1, [pc, #744]	(bd64 <_ZN10FfPipeline11DoRecordingEv+0x794>)
    ba7a:	19c9      	adds	r1, r1, r7
    ba7c:	600b      	str	r3, [r1, #0]

      if ((IsWaitingKeyframe() && !(pkt.flags & AV_PKT_FLAG_KEY)))
    ba7e:	68fb      	ldr	r3, [r7, #12]
    ba80:	1c18      	adds	r0, r3, #0
    ba82:	f7ff fa39 	bl	aef8 <_ZN10FfPipeline17IsWaitingKeyframeEv>
    ba86:	1c03      	adds	r3, r0, #0
    ba88:	469c      	mov	ip, r3
    ba8a:	4662      	mov	r2, ip
    ba8c:	2301      	movs	r3, #1
    ba8e:	4053      	eors	r3, r2
    ba90:	061b      	lsls	r3, r3, #24
    ba92:	0e1b      	lsrs	r3, r3, #24
    ba94:	2b00      	cmp	r3, #0
    ba96:	d116      	bne.n	bac6 <_ZN10FfPipeline11DoRecordingEv+0x4f6>
    ba98:	4bb3      	ldr	r3, [pc, #716]	(bd68 <_ZN10FfPipeline11DoRecordingEv+0x798>)
    ba9a:	2292      	movs	r2, #146
    ba9c:	0112      	lsls	r2, r2, #4
    ba9e:	19d2      	adds	r2, r2, r7
    baa0:	18d3      	adds	r3, r2, r3
    baa2:	6a5a      	ldr	r2, [r3, #36]
    baa4:	2301      	movs	r3, #1
    baa6:	4013      	ands	r3, r2
    baa8:	061b      	lsls	r3, r3, #24
    baaa:	0e1a      	lsrs	r2, r3, #24
    baac:	2301      	movs	r3, #1
    baae:	4053      	eors	r3, r2
    bab0:	061b      	lsls	r3, r3, #24
    bab2:	0e1a      	lsrs	r2, r3, #24
    bab4:	2301      	movs	r3, #1
    bab6:	4053      	eors	r3, r2
    bab8:	061b      	lsls	r3, r3, #24
    baba:	0e1b      	lsrs	r3, r3, #24
    babc:	2b00      	cmp	r3, #0
    babe:	d102      	bne.n	bac6 <_ZN10FfPipeline11DoRecordingEv+0x4f6>
    bac0:	2301      	movs	r3, #1
    bac2:	60bb      	str	r3, [r7, #8]
    bac4:	e001      	b.n	baca <_ZN10FfPipeline11DoRecordingEv+0x4fa>
    bac6:	2000      	movs	r0, #0
    bac8:	60b8      	str	r0, [r7, #8]
    baca:	68bb      	ldr	r3, [r7, #8]
    bacc:	2b00      	cmp	r3, #0
    bace:	d006      	beq.n	bade <_ZN10FfPipeline11DoRecordingEv+0x50e>
        {
          av_free_packet(&pkt);
    bad0:	2181      	movs	r1, #129
    bad2:	0109      	lsls	r1, r1, #4
    bad4:	187b      	adds	r3, r7, r1
    bad6:	1c18      	adds	r0, r3, #0
    bad8:	f7fd ee8c 	blx	97f4 <_init+0x50>
    badc:	e10f      	b.n	bcfe <_ZN10FfPipeline11DoRecordingEv+0x72e>
          continue;
        }

      if (IsWaitingKeyframe())
    bade:	68fb      	ldr	r3, [r7, #12]
    bae0:	1c18      	adds	r0, r3, #0
    bae2:	f7ff fa09 	bl	aef8 <_ZN10FfPipeline17IsWaitingKeyframeEv>
    bae6:	1c03      	adds	r3, r0, #0
    bae8:	469c      	mov	ip, r3
    baea:	4663      	mov	r3, ip
    baec:	2b00      	cmp	r3, #0
    baee:	d023      	beq.n	bb38 <_ZN10FfPipeline11DoRecordingEv+0x568>
        {
          ClearWaitingKeyframeFlag();
    baf0:	68fb      	ldr	r3, [r7, #12]
    baf2:	1c18      	adds	r0, r3, #0
    baf4:	f7ff f9f6 	bl	aee4 <_ZN10FfPipeline24ClearWaitingKeyframeFlagEv>
          pkt.pts = pkt.dts = AV_NOPTS_VALUE;
    baf8:	4b9b      	ldr	r3, [pc, #620]	(bd68 <_ZN10FfPipeline11DoRecordingEv+0x798>)
    bafa:	2092      	movs	r0, #146
    bafc:	0100      	lsls	r0, r0, #4
    bafe:	19c0      	adds	r0, r0, r7
    bb00:	18c2      	adds	r2, r0, r3
    bb02:	4c90      	ldr	r4, [pc, #576]	(bd44 <_ZN10FfPipeline11DoRecordingEv+0x774>)
    bb04:	4b8e      	ldr	r3, [pc, #568]	(bd40 <_ZN10FfPipeline11DoRecordingEv+0x770>)
    bb06:	6113      	str	r3, [r2, #16]
    bb08:	6154      	str	r4, [r2, #20]
    bb0a:	4b97      	ldr	r3, [pc, #604]	(bd68 <_ZN10FfPipeline11DoRecordingEv+0x798>)
    bb0c:	2192      	movs	r1, #146
    bb0e:	0109      	lsls	r1, r1, #4
    bb10:	19c9      	adds	r1, r1, r7
    bb12:	18cb      	adds	r3, r1, r3
    bb14:	6919      	ldr	r1, [r3, #16]
    bb16:	695a      	ldr	r2, [r3, #20]
    bb18:	4b93      	ldr	r3, [pc, #588]	(bd68 <_ZN10FfPipeline11DoRecordingEv+0x798>)
    bb1a:	2092      	movs	r0, #146
    bb1c:	0100      	lsls	r0, r0, #4
    bb1e:	19c0      	adds	r0, r0, r7
    bb20:	18c3      	adds	r3, r0, r3
    bb22:	6099      	str	r1, [r3, #8]
    bb24:	60da      	str	r2, [r3, #12]
          SetRecState(REC_WRITING);
    bb26:	68fb      	ldr	r3, [r7, #12]
    bb28:	1c18      	adds	r0, r3, #0
    bb2a:	2103      	movs	r1, #3
    bb2c:	f7ff f9c4 	bl	aeb8 <_ZN10FfPipeline11SetRecStateE14RecordingState>
          SetPartnerToStop();
    bb30:	68fb      	ldr	r3, [r7, #12]
    bb32:	1c18      	adds	r0, r3, #0
    bb34:	f7ff fcc8 	bl	b4c8 <_ZN10FfPipeline16SetPartnerToStopEv>
        }

      in_stream  = ifcx->streams[pkt.stream_index];
    bb38:	498c      	ldr	r1, [pc, #560]	(bd6c <_ZN10FfPipeline11DoRecordingEv+0x79c>)
    bb3a:	19c9      	adds	r1, r1, r7
    bb3c:	680b      	ldr	r3, [r1, #0]
    bb3e:	69da      	ldr	r2, [r3, #28]
    bb40:	4b89      	ldr	r3, [pc, #548]	(bd68 <_ZN10FfPipeline11DoRecordingEv+0x798>)
    bb42:	2092      	movs	r0, #146
    bb44:	0100      	lsls	r0, r0, #4
    bb46:	19c0      	adds	r0, r0, r7
    bb48:	18c3      	adds	r3, r0, r3
    bb4a:	6a1b      	ldr	r3, [r3, #32]
    bb4c:	009b      	lsls	r3, r3, #2
    bb4e:	18d3      	adds	r3, r2, r3
    bb50:	681b      	ldr	r3, [r3, #0]
    bb52:	4983      	ldr	r1, [pc, #524]	(bd60 <_ZN10FfPipeline11DoRecordingEv+0x790>)
    bb54:	19c9      	adds	r1, r1, r7
    bb56:	600b      	str	r3, [r1, #0]
      out_stream = ofcx->streams[pkt.stream_index];
    bb58:	4a7f      	ldr	r2, [pc, #508]	(bd58 <_ZN10FfPipeline11DoRecordingEv+0x788>)
    bb5a:	19d2      	adds	r2, r2, r7
    bb5c:	6813      	ldr	r3, [r2, #0]
    bb5e:	69da      	ldr	r2, [r3, #28]
    bb60:	4b81      	ldr	r3, [pc, #516]	(bd68 <_ZN10FfPipeline11DoRecordingEv+0x798>)
    bb62:	2092      	movs	r0, #146
    bb64:	0100      	lsls	r0, r0, #4
    bb66:	19c0      	adds	r0, r0, r7
    bb68:	18c3      	adds	r3, r0, r3
    bb6a:	6a1b      	ldr	r3, [r3, #32]
    bb6c:	009b      	lsls	r3, r3, #2
    bb6e:	18d3      	adds	r3, r2, r3
    bb70:	681b      	ldr	r3, [r3, #0]
    bb72:	497c      	ldr	r1, [pc, #496]	(bd64 <_ZN10FfPipeline11DoRecordingEv+0x794>)
    bb74:	19c9      	adds	r1, r1, r7
    bb76:	600b      	str	r3, [r1, #0]

      if (!in_stream)
    bb78:	4a79      	ldr	r2, [pc, #484]	(bd60 <_ZN10FfPipeline11DoRecordingEv+0x790>)
    bb7a:	19d2      	adds	r2, r2, r7
    bb7c:	6813      	ldr	r3, [r2, #0]
    bb7e:	2b00      	cmp	r3, #0
    bb80:	d133      	bne.n	bbea <_ZN10FfPipeline11DoRecordingEv+0x61a>
        {
          AppendLog("ERROR: in_stream is NULL pointer! Skip this packet!\n", class_name);
    bb82:	487b      	ldr	r0, [pc, #492]	(bd70 <_ZN10FfPipeline11DoRecordingEv+0x7a0>)
    bb84:	183b      	adds	r3, r7, r0
    bb86:	1c18      	adds	r0, r3, #0
    bb88:	f7fd effc 	blx	9b84 <_init+0x3e0>
    bb8c:	4979      	ldr	r1, [pc, #484]	(bd74 <_ZN10FfPipeline11DoRecordingEv+0x7a4>)
    bb8e:	187b      	adds	r3, r7, r1
    bb90:	4a79      	ldr	r2, [pc, #484]	(bd78 <_ZN10FfPipeline11DoRecordingEv+0x7a8>)
    bb92:	4877      	ldr	r0, [pc, #476]	(bd70 <_ZN10FfPipeline11DoRecordingEv+0x7a0>)
    bb94:	183c      	adds	r4, r7, r0
    bb96:	1c18      	adds	r0, r3, #0
    bb98:	1c11      	adds	r1, r2, #0
    bb9a:	1c22      	adds	r2, r4, #0
    bb9c:	f7fd ef4a 	blx	9a34 <_init+0x290>
    bba0:	2189      	movs	r1, #137
    bba2:	0109      	lsls	r1, r1, #4
    bba4:	187b      	adds	r3, r7, r1
    bba6:	4873      	ldr	r0, [pc, #460]	(bd74 <_ZN10FfPipeline11DoRecordingEv+0x7a4>)
    bba8:	183a      	adds	r2, r7, r0
    bbaa:	218f      	movs	r1, #143
    bbac:	0109      	lsls	r1, r1, #4
    bbae:	19c9      	adds	r1, r1, r7
    bbb0:	680c      	ldr	r4, [r1, #0]
    bbb2:	1c18      	adds	r0, r3, #0
    bbb4:	1c11      	adds	r1, r2, #0
    bbb6:	1c22      	adds	r2, r4, #0
    bbb8:	f000 fb0c 	bl	c1d4 <_Z9AppendLogSsPKc>
    bbbc:	2289      	movs	r2, #137
    bbbe:	0112      	lsls	r2, r2, #4
    bbc0:	18bb      	adds	r3, r7, r2
    bbc2:	1c18      	adds	r0, r3, #0
    bbc4:	f7fd eeca 	blx	995c <_init+0x1b8>
    bbc8:	486a      	ldr	r0, [pc, #424]	(bd74 <_ZN10FfPipeline11DoRecordingEv+0x7a4>)
    bbca:	183b      	adds	r3, r7, r0
    bbcc:	1c18      	adds	r0, r3, #0
    bbce:	f7fd eec6 	blx	995c <_init+0x1b8>
    bbd2:	4967      	ldr	r1, [pc, #412]	(bd70 <_ZN10FfPipeline11DoRecordingEv+0x7a0>)
    bbd4:	187b      	adds	r3, r7, r1
    bbd6:	1c18      	adds	r0, r3, #0
    bbd8:	f7fd ef6e 	blx	9ab8 <_init+0x314>
          av_free_packet(&pkt);
    bbdc:	2281      	movs	r2, #129
    bbde:	0112      	lsls	r2, r2, #4
    bbe0:	18bb      	adds	r3, r7, r2
    bbe2:	1c18      	adds	r0, r3, #0
    bbe4:	f7fd ee06 	blx	97f4 <_init+0x50>
    bbe8:	e089      	b.n	bcfe <_ZN10FfPipeline11DoRecordingEv+0x72e>

          continue;
        }

      if (!out_stream)
    bbea:	485e      	ldr	r0, [pc, #376]	(bd64 <_ZN10FfPipeline11DoRecordingEv+0x794>)
    bbec:	19c0      	adds	r0, r0, r7
    bbee:	6803      	ldr	r3, [r0, #0]
    bbf0:	2b00      	cmp	r3, #0
    bbf2:	d134      	bne.n	bc5e <_ZN10FfPipeline11DoRecordingEv+0x68e>
        {
          AppendLog("ERROR: out_stream is NULL pointer! Skip this packet!\n", class_name);
    bbf4:	4961      	ldr	r1, [pc, #388]	(bd7c <_ZN10FfPipeline11DoRecordingEv+0x7ac>)
    bbf6:	187b      	adds	r3, r7, r1
    bbf8:	1c18      	adds	r0, r3, #0
    bbfa:	f7fd efc4 	blx	9b84 <_init+0x3e0>
    bbfe:	228a      	movs	r2, #138
    bc00:	0112      	lsls	r2, r2, #4
    bc02:	18bb      	adds	r3, r7, r2
    bc04:	4a5e      	ldr	r2, [pc, #376]	(bd80 <_ZN10FfPipeline11DoRecordingEv+0x7b0>)
    bc06:	485d      	ldr	r0, [pc, #372]	(bd7c <_ZN10FfPipeline11DoRecordingEv+0x7ac>)
    bc08:	183c      	adds	r4, r7, r0
    bc0a:	1c18      	adds	r0, r3, #0
    bc0c:	1c11      	adds	r1, r2, #0
    bc0e:	1c22      	adds	r2, r4, #0
    bc10:	f7fd ef10 	blx	9a34 <_init+0x290>
    bc14:	495b      	ldr	r1, [pc, #364]	(bd84 <_ZN10FfPipeline11DoRecordingEv+0x7b4>)
    bc16:	187b      	adds	r3, r7, r1
    bc18:	208a      	movs	r0, #138
    bc1a:	0100      	lsls	r0, r0, #4
    bc1c:	183a      	adds	r2, r7, r0
    bc1e:	218f      	movs	r1, #143
    bc20:	0109      	lsls	r1, r1, #4
    bc22:	19c9      	adds	r1, r1, r7
    bc24:	680c      	ldr	r4, [r1, #0]
    bc26:	1c18      	adds	r0, r3, #0
    bc28:	1c11      	adds	r1, r2, #0
    bc2a:	1c22      	adds	r2, r4, #0
    bc2c:	f000 fad2 	bl	c1d4 <_Z9AppendLogSsPKc>
    bc30:	4a54      	ldr	r2, [pc, #336]	(bd84 <_ZN10FfPipeline11DoRecordingEv+0x7b4>)
    bc32:	18bb      	adds	r3, r7, r2
    bc34:	1c18      	adds	r0, r3, #0
    bc36:	f7fd ee92 	blx	995c <_init+0x1b8>
    bc3a:	208a      	movs	r0, #138
    bc3c:	0100      	lsls	r0, r0, #4
    bc3e:	183b      	adds	r3, r7, r0
    bc40:	1c18      	adds	r0, r3, #0
    bc42:	f7fd ee8c 	blx	995c <_init+0x1b8>
    bc46:	494d      	ldr	r1, [pc, #308]	(bd7c <_ZN10FfPipeline11DoRecordingEv+0x7ac>)
    bc48:	187b      	adds	r3, r7, r1
    bc4a:	1c18      	adds	r0, r3, #0
    bc4c:	f7fd ef34 	blx	9ab8 <_init+0x314>
          av_free_packet(&pkt);
    bc50:	2281      	movs	r2, #129
    bc52:	0112      	lsls	r2, r2, #4
    bc54:	18bb      	adds	r3, r7, r2
    bc56:	1c18      	adds	r0, r3, #0
    bc58:	f7fd edcc 	blx	97f4 <_init+0x50>
    bc5c:	e04f      	b.n	bcfe <_ZN10FfPipeline11DoRecordingEv+0x72e>

          continue;
        }

      if (out_stream->codec->codec_type == AVMEDIA_TYPE_AUDIO)
    bc5e:	4841      	ldr	r0, [pc, #260]	(bd64 <_ZN10FfPipeline11DoRecordingEv+0x794>)
    bc60:	19c0      	adds	r0, r0, r7
    bc62:	6803      	ldr	r3, [r0, #0]
    bc64:	689b      	ldr	r3, [r3, #8]
    bc66:	689b      	ldr	r3, [r3, #8]
    bc68:	2b01      	cmp	r3, #1
    bc6a:	d10c      	bne.n	bc86 <_ZN10FfPipeline11DoRecordingEv+0x6b6>
        a_packets++;
    bc6c:	4946      	ldr	r1, [pc, #280]	(bd88 <_ZN10FfPipeline11DoRecordingEv+0x7b8>)
    bc6e:	19c9      	adds	r1, r1, r7
    bc70:	680b      	ldr	r3, [r1, #0]
    bc72:	684c      	ldr	r4, [r1, #4]
    bc74:	2101      	movs	r1, #1
    bc76:	2200      	movs	r2, #0
    bc78:	185b      	adds	r3, r3, r1
    bc7a:	4154      	adcs	r4, r2
    bc7c:	4a42      	ldr	r2, [pc, #264]	(bd88 <_ZN10FfPipeline11DoRecordingEv+0x7b8>)
    bc7e:	19d2      	adds	r2, r2, r7
    bc80:	6013      	str	r3, [r2, #0]
    bc82:	6054      	str	r4, [r2, #4]
    bc84:	e014      	b.n	bcb0 <_ZN10FfPipeline11DoRecordingEv+0x6e0>
      else if (out_stream->codec->codec_type == AVMEDIA_TYPE_VIDEO)
    bc86:	4837      	ldr	r0, [pc, #220]	(bd64 <_ZN10FfPipeline11DoRecordingEv+0x794>)
    bc88:	19c0      	adds	r0, r0, r7
    bc8a:	6803      	ldr	r3, [r0, #0]
    bc8c:	689b      	ldr	r3, [r3, #8]
    bc8e:	689b      	ldr	r3, [r3, #8]
    bc90:	2b00      	cmp	r3, #0
    bc92:	d10d      	bne.n	bcb0 <_ZN10FfPipeline11DoRecordingEv+0x6e0>
        v_packets++;
    bc94:	2190      	movs	r1, #144
    bc96:	0109      	lsls	r1, r1, #4
    bc98:	19c9      	adds	r1, r1, r7
    bc9a:	680b      	ldr	r3, [r1, #0]
    bc9c:	684c      	ldr	r4, [r1, #4]
    bc9e:	2101      	movs	r1, #1
    bca0:	2200      	movs	r2, #0
    bca2:	185b      	adds	r3, r3, r1
    bca4:	4154      	adcs	r4, r2
    bca6:	2290      	movs	r2, #144
    bca8:	0112      	lsls	r2, r2, #4
    bcaa:	19d2      	adds	r2, r2, r7
    bcac:	6013      	str	r3, [r2, #0]
    bcae:	6054      	str	r4, [r2, #4]

      RescalePtsDts24(&pkt, in_stream, out_stream);
    bcb0:	68fb      	ldr	r3, [r7, #12]
    bcb2:	2081      	movs	r0, #129
    bcb4:	0100      	lsls	r0, r0, #4
    bcb6:	183a      	adds	r2, r7, r0
    bcb8:	4929      	ldr	r1, [pc, #164]	(bd60 <_ZN10FfPipeline11DoRecordingEv+0x790>)
    bcba:	19c9      	adds	r1, r1, r7
    bcbc:	680c      	ldr	r4, [r1, #0]
    bcbe:	4829      	ldr	r0, [pc, #164]	(bd64 <_ZN10FfPipeline11DoRecordingEv+0x794>)
    bcc0:	19c0      	adds	r0, r0, r7
    bcc2:	6805      	ldr	r5, [r0, #0]
    bcc4:	1c18      	adds	r0, r3, #0
    bcc6:	1c11      	adds	r1, r2, #0
    bcc8:	1c22      	adds	r2, r4, #0
    bcca:	1c2b      	adds	r3, r5, #0
    bccc:	f7ff f962 	bl	af94 <_ZN10FfPipeline15RescalePtsDts24EP8AVPacketP8AVStreamS3_>

      WriteFrame_v242(ofcx, out_stream, &pkt, NULL);
    bcd0:	4a21      	ldr	r2, [pc, #132]	(bd58 <_ZN10FfPipeline11DoRecordingEv+0x788>)
    bcd2:	19d2      	adds	r2, r2, r7
    bcd4:	6811      	ldr	r1, [r2, #0]
    bcd6:	68fa      	ldr	r2, [r7, #12]
    bcd8:	4b22      	ldr	r3, [pc, #136]	(bd64 <_ZN10FfPipeline11DoRecordingEv+0x794>)
    bcda:	19db      	adds	r3, r3, r7
    bcdc:	681c      	ldr	r4, [r3, #0]
    bcde:	2081      	movs	r0, #129
    bce0:	0100      	lsls	r0, r0, #4
    bce2:	183d      	adds	r5, r7, r0
    bce4:	2300      	movs	r3, #0
    bce6:	9300      	str	r3, [sp, #0]
    bce8:	1c10      	adds	r0, r2, #0
    bcea:	1c22      	adds	r2, r4, #0
    bcec:	1c2b      	adds	r3, r5, #0
    bcee:	f7ff f9c9 	bl	b084 <_ZN10FfPipeline15WriteFrame_v242EP15AVFormatContextP8AVStreamP8AVPacketP24AVBitStreamFilterContext>

      av_free_packet(&pkt);
    bcf2:	2181      	movs	r1, #129
    bcf4:	0109      	lsls	r1, r1, #4
    bcf6:	187b      	adds	r3, r7, r1
    bcf8:	1c18      	adds	r0, r3, #0
    bcfa:	f7fd ed7c 	blx	97f4 <_init+0x50>
    }

  SetWaitingKeyframeFlag();
  ClearNeedStop();

  while((av_read_frame(ifcx, &pkt) >= 0) && (!IsNeedStop()))
    bcfe:	4a1b      	ldr	r2, [pc, #108]	(bd6c <_ZN10FfPipeline11DoRecordingEv+0x79c>)
    bd00:	19d2      	adds	r2, r2, r7
    bd02:	6813      	ldr	r3, [r2, #0]
    bd04:	2081      	movs	r0, #129
    bd06:	0100      	lsls	r0, r0, #4
    bd08:	183a      	adds	r2, r7, r0
    bd0a:	1c18      	adds	r0, r3, #0
    bd0c:	1c11      	adds	r1, r2, #0
    bd0e:	f7fd ed5a 	blx	97c4 <_init+0x20>
    bd12:	1c03      	adds	r3, r0, #0
    bd14:	2b00      	cmp	r3, #0
    bd16:	db39      	blt.n	bd8c <_ZN10FfPipeline11DoRecordingEv+0x7bc>
    bd18:	68fb      	ldr	r3, [r7, #12]
    bd1a:	1c18      	adds	r0, r3, #0
    bd1c:	f7ff fb5a 	bl	b3d4 <_ZN10FfPipeline10IsNeedStopEv>
    bd20:	1c03      	adds	r3, r0, #0
    bd22:	469c      	mov	ip, r3
    bd24:	4662      	mov	r2, ip
    bd26:	2301      	movs	r3, #1
    bd28:	4053      	eors	r3, r2
    bd2a:	061b      	lsls	r3, r3, #24
    bd2c:	0e1a      	lsrs	r2, r3, #24
    bd2e:	2301      	movs	r3, #1
    bd30:	4053      	eors	r3, r2
    bd32:	061b      	lsls	r3, r3, #24
    bd34:	0e1b      	lsrs	r3, r3, #24
    bd36:	2b00      	cmp	r3, #0
    bd38:	d128      	bne.n	bd8c <_ZN10FfPipeline11DoRecordingEv+0x7bc>
    bd3a:	2101      	movs	r1, #1
    bd3c:	6079      	str	r1, [r7, #4]
    bd3e:	e027      	b.n	bd90 <_ZN10FfPipeline11DoRecordingEv+0x7c0>
    bd40:	00000000 	.word	0x00000000
    bd44:	80000000 	.word	0x80000000
    bd48:	0000088f 	.word	0x0000088f
    bd4c:	00000888 	.word	0x00000888
    bd50:	0000da9c 	.word	0x0000da9c
    bd54:	00000884 	.word	0x00000884
    bd58:	00000864 	.word	0x00000864
    bd5c:	0000090c 	.word	0x0000090c
    bd60:	00000918 	.word	0x00000918
    bd64:	0000091c 	.word	0x0000091c
    bd68:	fffffef0 	.word	0xfffffef0
    bd6c:	00000868 	.word	0x00000868
    bd70:	0000089b 	.word	0x0000089b
    bd74:	00000894 	.word	0x00000894
    bd78:	0000dadc 	.word	0x0000dadc
    bd7c:	000008a7 	.word	0x000008a7
    bd80:	0000db14 	.word	0x0000db14
    bd84:	0000089c 	.word	0x0000089c
    bd88:	000008f8 	.word	0x000008f8
    bd8c:	2200      	movs	r2, #0
    bd8e:	607a      	str	r2, [r7, #4]
    bd90:	687b      	ldr	r3, [r7, #4]
    bd92:	2b00      	cmp	r3, #0
    bd94:	d000      	beq.n	bd98 <_ZN10FfPipeline11DoRecordingEv+0x7c8>
    bd96:	e66a      	b.n	ba6e <_ZN10FfPipeline11DoRecordingEv+0x49e>

      av_free_packet(&pkt);
    }

  // Now we stopping
  sprintf(str, "DEBUG: Now we stopping Slot %d\n", Slot);
    bd98:	68fb      	ldr	r3, [r7, #12]
    bd9a:	791b      	ldrb	r3, [r3, #4]
    bd9c:	1c1c      	adds	r4, r3, #0
    bd9e:	4bd4      	ldr	r3, [pc, #848]	(c0f0 <_ZN10FfPipeline11DoRecordingEv+0xb20>)
    bda0:	4ad4      	ldr	r2, [pc, #848]	(c0f4 <_ZN10FfPipeline11DoRecordingEv+0xb24>)
    bda2:	1c18      	adds	r0, r3, #0
    bda4:	1c11      	adds	r1, r2, #0
    bda6:	1c22      	adds	r2, r4, #0
    bda8:	f7fd ef1c 	blx	9be4 <_init+0x440>
  AppendLog(str, class_name);
    bdac:	48d2      	ldr	r0, [pc, #840]	(c0f8 <_ZN10FfPipeline11DoRecordingEv+0xb28>)
    bdae:	183b      	adds	r3, r7, r0
    bdb0:	1c18      	adds	r0, r3, #0
    bdb2:	f7fd eee8 	blx	9b84 <_init+0x3e0>
    bdb6:	49d1      	ldr	r1, [pc, #836]	(c0fc <_ZN10FfPipeline11DoRecordingEv+0xb2c>)
    bdb8:	187b      	adds	r3, r7, r1
    bdba:	4acd      	ldr	r2, [pc, #820]	(c0f0 <_ZN10FfPipeline11DoRecordingEv+0xb20>)
    bdbc:	48ce      	ldr	r0, [pc, #824]	(c0f8 <_ZN10FfPipeline11DoRecordingEv+0xb28>)
    bdbe:	183c      	adds	r4, r7, r0
    bdc0:	1c18      	adds	r0, r3, #0
    bdc2:	1c11      	adds	r1, r2, #0
    bdc4:	1c22      	adds	r2, r4, #0
    bdc6:	f7fd ee36 	blx	9a34 <_init+0x290>
    bdca:	49cd      	ldr	r1, [pc, #820]	(c100 <_ZN10FfPipeline11DoRecordingEv+0xb30>)
    bdcc:	187b      	adds	r3, r7, r1
    bdce:	48cb      	ldr	r0, [pc, #812]	(c0fc <_ZN10FfPipeline11DoRecordingEv+0xb2c>)
    bdd0:	183a      	adds	r2, r7, r0
    bdd2:	218f      	movs	r1, #143
    bdd4:	0109      	lsls	r1, r1, #4
    bdd6:	19c9      	adds	r1, r1, r7
    bdd8:	680c      	ldr	r4, [r1, #0]
    bdda:	1c18      	adds	r0, r3, #0
    bddc:	1c11      	adds	r1, r2, #0
    bdde:	1c22      	adds	r2, r4, #0
    bde0:	f000 f9f8 	bl	c1d4 <_Z9AppendLogSsPKc>
    bde4:	4ac6      	ldr	r2, [pc, #792]	(c100 <_ZN10FfPipeline11DoRecordingEv+0xb30>)
    bde6:	18bb      	adds	r3, r7, r2
    bde8:	1c18      	adds	r0, r3, #0
    bdea:	f7fd edb8 	blx	995c <_init+0x1b8>
    bdee:	48c3      	ldr	r0, [pc, #780]	(c0fc <_ZN10FfPipeline11DoRecordingEv+0xb2c>)
    bdf0:	183b      	adds	r3, r7, r0
    bdf2:	1c18      	adds	r0, r3, #0
    bdf4:	f7fd edb2 	blx	995c <_init+0x1b8>
    bdf8:	49bf      	ldr	r1, [pc, #764]	(c0f8 <_ZN10FfPipeline11DoRecordingEv+0xb28>)
    bdfa:	187b      	adds	r3, r7, r1
    bdfc:	1c18      	adds	r0, r3, #0
    bdfe:	f7fd ee5c 	blx	9ab8 <_init+0x314>

  if (!IsNeedStop())
    be02:	68fb      	ldr	r3, [r7, #12]
    be04:	1c18      	adds	r0, r3, #0
    be06:	f7ff fae5 	bl	b3d4 <_ZN10FfPipeline10IsNeedStopEv>
    be0a:	1c03      	adds	r3, r0, #0
    be0c:	469c      	mov	ip, r3
    be0e:	4662      	mov	r2, ip
    be10:	2301      	movs	r3, #1
    be12:	4053      	eors	r3, r2
    be14:	061b      	lsls	r3, r3, #24
    be16:	0e1b      	lsrs	r3, r3, #24
    be18:	2b00      	cmp	r3, #0
    be1a:	d005      	beq.n	be28 <_ZN10FfPipeline11DoRecordingEv+0x858>
    av_free_packet(&pkt);
    be1c:	2281      	movs	r2, #129
    be1e:	0112      	lsls	r2, r2, #4
    be20:	18bb      	adds	r3, r7, r2
    be22:	1c18      	adds	r0, r3, #0
    be24:	f7fd ece6 	blx	97f4 <_init+0x50>

  sprintf(str, "DEBUG: Try to av_write_trailer() for Slot %d\n", Slot);
    be28:	68fb      	ldr	r3, [r7, #12]
    be2a:	791b      	ldrb	r3, [r3, #4]
    be2c:	1c1c      	adds	r4, r3, #0
    be2e:	4bb0      	ldr	r3, [pc, #704]	(c0f0 <_ZN10FfPipeline11DoRecordingEv+0xb20>)
    be30:	4ab4      	ldr	r2, [pc, #720]	(c104 <_ZN10FfPipeline11DoRecordingEv+0xb34>)
    be32:	1c18      	adds	r0, r3, #0
    be34:	1c11      	adds	r1, r2, #0
    be36:	1c22      	adds	r2, r4, #0
    be38:	f7fd eed4 	blx	9be4 <_init+0x440>
  AppendLog(str, class_name);
    be3c:	48b2      	ldr	r0, [pc, #712]	(c108 <_ZN10FfPipeline11DoRecordingEv+0xb38>)
    be3e:	183b      	adds	r3, r7, r0
    be40:	1c18      	adds	r0, r3, #0
    be42:	f7fd eea0 	blx	9b84 <_init+0x3e0>
    be46:	49b1      	ldr	r1, [pc, #708]	(c10c <_ZN10FfPipeline11DoRecordingEv+0xb3c>)
    be48:	187b      	adds	r3, r7, r1
    be4a:	4aa9      	ldr	r2, [pc, #676]	(c0f0 <_ZN10FfPipeline11DoRecordingEv+0xb20>)
    be4c:	48ae      	ldr	r0, [pc, #696]	(c108 <_ZN10FfPipeline11DoRecordingEv+0xb38>)
    be4e:	183c      	adds	r4, r7, r0
    be50:	1c18      	adds	r0, r3, #0
    be52:	1c11      	adds	r1, r2, #0
    be54:	1c22      	adds	r2, r4, #0
    be56:	f7fd edee 	blx	9a34 <_init+0x290>
    be5a:	49ad      	ldr	r1, [pc, #692]	(c110 <_ZN10FfPipeline11DoRecordingEv+0xb40>)
    be5c:	187b      	adds	r3, r7, r1
    be5e:	48ab      	ldr	r0, [pc, #684]	(c10c <_ZN10FfPipeline11DoRecordingEv+0xb3c>)
    be60:	183a      	adds	r2, r7, r0
    be62:	218f      	movs	r1, #143
    be64:	0109      	lsls	r1, r1, #4
    be66:	19c9      	adds	r1, r1, r7
    be68:	680c      	ldr	r4, [r1, #0]
    be6a:	1c18      	adds	r0, r3, #0
    be6c:	1c11      	adds	r1, r2, #0
    be6e:	1c22      	adds	r2, r4, #0
    be70:	f000 f9b0 	bl	c1d4 <_Z9AppendLogSsPKc>
    be74:	4aa6      	ldr	r2, [pc, #664]	(c110 <_ZN10FfPipeline11DoRecordingEv+0xb40>)
    be76:	18bb      	adds	r3, r7, r2
    be78:	1c18      	adds	r0, r3, #0
    be7a:	f7fd ed70 	blx	995c <_init+0x1b8>
    be7e:	48a3      	ldr	r0, [pc, #652]	(c10c <_ZN10FfPipeline11DoRecordingEv+0xb3c>)
    be80:	183b      	adds	r3, r7, r0
    be82:	1c18      	adds	r0, r3, #0
    be84:	f7fd ed6a 	blx	995c <_init+0x1b8>
    be88:	499f      	ldr	r1, [pc, #636]	(c108 <_ZN10FfPipeline11DoRecordingEv+0xb38>)
    be8a:	187b      	adds	r3, r7, r1
    be8c:	1c18      	adds	r0, r3, #0
    be8e:	f7fd ee14 	blx	9ab8 <_init+0x314>

  av_write_trailer(ofcx);
    be92:	4aa0      	ldr	r2, [pc, #640]	(c114 <_ZN10FfPipeline11DoRecordingEv+0xb44>)
    be94:	19d2      	adds	r2, r2, r7
    be96:	6813      	ldr	r3, [r2, #0]
    be98:	1c18      	adds	r0, r3, #0
    be9a:	f7fd ed90 	blx	99bc <_init+0x218>

  sprintf(str, "DEBUG: Try to close all streams codec for Slot %d\n", Slot);
    be9e:	68fb      	ldr	r3, [r7, #12]
    bea0:	791b      	ldrb	r3, [r3, #4]
    bea2:	1c1c      	adds	r4, r3, #0
    bea4:	4b92      	ldr	r3, [pc, #584]	(c0f0 <_ZN10FfPipeline11DoRecordingEv+0xb20>)
    bea6:	4a9c      	ldr	r2, [pc, #624]	(c118 <_ZN10FfPipeline11DoRecordingEv+0xb48>)
    bea8:	1c18      	adds	r0, r3, #0
    beaa:	1c11      	adds	r1, r2, #0
    beac:	1c22      	adds	r2, r4, #0
    beae:	f7fd ee9a 	blx	9be4 <_init+0x440>
  AppendLog(str, class_name);
    beb2:	489a      	ldr	r0, [pc, #616]	(c11c <_ZN10FfPipeline11DoRecordingEv+0xb4c>)
    beb4:	183b      	adds	r3, r7, r0
    beb6:	1c18      	adds	r0, r3, #0
    beb8:	f7fd ee64 	blx	9b84 <_init+0x3e0>
    bebc:	4998      	ldr	r1, [pc, #608]	(c120 <_ZN10FfPipeline11DoRecordingEv+0xb50>)
    bebe:	187b      	adds	r3, r7, r1
    bec0:	4a8b      	ldr	r2, [pc, #556]	(c0f0 <_ZN10FfPipeline11DoRecordingEv+0xb20>)
    bec2:	4896      	ldr	r0, [pc, #600]	(c11c <_ZN10FfPipeline11DoRecordingEv+0xb4c>)
    bec4:	183c      	adds	r4, r7, r0
    bec6:	1c18      	adds	r0, r3, #0
    bec8:	1c11      	adds	r1, r2, #0
    beca:	1c22      	adds	r2, r4, #0
    becc:	f7fd edb2 	blx	9a34 <_init+0x290>
    bed0:	218c      	movs	r1, #140
    bed2:	0109      	lsls	r1, r1, #4
    bed4:	187b      	adds	r3, r7, r1
    bed6:	4892      	ldr	r0, [pc, #584]	(c120 <_ZN10FfPipeline11DoRecordingEv+0xb50>)
    bed8:	183a      	adds	r2, r7, r0
    beda:	218f      	movs	r1, #143
    bedc:	0109      	lsls	r1, r1, #4
    bede:	19c9      	adds	r1, r1, r7
    bee0:	680c      	ldr	r4, [r1, #0]
    bee2:	1c18      	adds	r0, r3, #0
    bee4:	1c11      	adds	r1, r2, #0
    bee6:	1c22      	adds	r2, r4, #0
    bee8:	f000 f974 	bl	c1d4 <_Z9AppendLogSsPKc>
    beec:	228c      	movs	r2, #140
    beee:	0112      	lsls	r2, r2, #4
    bef0:	18bb      	adds	r3, r7, r2
    bef2:	1c18      	adds	r0, r3, #0
    bef4:	f7fd ed32 	blx	995c <_init+0x1b8>
    bef8:	4889      	ldr	r0, [pc, #548]	(c120 <_ZN10FfPipeline11DoRecordingEv+0xb50>)
    befa:	183b      	adds	r3, r7, r0
    befc:	1c18      	adds	r0, r3, #0
    befe:	f7fd ed2e 	blx	995c <_init+0x1b8>
    bf02:	4986      	ldr	r1, [pc, #536]	(c11c <_ZN10FfPipeline11DoRecordingEv+0xb4c>)
    bf04:	187b      	adds	r3, r7, r1
    bf06:	1c18      	adds	r0, r3, #0
    bf08:	f7fd edd6 	blx	9ab8 <_init+0x314>

  for (i = 0; i < ofcx->nb_streams; i++)
    bf0c:	2300      	movs	r3, #0
    bf0e:	4a85      	ldr	r2, [pc, #532]	(c124 <_ZN10FfPipeline11DoRecordingEv+0xb54>)
    bf10:	19d2      	adds	r2, r2, r7
    bf12:	6013      	str	r3, [r2, #0]
    bf14:	e021      	b.n	bf5a <_ZN10FfPipeline11DoRecordingEv+0x98a>
    {
      avcodec_close(ofcx->streams[i]->codec);
    bf16:	487f      	ldr	r0, [pc, #508]	(c114 <_ZN10FfPipeline11DoRecordingEv+0xb44>)
    bf18:	19c0      	adds	r0, r0, r7
    bf1a:	6803      	ldr	r3, [r0, #0]
    bf1c:	69da      	ldr	r2, [r3, #28]
    bf1e:	4981      	ldr	r1, [pc, #516]	(c124 <_ZN10FfPipeline11DoRecordingEv+0xb54>)
    bf20:	19c9      	adds	r1, r1, r7
    bf22:	680b      	ldr	r3, [r1, #0]
    bf24:	009b      	lsls	r3, r3, #2
    bf26:	18d3      	adds	r3, r2, r3
    bf28:	681b      	ldr	r3, [r3, #0]
    bf2a:	689b      	ldr	r3, [r3, #8]
    bf2c:	1c18      	adds	r0, r3, #0
    bf2e:	f7fd ec86 	blx	983c <_init+0x98>
      av_freep(ofcx->streams[i]);
    bf32:	4a78      	ldr	r2, [pc, #480]	(c114 <_ZN10FfPipeline11DoRecordingEv+0xb44>)
    bf34:	19d2      	adds	r2, r2, r7
    bf36:	6813      	ldr	r3, [r2, #0]
    bf38:	69da      	ldr	r2, [r3, #28]
    bf3a:	487a      	ldr	r0, [pc, #488]	(c124 <_ZN10FfPipeline11DoRecordingEv+0xb54>)
    bf3c:	19c0      	adds	r0, r0, r7
    bf3e:	6803      	ldr	r3, [r0, #0]
    bf40:	009b      	lsls	r3, r3, #2
    bf42:	18d3      	adds	r3, r2, r3
    bf44:	681b      	ldr	r3, [r3, #0]
    bf46:	1c18      	adds	r0, r3, #0
    bf48:	f7fd ec7e 	blx	9848 <_init+0xa4>
  av_write_trailer(ofcx);

  sprintf(str, "DEBUG: Try to close all streams codec for Slot %d\n", Slot);
  AppendLog(str, class_name);

  for (i = 0; i < ofcx->nb_streams; i++)
    bf4c:	4975      	ldr	r1, [pc, #468]	(c124 <_ZN10FfPipeline11DoRecordingEv+0xb54>)
    bf4e:	19c9      	adds	r1, r1, r7
    bf50:	680b      	ldr	r3, [r1, #0]
    bf52:	3301      	adds	r3, #1
    bf54:	4a73      	ldr	r2, [pc, #460]	(c124 <_ZN10FfPipeline11DoRecordingEv+0xb54>)
    bf56:	19d2      	adds	r2, r2, r7
    bf58:	6013      	str	r3, [r2, #0]
    bf5a:	486e      	ldr	r0, [pc, #440]	(c114 <_ZN10FfPipeline11DoRecordingEv+0xb44>)
    bf5c:	19c0      	adds	r0, r0, r7
    bf5e:	6803      	ldr	r3, [r0, #0]
    bf60:	699a      	ldr	r2, [r3, #24]
    bf62:	4970      	ldr	r1, [pc, #448]	(c124 <_ZN10FfPipeline11DoRecordingEv+0xb54>)
    bf64:	19c9      	adds	r1, r1, r7
    bf66:	680b      	ldr	r3, [r1, #0]
    bf68:	429a      	cmp	r2, r3
    bf6a:	d8d4      	bhi.n	bf16 <_ZN10FfPipeline11DoRecordingEv+0x946>
    {
      avcodec_close(ofcx->streams[i]->codec);
      av_freep(ofcx->streams[i]);
    }

  sprintf(str, "DEBUG: Try to avio_close() for Slot %d\n", Slot);
    bf6c:	68fb      	ldr	r3, [r7, #12]
    bf6e:	791b      	ldrb	r3, [r3, #4]
    bf70:	1c1c      	adds	r4, r3, #0
    bf72:	4b5f      	ldr	r3, [pc, #380]	(c0f0 <_ZN10FfPipeline11DoRecordingEv+0xb20>)
    bf74:	4a6c      	ldr	r2, [pc, #432]	(c128 <_ZN10FfPipeline11DoRecordingEv+0xb58>)
    bf76:	1c18      	adds	r0, r3, #0
    bf78:	1c11      	adds	r1, r2, #0
    bf7a:	1c22      	adds	r2, r4, #0
    bf7c:	f7fd ee32 	blx	9be4 <_init+0x440>
  AppendLog(str, class_name);
    bf80:	4a6a      	ldr	r2, [pc, #424]	(c12c <_ZN10FfPipeline11DoRecordingEv+0xb5c>)
    bf82:	18bb      	adds	r3, r7, r2
    bf84:	1c18      	adds	r0, r3, #0
    bf86:	f7fd edfe 	blx	9b84 <_init+0x3e0>
    bf8a:	208d      	movs	r0, #141
    bf8c:	0100      	lsls	r0, r0, #4
    bf8e:	183b      	adds	r3, r7, r0
    bf90:	4a57      	ldr	r2, [pc, #348]	(c0f0 <_ZN10FfPipeline11DoRecordingEv+0xb20>)
    bf92:	4966      	ldr	r1, [pc, #408]	(c12c <_ZN10FfPipeline11DoRecordingEv+0xb5c>)
    bf94:	187c      	adds	r4, r7, r1
    bf96:	1c18      	adds	r0, r3, #0
    bf98:	1c11      	adds	r1, r2, #0
    bf9a:	1c22      	adds	r2, r4, #0
    bf9c:	f7fd ed4a 	blx	9a34 <_init+0x290>
    bfa0:	4a63      	ldr	r2, [pc, #396]	(c130 <_ZN10FfPipeline11DoRecordingEv+0xb60>)
    bfa2:	18bb      	adds	r3, r7, r2
    bfa4:	208d      	movs	r0, #141
    bfa6:	0100      	lsls	r0, r0, #4
    bfa8:	183a      	adds	r2, r7, r0
    bfaa:	218f      	movs	r1, #143
    bfac:	0109      	lsls	r1, r1, #4
    bfae:	19c9      	adds	r1, r1, r7
    bfb0:	680c      	ldr	r4, [r1, #0]
    bfb2:	1c18      	adds	r0, r3, #0
    bfb4:	1c11      	adds	r1, r2, #0
    bfb6:	1c22      	adds	r2, r4, #0
    bfb8:	f000 f90c 	bl	c1d4 <_Z9AppendLogSsPKc>
    bfbc:	4a5c      	ldr	r2, [pc, #368]	(c130 <_ZN10FfPipeline11DoRecordingEv+0xb60>)
    bfbe:	18bb      	adds	r3, r7, r2
    bfc0:	1c18      	adds	r0, r3, #0
    bfc2:	f7fd eccc 	blx	995c <_init+0x1b8>
    bfc6:	208d      	movs	r0, #141
    bfc8:	0100      	lsls	r0, r0, #4
    bfca:	183b      	adds	r3, r7, r0
    bfcc:	1c18      	adds	r0, r3, #0
    bfce:	f7fd ecc6 	blx	995c <_init+0x1b8>
    bfd2:	4956      	ldr	r1, [pc, #344]	(c12c <_ZN10FfPipeline11DoRecordingEv+0xb5c>)
    bfd4:	187b      	adds	r3, r7, r1
    bfd6:	1c18      	adds	r0, r3, #0
    bfd8:	f7fd ed6e 	blx	9ab8 <_init+0x314>

  avio_close(ofcx->pb);
    bfdc:	4a4d      	ldr	r2, [pc, #308]	(c114 <_ZN10FfPipeline11DoRecordingEv+0xb44>)
    bfde:	19d2      	adds	r2, r2, r7
    bfe0:	6813      	ldr	r3, [r2, #0]
    bfe2:	691b      	ldr	r3, [r3, #16]
    bfe4:	1c18      	adds	r0, r3, #0
    bfe6:	f7fd ecb4 	blx	9950 <_init+0x1ac>

  sprintf(str, "DEBUG: Try to av_free() for Slot %d\n", Slot);
    bfea:	68fb      	ldr	r3, [r7, #12]
    bfec:	791b      	ldrb	r3, [r3, #4]
    bfee:	1c1c      	adds	r4, r3, #0
    bff0:	4b3f      	ldr	r3, [pc, #252]	(c0f0 <_ZN10FfPipeline11DoRecordingEv+0xb20>)
    bff2:	4a50      	ldr	r2, [pc, #320]	(c134 <_ZN10FfPipeline11DoRecordingEv+0xb64>)
    bff4:	1c18      	adds	r0, r3, #0
    bff6:	1c11      	adds	r1, r2, #0
    bff8:	1c22      	adds	r2, r4, #0
    bffa:	f7fd edf4 	blx	9be4 <_init+0x440>
  AppendLog(str, class_name);
    bffe:	484e      	ldr	r0, [pc, #312]	(c138 <_ZN10FfPipeline11DoRecordingEv+0xb68>)
    c000:	183b      	adds	r3, r7, r0
    c002:	1c18      	adds	r0, r3, #0
    c004:	f7fd edbe 	blx	9b84 <_init+0x3e0>
    c008:	494c      	ldr	r1, [pc, #304]	(c13c <_ZN10FfPipeline11DoRecordingEv+0xb6c>)
    c00a:	187b      	adds	r3, r7, r1
    c00c:	4a38      	ldr	r2, [pc, #224]	(c0f0 <_ZN10FfPipeline11DoRecordingEv+0xb20>)
    c00e:	484a      	ldr	r0, [pc, #296]	(c138 <_ZN10FfPipeline11DoRecordingEv+0xb68>)
    c010:	183c      	adds	r4, r7, r0
    c012:	1c18      	adds	r0, r3, #0
    c014:	1c11      	adds	r1, r2, #0
    c016:	1c22      	adds	r2, r4, #0
    c018:	f7fd ed0c 	blx	9a34 <_init+0x290>
    c01c:	4948      	ldr	r1, [pc, #288]	(c140 <_ZN10FfPipeline11DoRecordingEv+0xb70>)
    c01e:	187b      	adds	r3, r7, r1
    c020:	4846      	ldr	r0, [pc, #280]	(c13c <_ZN10FfPipeline11DoRecordingEv+0xb6c>)
    c022:	183a      	adds	r2, r7, r0
    c024:	218f      	movs	r1, #143
    c026:	0109      	lsls	r1, r1, #4
    c028:	19c9      	adds	r1, r1, r7
    c02a:	680c      	ldr	r4, [r1, #0]
    c02c:	1c18      	adds	r0, r3, #0
    c02e:	1c11      	adds	r1, r2, #0
    c030:	1c22      	adds	r2, r4, #0
    c032:	f000 f8cf 	bl	c1d4 <_Z9AppendLogSsPKc>
    c036:	4a42      	ldr	r2, [pc, #264]	(c140 <_ZN10FfPipeline11DoRecordingEv+0xb70>)
    c038:	18bb      	adds	r3, r7, r2
    c03a:	1c18      	adds	r0, r3, #0
    c03c:	f7fd ec8e 	blx	995c <_init+0x1b8>
    c040:	483e      	ldr	r0, [pc, #248]	(c13c <_ZN10FfPipeline11DoRecordingEv+0xb6c>)
    c042:	183b      	adds	r3, r7, r0
    c044:	1c18      	adds	r0, r3, #0
    c046:	f7fd ec8a 	blx	995c <_init+0x1b8>
    c04a:	493b      	ldr	r1, [pc, #236]	(c138 <_ZN10FfPipeline11DoRecordingEv+0xb68>)
    c04c:	187b      	adds	r3, r7, r1
    c04e:	1c18      	adds	r0, r3, #0
    c050:	f7fd ed32 	blx	9ab8 <_init+0x314>

  av_free(ofcx);
    c054:	4a2f      	ldr	r2, [pc, #188]	(c114 <_ZN10FfPipeline11DoRecordingEv+0xb44>)
    c056:	19d2      	adds	r2, r2, r7
    c058:	6813      	ldr	r3, [r2, #0]
    c05a:	1c18      	adds	r0, r3, #0
    c05c:	f7fd ebb8 	blx	97d0 <_init+0x2c>

  sprintf(str, "DEBUG: Try to avformat_close_input() for Slot %d\n", Slot);
    c060:	68fb      	ldr	r3, [r7, #12]
    c062:	791b      	ldrb	r3, [r3, #4]
    c064:	1c1c      	adds	r4, r3, #0
    c066:	4b22      	ldr	r3, [pc, #136]	(c0f0 <_ZN10FfPipeline11DoRecordingEv+0xb20>)
    c068:	4a36      	ldr	r2, [pc, #216]	(c144 <_ZN10FfPipeline11DoRecordingEv+0xb74>)
    c06a:	1c18      	adds	r0, r3, #0
    c06c:	1c11      	adds	r1, r2, #0
    c06e:	1c22      	adds	r2, r4, #0
    c070:	f7fd edb8 	blx	9be4 <_init+0x440>
  AppendLog(str, class_name);
    c074:	4834      	ldr	r0, [pc, #208]	(c148 <_ZN10FfPipeline11DoRecordingEv+0xb78>)
    c076:	183b      	adds	r3, r7, r0
    c078:	1c18      	adds	r0, r3, #0
    c07a:	f7fd ed84 	blx	9b84 <_init+0x3e0>
    c07e:	4933      	ldr	r1, [pc, #204]	(c14c <_ZN10FfPipeline11DoRecordingEv+0xb7c>)
    c080:	187b      	adds	r3, r7, r1
    c082:	4a1b      	ldr	r2, [pc, #108]	(c0f0 <_ZN10FfPipeline11DoRecordingEv+0xb20>)
    c084:	4830      	ldr	r0, [pc, #192]	(c148 <_ZN10FfPipeline11DoRecordingEv+0xb78>)
    c086:	183c      	adds	r4, r7, r0
    c088:	1c18      	adds	r0, r3, #0
    c08a:	1c11      	adds	r1, r2, #0
    c08c:	1c22      	adds	r2, r4, #0
    c08e:	f7fd ecd2 	blx	9a34 <_init+0x290>
    c092:	492f      	ldr	r1, [pc, #188]	(c150 <_ZN10FfPipeline11DoRecordingEv+0xb80>)
    c094:	187b      	adds	r3, r7, r1
    c096:	482d      	ldr	r0, [pc, #180]	(c14c <_ZN10FfPipeline11DoRecordingEv+0xb7c>)
    c098:	183a      	adds	r2, r7, r0
    c09a:	218f      	movs	r1, #143
    c09c:	0109      	lsls	r1, r1, #4
    c09e:	19c9      	adds	r1, r1, r7
    c0a0:	680c      	ldr	r4, [r1, #0]
    c0a2:	1c18      	adds	r0, r3, #0
    c0a4:	1c11      	adds	r1, r2, #0
    c0a6:	1c22      	adds	r2, r4, #0
    c0a8:	f000 f894 	bl	c1d4 <_Z9AppendLogSsPKc>
    c0ac:	4a28      	ldr	r2, [pc, #160]	(c150 <_ZN10FfPipeline11DoRecordingEv+0xb80>)
    c0ae:	18bb      	adds	r3, r7, r2
    c0b0:	1c18      	adds	r0, r3, #0
    c0b2:	f7fd ec54 	blx	995c <_init+0x1b8>
    c0b6:	4825      	ldr	r0, [pc, #148]	(c14c <_ZN10FfPipeline11DoRecordingEv+0xb7c>)
    c0b8:	183b      	adds	r3, r7, r0
    c0ba:	1c18      	adds	r0, r3, #0
    c0bc:	f7fd ec4e 	blx	995c <_init+0x1b8>
    c0c0:	4921      	ldr	r1, [pc, #132]	(c148 <_ZN10FfPipeline11DoRecordingEv+0xb78>)
    c0c2:	187b      	adds	r3, r7, r1
    c0c4:	1c18      	adds	r0, r3, #0
    c0c6:	f7fd ecf8 	blx	9ab8 <_init+0x314>

  avformat_close_input(&ifcx);
    c0ca:	4a22      	ldr	r2, [pc, #136]	(c154 <_ZN10FfPipeline11DoRecordingEv+0xb84>)
    c0cc:	18bb      	adds	r3, r7, r2
    c0ce:	1c18      	adds	r0, r3, #0
    c0d0:	f7fd ed52 	blx	9b78 <_init+0x3d4>

  SetRecState(REC_STOPPED);
    c0d4:	68fb      	ldr	r3, [r7, #12]
    c0d6:	1c18      	adds	r0, r3, #0
    c0d8:	2102      	movs	r1, #2
    c0da:	f7fe feed 	bl	aeb8 <_ZN10FfPipeline11SetRecStateE14RecordingState>

  return 0;
    c0de:	2300      	movs	r3, #0
    c0e0:	603b      	str	r3, [r7, #0]
    c0e2:	683b      	ldr	r3, [r7, #0]
}
    c0e4:	1c18      	adds	r0, r3, #0
    c0e6:	46bd      	mov	sp, r7
    c0e8:	2392      	movs	r3, #146
    c0ea:	011b      	lsls	r3, r3, #4
    c0ec:	449d      	add	sp, r3
    c0ee:	bdb0      	pop	{r4, r5, r7, pc}
    c0f0:	00016780 	.word	0x00016780
    c0f4:	0000db4c 	.word	0x0000db4c
    c0f8:	000008b3 	.word	0x000008b3
    c0fc:	000008ac 	.word	0x000008ac
    c100:	000008a8 	.word	0x000008a8
    c104:	0000db6c 	.word	0x0000db6c
    c108:	000008bf 	.word	0x000008bf
    c10c:	000008b8 	.word	0x000008b8
    c110:	000008b4 	.word	0x000008b4
    c114:	00000864 	.word	0x00000864
    c118:	0000db9c 	.word	0x0000db9c
    c11c:	000008cb 	.word	0x000008cb
    c120:	000008c4 	.word	0x000008c4
    c124:	00000908 	.word	0x00000908
    c128:	0000dbd0 	.word	0x0000dbd0
    c12c:	000008d7 	.word	0x000008d7
    c130:	000008cc 	.word	0x000008cc
    c134:	0000dbf8 	.word	0x0000dbf8
    c138:	000008e3 	.word	0x000008e3
    c13c:	000008dc 	.word	0x000008dc
    c140:	000008d8 	.word	0x000008d8
    c144:	0000dc20 	.word	0x0000dc20
    c148:	000008ef 	.word	0x000008ef
    c14c:	000008e8 	.word	0x000008e8
    c150:	000008e4 	.word	0x000008e4
    c154:	00000868 	.word	0x00000868

0000c158 <_ZN10FfPipeline11ThRecordingEPv>:
  AppendLog(str, class_name);

  return 0;
}

void *FfPipeline::ThRecording(void *pdata)
    c158:	b580      	push	{r7, lr}
    c15a:	b084      	sub	sp, #16
    c15c:	af00      	add	r7, sp, #0
    c15e:	6078      	str	r0, [r7, #4]
{
  FfPipeline *Pip = (FfPipeline *) pdata;
    c160:	687b      	ldr	r3, [r7, #4]
    c162:	60fb      	str	r3, [r7, #12]

  Pip->DoRecording();
    c164:	68fb      	ldr	r3, [r7, #12]
    c166:	1c18      	adds	r0, r3, #0
    c168:	f7ff fa32 	bl	b5d0 <_ZN10FfPipeline11DoRecordingEv>

  return pdata;
    c16c:	687b      	ldr	r3, [r7, #4]
}
    c16e:	1c18      	adds	r0, r3, #0
    c170:	46bd      	mov	sp, r7
    c172:	b004      	add	sp, #16
    c174:	bd80      	pop	{r7, pc}
    c176:	46c0      	nop			(mov r8, r8)

0000c178 <_Z41__static_initialization_and_destruction_0ii>:
  if (level <= PRINT_LEVEL)
    {
      std::printf("%s", print_str.c_str());
    }
  return txt;
}
    c178:	b580      	push	{r7, lr}
    c17a:	b082      	sub	sp, #8
    c17c:	af00      	add	r7, sp, #0
    c17e:	6078      	str	r0, [r7, #4]
    c180:	6039      	str	r1, [r7, #0]
    c182:	687b      	ldr	r3, [r7, #4]
    c184:	2b01      	cmp	r3, #1
    c186:	d10d      	bne.n	c1a4 <_Z41__static_initialization_and_destruction_0ii+0x2c>
    c188:	683a      	ldr	r2, [r7, #0]
    c18a:	4b08      	ldr	r3, [pc, #32]	(c1ac <_Z41__static_initialization_and_destruction_0ii+0x34>)
    c18c:	429a      	cmp	r2, r3
    c18e:	d109      	bne.n	c1a4 <_Z41__static_initialization_and_destruction_0ii+0x2c>
    c190:	4b07      	ldr	r3, [pc, #28]	(c1b0 <_Z41__static_initialization_and_destruction_0ii+0x38>)
    c192:	1c18      	adds	r0, r3, #0
    c194:	f7fd eba0 	blx	98d8 <_init+0x134>
    c198:	4906      	ldr	r1, [pc, #24]	(c1b4 <_Z41__static_initialization_and_destruction_0ii+0x3c>)
    c19a:	4b05      	ldr	r3, [pc, #20]	(c1b0 <_Z41__static_initialization_and_destruction_0ii+0x38>)
    c19c:	4a06      	ldr	r2, [pc, #24]	(c1b8 <_Z41__static_initialization_and_destruction_0ii+0x40>)
    c19e:	1c18      	adds	r0, r3, #0
    c1a0:	f7fd ec96 	blx	9ad0 <_init+0x32c>
    c1a4:	46bd      	mov	sp, r7
    c1a6:	b002      	add	sp, #8
    c1a8:	bd80      	pop	{r7, pc}
    c1aa:	46c0      	nop			(mov r8, r8)
    c1ac:	0000ffff 	.word	0x0000ffff
    c1b0:	00016763 	.word	0x00016763
    c1b4:	00009938 	.word	0x00009938
    c1b8:	00016718 	.word	0x00016718

0000c1bc <_GLOBAL__I__Z9AppendLogSsPKc>:
    c1bc:	b580      	push	{r7, lr}
    c1be:	af00      	add	r7, sp, #0
    c1c0:	4b03      	ldr	r3, [pc, #12]	(c1d0 <_GLOBAL__I__Z9AppendLogSsPKc+0x14>)
    c1c2:	2001      	movs	r0, #1
    c1c4:	1c19      	adds	r1, r3, #0
    c1c6:	f7ff ffd7 	bl	c178 <_Z41__static_initialization_and_destruction_0ii>
    c1ca:	46bd      	mov	sp, r7
    c1cc:	bd80      	pop	{r7, pc}
    c1ce:	46c0      	nop			(mov r8, r8)
    c1d0:	0000ffff 	.word	0x0000ffff

0000c1d4 <_Z9AppendLogSsPKc>:
{
	return "";
}
*/

string AppendLog(string txt, const char *module)
    c1d4:	b5b0      	push	{r4, r5, r7, lr}
    c1d6:	b098      	sub	sp, #96
    c1d8:	af00      	add	r7, sp, #0
    c1da:	6278      	str	r0, [r7, #36]
    c1dc:	62f9      	str	r1, [r7, #44]
    c1de:	62ba      	str	r2, [r7, #40]
{
  size_t level = 0;
    c1e0:	2300      	movs	r3, #0
    c1e2:	65fb      	str	r3, [r7, #92]
  string print_str = string("<") + string(module) + string("> ") + txt;
    c1e4:	1c3b      	adds	r3, r7, #0
    c1e6:	3343      	adds	r3, #67
    c1e8:	1c18      	adds	r0, r3, #0
    c1ea:	f7fd eccc 	blx	9b84 <_init+0x3e0>
    c1ee:	1c3b      	adds	r3, r7, #0
    c1f0:	333c      	adds	r3, #60
    c1f2:	4aab      	ldr	r2, [pc, #684]	(c4a0 <_Z9AppendLogSsPKc+0x2cc>)
    c1f4:	1c3c      	adds	r4, r7, #0
    c1f6:	3443      	adds	r4, #67
    c1f8:	1c18      	adds	r0, r3, #0
    c1fa:	1c11      	adds	r1, r2, #0
    c1fc:	1c22      	adds	r2, r4, #0
    c1fe:	f7fd ec1a 	blx	9a34 <_init+0x290>
    c202:	1c3b      	adds	r3, r7, #0
    c204:	334b      	adds	r3, #75
    c206:	1c18      	adds	r0, r3, #0
    c208:	f7fd ecbc 	blx	9b84 <_init+0x3e0>
    c20c:	1c3b      	adds	r3, r7, #0
    c20e:	3344      	adds	r3, #68
    c210:	6aba      	ldr	r2, [r7, #40]
    c212:	1c3c      	adds	r4, r7, #0
    c214:	344b      	adds	r4, #75
    c216:	1c18      	adds	r0, r3, #0
    c218:	1c11      	adds	r1, r2, #0
    c21a:	1c22      	adds	r2, r4, #0
    c21c:	f7fd ec0a 	blx	9a34 <_init+0x290>
    c220:	1c3b      	adds	r3, r7, #0
    c222:	3338      	adds	r3, #56
    c224:	1c3a      	adds	r2, r7, #0
    c226:	323c      	adds	r2, #60
    c228:	1c3c      	adds	r4, r7, #0
    c22a:	3444      	adds	r4, #68
    c22c:	1c18      	adds	r0, r3, #0
    c22e:	1c11      	adds	r1, r2, #0
    c230:	1c22      	adds	r2, r4, #0
    c232:	f000 f951 	bl	c4d8 <_ZStplIcSt11char_traitsIcESaIcEESbIT_T0_T1_ERKS6_S8_>
    c236:	1c3b      	adds	r3, r7, #0
    c238:	3352      	adds	r3, #82
    c23a:	1c18      	adds	r0, r3, #0
    c23c:	f7fd eca2 	blx	9b84 <_init+0x3e0>
    c240:	1c3b      	adds	r3, r7, #0
    c242:	334c      	adds	r3, #76
    c244:	4a97      	ldr	r2, [pc, #604]	(c4a4 <_Z9AppendLogSsPKc+0x2d0>)
    c246:	1c3c      	adds	r4, r7, #0
    c248:	3452      	adds	r4, #82
    c24a:	1c18      	adds	r0, r3, #0
    c24c:	1c11      	adds	r1, r2, #0
    c24e:	1c22      	adds	r2, r4, #0
    c250:	f7fd ebf0 	blx	9a34 <_init+0x290>
    c254:	1c3b      	adds	r3, r7, #0
    c256:	3334      	adds	r3, #52
    c258:	1c3a      	adds	r2, r7, #0
    c25a:	3238      	adds	r2, #56
    c25c:	1c3c      	adds	r4, r7, #0
    c25e:	344c      	adds	r4, #76
    c260:	1c18      	adds	r0, r3, #0
    c262:	1c11      	adds	r1, r2, #0
    c264:	1c22      	adds	r2, r4, #0
    c266:	f000 f937 	bl	c4d8 <_ZStplIcSt11char_traitsIcESaIcEESbIT_T0_T1_ERKS6_S8_>
    c26a:	1c3b      	adds	r3, r7, #0
    c26c:	3330      	adds	r3, #48
    c26e:	1c3a      	adds	r2, r7, #0
    c270:	3234      	adds	r2, #52
    c272:	6afc      	ldr	r4, [r7, #44]
    c274:	1c18      	adds	r0, r3, #0
    c276:	1c11      	adds	r1, r2, #0
    c278:	1c22      	adds	r2, r4, #0
    c27a:	f000 f92d 	bl	c4d8 <_ZStplIcSt11char_traitsIcESaIcEESbIT_T0_T1_ERKS6_S8_>
    c27e:	1c3b      	adds	r3, r7, #0
    c280:	3334      	adds	r3, #52
    c282:	1c18      	adds	r0, r3, #0
    c284:	f7fd eb6a 	blx	995c <_init+0x1b8>
    c288:	1c3b      	adds	r3, r7, #0
    c28a:	334c      	adds	r3, #76
    c28c:	1c18      	adds	r0, r3, #0
    c28e:	f7fd eb66 	blx	995c <_init+0x1b8>
    c292:	1c3b      	adds	r3, r7, #0
    c294:	3352      	adds	r3, #82
    c296:	1c18      	adds	r0, r3, #0
    c298:	f7fd ec0e 	blx	9ab8 <_init+0x314>
    c29c:	1c3b      	adds	r3, r7, #0
    c29e:	3338      	adds	r3, #56
    c2a0:	1c18      	adds	r0, r3, #0
    c2a2:	f7fd eb5c 	blx	995c <_init+0x1b8>
    c2a6:	1c3b      	adds	r3, r7, #0
    c2a8:	3344      	adds	r3, #68
    c2aa:	1c18      	adds	r0, r3, #0
    c2ac:	f7fd eb56 	blx	995c <_init+0x1b8>
    c2b0:	1c3b      	adds	r3, r7, #0
    c2b2:	334b      	adds	r3, #75
    c2b4:	1c18      	adds	r0, r3, #0
    c2b6:	f7fd ec00 	blx	9ab8 <_init+0x314>
    c2ba:	1c3b      	adds	r3, r7, #0
    c2bc:	333c      	adds	r3, #60
    c2be:	1c18      	adds	r0, r3, #0
    c2c0:	f7fd eb4c 	blx	995c <_init+0x1b8>
    c2c4:	1c3b      	adds	r3, r7, #0
    c2c6:	3343      	adds	r3, #67
    c2c8:	1c18      	adds	r0, r3, #0
    c2ca:	f7fd ebf6 	blx	9ab8 <_init+0x314>


  if (txt.find("EMERGENCY") != string::npos)
    c2ce:	6afb      	ldr	r3, [r7, #44]
    c2d0:	4a75      	ldr	r2, [pc, #468]	(c4a8 <_Z9AppendLogSsPKc+0x2d4>)
    c2d2:	1c18      	adds	r0, r3, #0
    c2d4:	1c11      	adds	r1, r2, #0
    c2d6:	2200      	movs	r2, #0
    c2d8:	f7fd eb34 	blx	9944 <_init+0x1a0>
    c2dc:	1c03      	adds	r3, r0, #0
    c2de:	3301      	adds	r3, #1
    c2e0:	1e5a      	subs	r2, r3, #1
    c2e2:	4193      	sbcs	r3, r2
    c2e4:	061b      	lsls	r3, r3, #24
    c2e6:	0e1b      	lsrs	r3, r3, #24
    c2e8:	2b00      	cmp	r3, #0
    c2ea:	d002      	beq.n	c2f2 <_Z9AppendLogSsPKc+0x11e>
    level = 0;
    c2ec:	2300      	movs	r3, #0
    c2ee:	65fb      	str	r3, [r7, #92]
    c2f0:	e07f      	b.n	c3f2 <_Z9AppendLogSsPKc+0x21e>
  else if (txt.find("ALERT") != string::npos)
    c2f2:	6afb      	ldr	r3, [r7, #44]
    c2f4:	4a6d      	ldr	r2, [pc, #436]	(c4ac <_Z9AppendLogSsPKc+0x2d8>)
    c2f6:	1c18      	adds	r0, r3, #0
    c2f8:	1c11      	adds	r1, r2, #0
    c2fa:	2200      	movs	r2, #0
    c2fc:	f7fd eb22 	blx	9944 <_init+0x1a0>
    c300:	1c03      	adds	r3, r0, #0
    c302:	3301      	adds	r3, #1
    c304:	1e5a      	subs	r2, r3, #1
    c306:	4193      	sbcs	r3, r2
    c308:	061b      	lsls	r3, r3, #24
    c30a:	0e1b      	lsrs	r3, r3, #24
    c30c:	2b00      	cmp	r3, #0
    c30e:	d002      	beq.n	c316 <_Z9AppendLogSsPKc+0x142>
    level = 1;
    c310:	2301      	movs	r3, #1
    c312:	65fb      	str	r3, [r7, #92]
    c314:	e06d      	b.n	c3f2 <_Z9AppendLogSsPKc+0x21e>
  else if (txt.find("CRITICAL") != string::npos)
    c316:	6afb      	ldr	r3, [r7, #44]
    c318:	4a65      	ldr	r2, [pc, #404]	(c4b0 <_Z9AppendLogSsPKc+0x2dc>)
    c31a:	1c18      	adds	r0, r3, #0
    c31c:	1c11      	adds	r1, r2, #0
    c31e:	2200      	movs	r2, #0
    c320:	f7fd eb10 	blx	9944 <_init+0x1a0>
    c324:	1c03      	adds	r3, r0, #0
    c326:	3301      	adds	r3, #1
    c328:	1e5a      	subs	r2, r3, #1
    c32a:	4193      	sbcs	r3, r2
    c32c:	061b      	lsls	r3, r3, #24
    c32e:	0e1b      	lsrs	r3, r3, #24
    c330:	2b00      	cmp	r3, #0
    c332:	d002      	beq.n	c33a <_Z9AppendLogSsPKc+0x166>
    level = 2;
    c334:	2302      	movs	r3, #2
    c336:	65fb      	str	r3, [r7, #92]
    c338:	e05b      	b.n	c3f2 <_Z9AppendLogSsPKc+0x21e>
  else if (txt.find("ERROR") != string::npos)
    c33a:	6afb      	ldr	r3, [r7, #44]
    c33c:	4a5d      	ldr	r2, [pc, #372]	(c4b4 <_Z9AppendLogSsPKc+0x2e0>)
    c33e:	1c18      	adds	r0, r3, #0
    c340:	1c11      	adds	r1, r2, #0
    c342:	2200      	movs	r2, #0
    c344:	f7fd eafe 	blx	9944 <_init+0x1a0>
    c348:	1c03      	adds	r3, r0, #0
    c34a:	3301      	adds	r3, #1
    c34c:	1e5a      	subs	r2, r3, #1
    c34e:	4193      	sbcs	r3, r2
    c350:	061b      	lsls	r3, r3, #24
    c352:	0e1b      	lsrs	r3, r3, #24
    c354:	2b00      	cmp	r3, #0
    c356:	d002      	beq.n	c35e <_Z9AppendLogSsPKc+0x18a>
    level = 3;
    c358:	2303      	movs	r3, #3
    c35a:	65fb      	str	r3, [r7, #92]
    c35c:	e049      	b.n	c3f2 <_Z9AppendLogSsPKc+0x21e>
  else if (txt.find("WARNING") != string::npos)
    c35e:	6afb      	ldr	r3, [r7, #44]
    c360:	4a55      	ldr	r2, [pc, #340]	(c4b8 <_Z9AppendLogSsPKc+0x2e4>)
    c362:	1c18      	adds	r0, r3, #0
    c364:	1c11      	adds	r1, r2, #0
    c366:	2200      	movs	r2, #0
    c368:	f7fd eaec 	blx	9944 <_init+0x1a0>
    c36c:	1c03      	adds	r3, r0, #0
    c36e:	3301      	adds	r3, #1
    c370:	1e5a      	subs	r2, r3, #1
    c372:	4193      	sbcs	r3, r2
    c374:	061b      	lsls	r3, r3, #24
    c376:	0e1b      	lsrs	r3, r3, #24
    c378:	2b00      	cmp	r3, #0
    c37a:	d002      	beq.n	c382 <_Z9AppendLogSsPKc+0x1ae>
    level = 4;
    c37c:	2304      	movs	r3, #4
    c37e:	65fb      	str	r3, [r7, #92]
    c380:	e037      	b.n	c3f2 <_Z9AppendLogSsPKc+0x21e>
  else if (txt.find("NOTICE") != string::npos)
    c382:	6afb      	ldr	r3, [r7, #44]
    c384:	4a4d      	ldr	r2, [pc, #308]	(c4bc <_Z9AppendLogSsPKc+0x2e8>)
    c386:	1c18      	adds	r0, r3, #0
    c388:	1c11      	adds	r1, r2, #0
    c38a:	2200      	movs	r2, #0
    c38c:	f7fd eada 	blx	9944 <_init+0x1a0>
    c390:	1c03      	adds	r3, r0, #0
    c392:	3301      	adds	r3, #1
    c394:	1e5a      	subs	r2, r3, #1
    c396:	4193      	sbcs	r3, r2
    c398:	061b      	lsls	r3, r3, #24
    c39a:	0e1b      	lsrs	r3, r3, #24
    c39c:	2b00      	cmp	r3, #0
    c39e:	d002      	beq.n	c3a6 <_Z9AppendLogSsPKc+0x1d2>
    level = 5;
    c3a0:	2305      	movs	r3, #5
    c3a2:	65fb      	str	r3, [r7, #92]
    c3a4:	e025      	b.n	c3f2 <_Z9AppendLogSsPKc+0x21e>
  else if (txt.find("INFO") != string::npos)
    c3a6:	6afb      	ldr	r3, [r7, #44]
    c3a8:	4a45      	ldr	r2, [pc, #276]	(c4c0 <_Z9AppendLogSsPKc+0x2ec>)
    c3aa:	1c18      	adds	r0, r3, #0
    c3ac:	1c11      	adds	r1, r2, #0
    c3ae:	2200      	movs	r2, #0
    c3b0:	f7fd eac8 	blx	9944 <_init+0x1a0>
    c3b4:	1c03      	adds	r3, r0, #0
    c3b6:	3301      	adds	r3, #1
    c3b8:	1e5a      	subs	r2, r3, #1
    c3ba:	4193      	sbcs	r3, r2
    c3bc:	061b      	lsls	r3, r3, #24
    c3be:	0e1b      	lsrs	r3, r3, #24
    c3c0:	2b00      	cmp	r3, #0
    c3c2:	d002      	beq.n	c3ca <_Z9AppendLogSsPKc+0x1f6>
    level = 6;
    c3c4:	2306      	movs	r3, #6
    c3c6:	65fb      	str	r3, [r7, #92]
    c3c8:	e013      	b.n	c3f2 <_Z9AppendLogSsPKc+0x21e>
  else if (txt.find("DEBUG") != string::npos)
    c3ca:	6afb      	ldr	r3, [r7, #44]
    c3cc:	4a3d      	ldr	r2, [pc, #244]	(c4c4 <_Z9AppendLogSsPKc+0x2f0>)
    c3ce:	1c18      	adds	r0, r3, #0
    c3d0:	1c11      	adds	r1, r2, #0
    c3d2:	2200      	movs	r2, #0
    c3d4:	f7fd eab6 	blx	9944 <_init+0x1a0>
    c3d8:	1c03      	adds	r3, r0, #0
    c3da:	3301      	adds	r3, #1
    c3dc:	1e5a      	subs	r2, r3, #1
    c3de:	4193      	sbcs	r3, r2
    c3e0:	061b      	lsls	r3, r3, #24
    c3e2:	0e1b      	lsrs	r3, r3, #24
    c3e4:	2b00      	cmp	r3, #0
    c3e6:	d002      	beq.n	c3ee <_Z9AppendLogSsPKc+0x21a>
    level = 7;
    c3e8:	2307      	movs	r3, #7
    c3ea:	65fb      	str	r3, [r7, #92]
    c3ec:	e001      	b.n	c3f2 <_Z9AppendLogSsPKc+0x21e>
  else
    level = 7;
    c3ee:	2307      	movs	r3, #7
    c3f0:	65fb      	str	r3, [r7, #92]

  if (Log == NULL)
    c3f2:	4b35      	ldr	r3, [pc, #212]	(c4c8 <_Z9AppendLogSsPKc+0x2f4>)
    c3f4:	681b      	ldr	r3, [r3, #0]
    c3f6:	2b00      	cmp	r3, #0
    c3f8:	d116      	bne.n	c428 <_Z9AppendLogSsPKc+0x254>
    {
      printf("ERROR! Log pointer is NULL! Skip.\n");
    c3fa:	4b34      	ldr	r3, [pc, #208]	(c4cc <_Z9AppendLogSsPKc+0x2f8>)
    c3fc:	1c18      	adds	r0, r3, #0
    c3fe:	f7fd eb80 	blx	9b00 <_init+0x35c>
      return "";
    c402:	6a7c      	ldr	r4, [r7, #36]
    c404:	1c3b      	adds	r3, r7, #0
    c406:	3353      	adds	r3, #83
    c408:	1c18      	adds	r0, r3, #0
    c40a:	f7fd ebbc 	blx	9b84 <_init+0x3e0>
    c40e:	4b30      	ldr	r3, [pc, #192]	(c4d0 <_Z9AppendLogSsPKc+0x2fc>)
    c410:	1c3a      	adds	r2, r7, #0
    c412:	3253      	adds	r2, #83
    c414:	1c20      	adds	r0, r4, #0
    c416:	1c19      	adds	r1, r3, #0
    c418:	f7fd eb0c 	blx	9a34 <_init+0x290>
    c41c:	1c3b      	adds	r3, r7, #0
    c41e:	3353      	adds	r3, #83
    c420:	1c18      	adds	r0, r3, #0
    c422:	f7fd eb4a 	blx	9ab8 <_init+0x314>
    c426:	e031      	b.n	c48c <_Z9AppendLogSsPKc+0x2b8>
    }

  Log->AppendLog(print_str, level);
    c428:	4b27      	ldr	r3, [pc, #156]	(c4c8 <_Z9AppendLogSsPKc+0x2f4>)
    c42a:	681c      	ldr	r4, [r3, #0]
    c42c:	1c3b      	adds	r3, r7, #0
    c42e:	3358      	adds	r3, #88
    c430:	1c3a      	adds	r2, r7, #0
    c432:	3230      	adds	r2, #48
    c434:	1c18      	adds	r0, r3, #0
    c436:	1c11      	adds	r1, r2, #0
    c438:	f7fd ea60 	blx	98fc <_init+0x158>
    c43c:	6dfd      	ldr	r5, [r7, #92]
    c43e:	1c3b      	adds	r3, r7, #0
    c440:	3354      	adds	r3, #84
    c442:	1c3a      	adds	r2, r7, #0
    c444:	3258      	adds	r2, #88
    c446:	1c18      	adds	r0, r3, #0
    c448:	1c21      	adds	r1, r4, #0
    c44a:	1c2b      	adds	r3, r5, #0
    c44c:	f000 fa52 	bl	c8f4 <_ZN9arlogging7Logging9AppendLogESsi>
    c450:	1c3b      	adds	r3, r7, #0
    c452:	3354      	adds	r3, #84
    c454:	1c18      	adds	r0, r3, #0
    c456:	f7fd ea82 	blx	995c <_init+0x1b8>
    c45a:	1c3b      	adds	r3, r7, #0
    c45c:	3358      	adds	r3, #88
    c45e:	1c18      	adds	r0, r3, #0
    c460:	f7fd ea7c 	blx	995c <_init+0x1b8>
  if (level <= PRINT_LEVEL)
    c464:	6dfb      	ldr	r3, [r7, #92]
    c466:	2b07      	cmp	r3, #7
    c468:	d80a      	bhi.n	c480 <_Z9AppendLogSsPKc+0x2ac>
    {
      std::printf("%s", print_str.c_str());
    c46a:	1c3b      	adds	r3, r7, #0
    c46c:	3330      	adds	r3, #48
    c46e:	1c18      	adds	r0, r3, #0
    c470:	f7fd ea14 	blx	989c <_init+0xf8>
    c474:	1c02      	adds	r2, r0, #0
    c476:	4b17      	ldr	r3, [pc, #92]	(c4d4 <_Z9AppendLogSsPKc+0x300>)
    c478:	1c18      	adds	r0, r3, #0
    c47a:	1c11      	adds	r1, r2, #0
    c47c:	f7fd eaec 	blx	9a58 <_init+0x2b4>
    }
  return txt;
    c480:	6a7b      	ldr	r3, [r7, #36]
    c482:	6afa      	ldr	r2, [r7, #44]
    c484:	1c18      	adds	r0, r3, #0
    c486:	1c11      	adds	r1, r2, #0
    c488:	f7fd ea38 	blx	98fc <_init+0x158>
    c48c:	1c3b      	adds	r3, r7, #0
    c48e:	3330      	adds	r3, #48
    c490:	1c18      	adds	r0, r3, #0
    c492:	f7fd ea64 	blx	995c <_init+0x1b8>
}
    c496:	6a78      	ldr	r0, [r7, #36]
    c498:	6a78      	ldr	r0, [r7, #36]
    c49a:	46bd      	mov	sp, r7
    c49c:	b018      	add	sp, #96
    c49e:	bdb0      	pop	{r4, r5, r7, pc}
    c4a0:	0000dc54 	.word	0x0000dc54
    c4a4:	0000dc58 	.word	0x0000dc58
    c4a8:	0000dc5c 	.word	0x0000dc5c
    c4ac:	0000dc68 	.word	0x0000dc68
    c4b0:	0000dc70 	.word	0x0000dc70
    c4b4:	0000dc7c 	.word	0x0000dc7c
    c4b8:	0000dc84 	.word	0x0000dc84
    c4bc:	0000dc8c 	.word	0x0000dc8c
    c4c0:	0000dc94 	.word	0x0000dc94
    c4c4:	0000dc9c 	.word	0x0000dc9c
    c4c8:	00016f84 	.word	0x00016f84
    c4cc:	0000dca4 	.word	0x0000dca4
    c4d0:	0000dcc8 	.word	0x0000dcc8
    c4d4:	0000dccc 	.word	0x0000dccc

0000c4d8 <_ZStplIcSt11char_traitsIcESaIcEESbIT_T0_T1_ERKS6_S8_>:
   *  @return  New string with value of @a lhs followed by @a rhs.
   */
  template<typename _CharT, typename _Traits, typename _Alloc>
    basic_string<_CharT, _Traits, _Alloc>
    operator+(const basic_string<_CharT, _Traits, _Alloc>& __lhs,
	      const basic_string<_CharT, _Traits, _Alloc>& __rhs)
    c4d8:	b590      	push	{r4, r7, lr}
    c4da:	b085      	sub	sp, #20
    c4dc:	af00      	add	r7, sp, #0
    c4de:	1c04      	adds	r4, r0, #0
    c4e0:	6079      	str	r1, [r7, #4]
    c4e2:	603a      	str	r2, [r7, #0]
    {
      basic_string<_CharT, _Traits, _Alloc> __str(__lhs);
    c4e4:	1c23      	adds	r3, r4, #0
    c4e6:	687a      	ldr	r2, [r7, #4]
    c4e8:	1c18      	adds	r0, r3, #0
    c4ea:	1c11      	adds	r1, r2, #0
    c4ec:	f7fd ea06 	blx	98fc <_init+0x158>
      __str.append(__rhs);
    c4f0:	1c23      	adds	r3, r4, #0
    c4f2:	683a      	ldr	r2, [r7, #0]
    c4f4:	1c18      	adds	r0, r3, #0
    c4f6:	1c11      	adds	r1, r2, #0
    c4f8:	f7fd eb62 	blx	9bc0 <_init+0x41c>
      return __str;
    }
    c4fc:	1c20      	adds	r0, r4, #0
    c4fe:	1c20      	adds	r0, r4, #0
    c500:	46bd      	mov	sp, r7
    c502:	b005      	add	sp, #20
    c504:	bd90      	pop	{r4, r7, pc}
    c506:	46c0      	nop			(mov r8, r8)

0000c508 <_Z41__static_initialization_and_destruction_0ii>:
		Memory = mem;
		PWriter->TimerCounter = 0;
		PWriter->Continue();
	}
	return true;
}
    c508:	b580      	push	{r7, lr}
    c50a:	b082      	sub	sp, #8
    c50c:	af00      	add	r7, sp, #0
    c50e:	6078      	str	r0, [r7, #4]
    c510:	6039      	str	r1, [r7, #0]
    c512:	687b      	ldr	r3, [r7, #4]
    c514:	2b01      	cmp	r3, #1
    c516:	d10d      	bne.n	c534 <_Z41__static_initialization_and_destruction_0ii+0x2c>
    c518:	683a      	ldr	r2, [r7, #0]
    c51a:	4b08      	ldr	r3, [pc, #32]	(c53c <_Z41__static_initialization_and_destruction_0ii+0x34>)
    c51c:	429a      	cmp	r2, r3
    c51e:	d109      	bne.n	c534 <_Z41__static_initialization_and_destruction_0ii+0x2c>
    c520:	4b07      	ldr	r3, [pc, #28]	(c540 <_Z41__static_initialization_and_destruction_0ii+0x38>)
    c522:	1c18      	adds	r0, r3, #0
    c524:	f7fd e9d8 	blx	98d8 <_init+0x134>
    c528:	4906      	ldr	r1, [pc, #24]	(c544 <_Z41__static_initialization_and_destruction_0ii+0x3c>)
    c52a:	4b05      	ldr	r3, [pc, #20]	(c540 <_Z41__static_initialization_and_destruction_0ii+0x38>)
    c52c:	4a06      	ldr	r2, [pc, #24]	(c548 <_Z41__static_initialization_and_destruction_0ii+0x40>)
    c52e:	1c18      	adds	r0, r3, #0
    c530:	f7fd eace 	blx	9ad0 <_init+0x32c>
    c534:	46bd      	mov	sp, r7
    c536:	b002      	add	sp, #8
    c538:	bd80      	pop	{r7, pc}
    c53a:	46c0      	nop			(mov r8, r8)
    c53c:	0000ffff 	.word	0x0000ffff
    c540:	00016778 	.word	0x00016778
    c544:	00009938 	.word	0x00009938
    c548:	00016718 	.word	0x00016718

0000c54c <_GLOBAL__I_MainLoop>:
    c54c:	b580      	push	{r7, lr}
    c54e:	af00      	add	r7, sp, #0
    c550:	4b03      	ldr	r3, [pc, #12]	(c560 <_GLOBAL__I_MainLoop+0x14>)
    c552:	2001      	movs	r0, #1
    c554:	1c19      	adds	r1, r3, #0
    c556:	f7ff ffd7 	bl	c508 <_Z41__static_initialization_and_destruction_0ii>
    c55a:	46bd      	mov	sp, r7
    c55c:	bd80      	pop	{r7, pc}
    c55e:	46c0      	nop			(mov r8, r8)
    c560:	0000ffff 	.word	0x0000ffff

0000c564 <_ZL15TimeoutCallbackPv>:

	delete Log;
	delete Writer;
}

gboolean TimeoutCallback(gpointer data)
    c564:	b5f0      	push	{r4, r5, r6, r7, lr}
    c566:	b08b      	sub	sp, #44
    c568:	af02      	add	r7, sp, #8
    c56a:	6078      	str	r0, [r7, #4]
{
	FfWriterEngine *PWriter = (FfWriterEngine *) data;
    c56c:	687b      	ldr	r3, [r7, #4]
    c56e:	617b      	str	r3, [r7, #20]

	PWriter->TimerCounter++;
    c570:	697b      	ldr	r3, [r7, #20]
    c572:	681b      	ldr	r3, [r3, #0]
    c574:	1c5a      	adds	r2, r3, #1
    c576:	697b      	ldr	r3, [r7, #20]
    c578:	601a      	str	r2, [r3, #0]
	PWriter->AppendMemoryData();
    c57a:	697b      	ldr	r3, [r7, #20]
    c57c:	1c18      	adds	r0, r3, #0
    c57e:	f7fd fd59 	bl	a034 <_ZN14FfWriterEngine16AppendMemoryDataEv>

	if (PWriter->TimerCounter >= REC_TIMEOUT)
    c582:	697b      	ldr	r3, [r7, #20]
    c584:	681b      	ldr	r3, [r3, #0]
    c586:	2b1d      	cmp	r3, #29
    c588:	d94f      	bls.n	c62a <_ZL15TimeoutCallbackPv+0xc6>
	{
		uint64_t mem = PWriter->GetMemoryConsumption();
    c58a:	697b      	ldr	r3, [r7, #20]
    c58c:	1c18      	adds	r0, r3, #0
    c58e:	f7fd fc37 	bl	9e00 <_ZN14FfWriterEngine20GetMemoryConsumptionEv>
    c592:	1c03      	adds	r3, r0, #0
    c594:	61bb      	str	r3, [r7, #24]
    c596:	17db      	asrs	r3, r3, #31
    c598:	61fb      	str	r3, [r7, #28]
		sprintf(str, "DEBUG: Timeout callback. Memory: %lld. Delta: %lld\n", mem, mem - Memory);
    c59a:	4b26      	ldr	r3, [pc, #152]	(c634 <_ZL15TimeoutCallbackPv+0xd0>)
    c59c:	685c      	ldr	r4, [r3, #4]
    c59e:	681b      	ldr	r3, [r3, #0]
    c5a0:	1c19      	adds	r1, r3, #0
    c5a2:	1c22      	adds	r2, r4, #0
    c5a4:	69bb      	ldr	r3, [r7, #24]
    c5a6:	69fc      	ldr	r4, [r7, #28]
    c5a8:	1a5b      	subs	r3, r3, r1
    c5aa:	4194      	sbcs	r4, r2
    c5ac:	4a22      	ldr	r2, [pc, #136]	(c638 <_ZL15TimeoutCallbackPv+0xd4>)
    c5ae:	4923      	ldr	r1, [pc, #140]	(c63c <_ZL15TimeoutCallbackPv+0xd8>)
    c5b0:	69bd      	ldr	r5, [r7, #24]
    c5b2:	69fe      	ldr	r6, [r7, #28]
    c5b4:	9300      	str	r3, [sp, #0]
    c5b6:	9401      	str	r4, [sp, #4]
    c5b8:	1c10      	adds	r0, r2, #0
    c5ba:	1c2a      	adds	r2, r5, #0
    c5bc:	1c33      	adds	r3, r6, #0
    c5be:	f7fd eb12 	blx	9be4 <_init+0x440>
		AppendLog(str, "MAIN");
    c5c2:	1c3b      	adds	r3, r7, #0
    c5c4:	3313      	adds	r3, #19
    c5c6:	1c18      	adds	r0, r3, #0
    c5c8:	f7fd eadc 	blx	9b84 <_init+0x3e0>
    c5cc:	1c3b      	adds	r3, r7, #0
    c5ce:	330c      	adds	r3, #12
    c5d0:	4a19      	ldr	r2, [pc, #100]	(c638 <_ZL15TimeoutCallbackPv+0xd4>)
    c5d2:	1c3c      	adds	r4, r7, #0
    c5d4:	3413      	adds	r4, #19
    c5d6:	1c18      	adds	r0, r3, #0
    c5d8:	1c11      	adds	r1, r2, #0
    c5da:	1c22      	adds	r2, r4, #0
    c5dc:	f7fd ea2a 	blx	9a34 <_init+0x290>
    c5e0:	1c3b      	adds	r3, r7, #0
    c5e2:	3308      	adds	r3, #8
    c5e4:	1c3a      	adds	r2, r7, #0
    c5e6:	320c      	adds	r2, #12
    c5e8:	4c15      	ldr	r4, [pc, #84]	(c640 <_ZL15TimeoutCallbackPv+0xdc>)
    c5ea:	1c18      	adds	r0, r3, #0
    c5ec:	1c11      	adds	r1, r2, #0
    c5ee:	1c22      	adds	r2, r4, #0
    c5f0:	f7ff fdf0 	bl	c1d4 <_Z9AppendLogSsPKc>
    c5f4:	1c3b      	adds	r3, r7, #0
    c5f6:	3308      	adds	r3, #8
    c5f8:	1c18      	adds	r0, r3, #0
    c5fa:	f7fd e9b0 	blx	995c <_init+0x1b8>
    c5fe:	1c3b      	adds	r3, r7, #0
    c600:	330c      	adds	r3, #12
    c602:	1c18      	adds	r0, r3, #0
    c604:	f7fd e9aa 	blx	995c <_init+0x1b8>
    c608:	1c3b      	adds	r3, r7, #0
    c60a:	3313      	adds	r3, #19
    c60c:	1c18      	adds	r0, r3, #0
    c60e:	f7fd ea54 	blx	9ab8 <_init+0x314>
		Memory = mem;
    c612:	69bb      	ldr	r3, [r7, #24]
    c614:	69fc      	ldr	r4, [r7, #28]
    c616:	4a07      	ldr	r2, [pc, #28]	(c634 <_ZL15TimeoutCallbackPv+0xd0>)
    c618:	6013      	str	r3, [r2, #0]
    c61a:	6054      	str	r4, [r2, #4]
		PWriter->TimerCounter = 0;
    c61c:	697a      	ldr	r2, [r7, #20]
    c61e:	2300      	movs	r3, #0
    c620:	6013      	str	r3, [r2, #0]
		PWriter->Continue();
    c622:	697b      	ldr	r3, [r7, #20]
    c624:	1c18      	adds	r0, r3, #0
    c626:	f7fd ffc3 	bl	a5b0 <_ZN14FfWriterEngine8ContinueEv>
	}
	return true;
    c62a:	2301      	movs	r3, #1
}
    c62c:	1c18      	adds	r0, r3, #0
    c62e:	46bd      	mov	sp, r7
    c630:	b009      	add	sp, #36
    c632:	bdf0      	pop	{r4, r5, r6, r7, pc}
    c634:	00016770 	.word	0x00016770
    c638:	00016780 	.word	0x00016780
    c63c:	0000dcd0 	.word	0x0000dcd0
    c640:	0000dd04 	.word	0x0000dd04

0000c644 <main>:
#include "include/main.h"
#include "include/ff_writer_engine.h"
#include "include/vars.h"

int main()
    c644:	b5b0      	push	{r4, r5, r7, lr}
    c646:	b088      	sub	sp, #32
    c648:	af02      	add	r7, sp, #8
{
	FfWriterEngine *Writer = new FfWriterEngine();
    c64a:	2010      	movs	r0, #16
    c64c:	f7fd ea10 	blx	9a70 <_init+0x2cc>
    c650:	1c03      	adds	r3, r0, #0
    c652:	1c1c      	adds	r4, r3, #0
    c654:	1c20      	adds	r0, r4, #0
    c656:	f7fe f87b 	bl	a750 <_ZN14FfWriterEngineC1Ev>
    c65a:	617c      	str	r4, [r7, #20]
	Log = new Logging("ff_test_mem.log", LOG_LEVEL);
    c65c:	1c3b      	adds	r3, r7, #0
    c65e:	3313      	adds	r3, #19
    c660:	1c18      	adds	r0, r3, #0
    c662:	f7fd ea90 	blx	9b84 <_init+0x3e0>
    c666:	1c3b      	adds	r3, r7, #0
    c668:	330c      	adds	r3, #12
    c66a:	4a2e      	ldr	r2, [pc, #184]	(c724 <main+0xe0>)
    c66c:	1c3c      	adds	r4, r7, #0
    c66e:	3413      	adds	r4, #19
    c670:	1c18      	adds	r0, r3, #0
    c672:	1c11      	adds	r1, r2, #0
    c674:	1c22      	adds	r2, r4, #0
    c676:	f7fd e9de 	blx	9a34 <_init+0x290>
    c67a:	1c3d      	adds	r5, r7, #0
    c67c:	350c      	adds	r5, #12
    c67e:	2018      	movs	r0, #24
    c680:	f7fd e9f6 	blx	9a70 <_init+0x2cc>
    c684:	1c03      	adds	r3, r0, #0
    c686:	1c1c      	adds	r4, r3, #0
    c688:	1c20      	adds	r0, r4, #0
    c68a:	1c29      	adds	r1, r5, #0
    c68c:	2207      	movs	r2, #7
    c68e:	f000 fcf1 	bl	d074 <_ZN9arlogging7LoggingC1ESsi>
    c692:	4b25      	ldr	r3, [pc, #148]	(c728 <main+0xe4>)
    c694:	601c      	str	r4, [r3, #0]
    c696:	1c3b      	adds	r3, r7, #0
    c698:	330c      	adds	r3, #12
    c69a:	1c18      	adds	r0, r3, #0
    c69c:	f7fd e95e 	blx	995c <_init+0x1b8>
    c6a0:	1c3b      	adds	r3, r7, #0
    c6a2:	3313      	adds	r3, #19
    c6a4:	1c18      	adds	r0, r3, #0
    c6a6:	f7fd ea08 	blx	9ab8 <_init+0x314>
	MainLoop = g_main_loop_new(NULL, FALSE);
    c6aa:	2000      	movs	r0, #0
    c6ac:	2100      	movs	r1, #0
    c6ae:	f7fd e93e 	blx	992c <_init+0x188>
    c6b2:	1c02      	adds	r2, r0, #0
    c6b4:	4b1d      	ldr	r3, [pc, #116]	(c72c <main+0xe8>)
    c6b6:	601a      	str	r2, [r3, #0]
	Writer->FirstStartRec();
    c6b8:	697b      	ldr	r3, [r7, #20]
    c6ba:	1c18      	adds	r0, r3, #0
    c6bc:	f7fd fe3a 	bl	a334 <_ZN14FfWriterEngine13FirstStartRecEv>
	g_timeout_add_seconds_full(1000, 1, TimeoutCallback, (gpointer) Writer, NULL);
    c6c0:	22fa      	movs	r2, #250
    c6c2:	0092      	lsls	r2, r2, #2
    c6c4:	4c1a      	ldr	r4, [pc, #104]	(c730 <main+0xec>)
    c6c6:	697d      	ldr	r5, [r7, #20]
    c6c8:	2300      	movs	r3, #0
    c6ca:	9300      	str	r3, [sp, #0]
    c6cc:	1c10      	adds	r0, r2, #0
    c6ce:	2101      	movs	r1, #1
    c6d0:	1c22      	adds	r2, r4, #0
    c6d2:	1c2b      	adds	r3, r5, #0
    c6d4:	f7fd ea3e 	blx	9b54 <_init+0x3b0>
	Memory = Writer->GetMemoryConsumption();
    c6d8:	697b      	ldr	r3, [r7, #20]
    c6da:	1c18      	adds	r0, r3, #0
    c6dc:	f7fd fb90 	bl	9e00 <_ZN14FfWriterEngine20GetMemoryConsumptionEv>
    c6e0:	1c02      	adds	r2, r0, #0
    c6e2:	17d1      	asrs	r1, r2, #31
    c6e4:	1c13      	adds	r3, r2, #0
    c6e6:	1c0c      	adds	r4, r1, #0
    c6e8:	4a12      	ldr	r2, [pc, #72]	(c734 <main+0xf0>)
    c6ea:	6013      	str	r3, [r2, #0]
    c6ec:	6054      	str	r4, [r2, #4]
	g_main_loop_run(MainLoop);
    c6ee:	4b0f      	ldr	r3, [pc, #60]	(c72c <main+0xe8>)
    c6f0:	681b      	ldr	r3, [r3, #0]
    c6f2:	1c18      	adds	r0, r3, #0
    c6f4:	f7fd ea58 	blx	9ba8 <_init+0x404>

	delete Log;
    c6f8:	4b0b      	ldr	r3, [pc, #44]	(c728 <main+0xe4>)
    c6fa:	681b      	ldr	r3, [r3, #0]
    c6fc:	607b      	str	r3, [r7, #4]
    c6fe:	687b      	ldr	r3, [r7, #4]
    c700:	2b00      	cmp	r3, #0
    c702:	d005      	beq.n	c710 <main+0xcc>
    c704:	6878      	ldr	r0, [r7, #4]
    c706:	f000 fbe5 	bl	ced4 <_ZN9arlogging7LoggingD1Ev>
    c70a:	6878      	ldr	r0, [r7, #4]
    c70c:	f7fd e8cc 	blx	98a8 <_init+0x104>
	delete Writer;
    c710:	697b      	ldr	r3, [r7, #20]
    c712:	1c18      	adds	r0, r3, #0
    c714:	f7fd e8c8 	blx	98a8 <_init+0x104>
    c718:	2300      	movs	r3, #0
}
    c71a:	1c18      	adds	r0, r3, #0
    c71c:	46bd      	mov	sp, r7
    c71e:	b006      	add	sp, #24
    c720:	bdb0      	pop	{r4, r5, r7, pc}
    c722:	46c0      	nop			(mov r8, r8)
    c724:	0000dd0c 	.word	0x0000dd0c
    c728:	00016f84 	.word	0x00016f84
    c72c:	00016768 	.word	0x00016768
    c730:	0000c565 	.word	0x0000c565
    c734:	00016770 	.word	0x00016770

0000c738 <_Z41__static_initialization_and_destruction_0ii>:
#endif

char str[2048];
int cfdn;
Logging *Log;
size_t Count = 0;
    c738:	b580      	push	{r7, lr}
    c73a:	b082      	sub	sp, #8
    c73c:	af00      	add	r7, sp, #0
    c73e:	6078      	str	r0, [r7, #4]
    c740:	6039      	str	r1, [r7, #0]
    c742:	687b      	ldr	r3, [r7, #4]
    c744:	2b01      	cmp	r3, #1
    c746:	d10d      	bne.n	c764 <_Z41__static_initialization_and_destruction_0ii+0x2c>
    c748:	683a      	ldr	r2, [r7, #0]
    c74a:	4b08      	ldr	r3, [pc, #32]	(c76c <_Z41__static_initialization_and_destruction_0ii+0x34>)
    c74c:	429a      	cmp	r2, r3
    c74e:	d109      	bne.n	c764 <_Z41__static_initialization_and_destruction_0ii+0x2c>
    c750:	4b07      	ldr	r3, [pc, #28]	(c770 <_Z41__static_initialization_and_destruction_0ii+0x38>)
    c752:	1c18      	adds	r0, r3, #0
    c754:	f7fd e8c0 	blx	98d8 <_init+0x134>
    c758:	4906      	ldr	r1, [pc, #24]	(c774 <_Z41__static_initialization_and_destruction_0ii+0x3c>)
    c75a:	4b05      	ldr	r3, [pc, #20]	(c770 <_Z41__static_initialization_and_destruction_0ii+0x38>)
    c75c:	4a06      	ldr	r2, [pc, #24]	(c778 <_Z41__static_initialization_and_destruction_0ii+0x40>)
    c75e:	1c18      	adds	r0, r3, #0
    c760:	f7fd e9b6 	blx	9ad0 <_init+0x32c>
    c764:	46bd      	mov	sp, r7
    c766:	b002      	add	sp, #8
    c768:	bd80      	pop	{r7, pc}
    c76a:	46c0      	nop			(mov r8, r8)
    c76c:	0000ffff 	.word	0x0000ffff
    c770:	00016f8c 	.word	0x00016f8c
    c774:	00009938 	.word	0x00009938
    c778:	00016718 	.word	0x00016718

0000c77c <_GLOBAL__I_str>:
    c77c:	b580      	push	{r7, lr}
    c77e:	af00      	add	r7, sp, #0
    c780:	4b03      	ldr	r3, [pc, #12]	(c790 <_GLOBAL__I_str+0x14>)
    c782:	2001      	movs	r0, #1
    c784:	1c19      	adds	r1, r3, #0
    c786:	f7ff ffd7 	bl	c738 <_Z41__static_initialization_and_destruction_0ii>
    c78a:	46bd      	mov	sp, r7
    c78c:	bd80      	pop	{r7, pc}
    c78e:	46c0      	nop			(mov r8, r8)
    c790:	0000ffff 	.word	0x0000ffff

0000c794 <_Z41__static_initialization_and_destruction_0ii>:
          LogFileStream.close();
        }

      return LogText;
    }
}
    c794:	b580      	push	{r7, lr}
    c796:	b082      	sub	sp, #8
    c798:	af00      	add	r7, sp, #0
    c79a:	6078      	str	r0, [r7, #4]
    c79c:	6039      	str	r1, [r7, #0]
    c79e:	687b      	ldr	r3, [r7, #4]
    c7a0:	2b01      	cmp	r3, #1
    c7a2:	d10d      	bne.n	c7c0 <_Z41__static_initialization_and_destruction_0ii+0x2c>
    c7a4:	683a      	ldr	r2, [r7, #0]
    c7a6:	4b08      	ldr	r3, [pc, #32]	(c7c8 <_Z41__static_initialization_and_destruction_0ii+0x34>)
    c7a8:	429a      	cmp	r2, r3
    c7aa:	d109      	bne.n	c7c0 <_Z41__static_initialization_and_destruction_0ii+0x2c>
    c7ac:	4b07      	ldr	r3, [pc, #28]	(c7cc <_Z41__static_initialization_and_destruction_0ii+0x38>)
    c7ae:	1c18      	adds	r0, r3, #0
    c7b0:	f7fd e892 	blx	98d8 <_init+0x134>
    c7b4:	4906      	ldr	r1, [pc, #24]	(c7d0 <_Z41__static_initialization_and_destruction_0ii+0x3c>)
    c7b6:	4b05      	ldr	r3, [pc, #20]	(c7cc <_Z41__static_initialization_and_destruction_0ii+0x38>)
    c7b8:	4a06      	ldr	r2, [pc, #24]	(c7d4 <_Z41__static_initialization_and_destruction_0ii+0x40>)
    c7ba:	1c18      	adds	r0, r3, #0
    c7bc:	f7fd e988 	blx	9ad0 <_init+0x32c>
    c7c0:	46bd      	mov	sp, r7
    c7c2:	b002      	add	sp, #8
    c7c4:	bd80      	pop	{r7, pc}
    c7c6:	46c0      	nop			(mov r8, r8)
    c7c8:	0000ffff 	.word	0x0000ffff
    c7cc:	00016f90 	.word	0x00016f90
    c7d0:	00009938 	.word	0x00009938
    c7d4:	00016718 	.word	0x00016718

0000c7d8 <_GLOBAL__I__ZN9arlogging7LoggingC2ESs>:
    c7d8:	b580      	push	{r7, lr}
    c7da:	af00      	add	r7, sp, #0
    c7dc:	4b03      	ldr	r3, [pc, #12]	(c7ec <_GLOBAL__I__ZN9arlogging7LoggingC2ESs+0x14>)
    c7de:	2001      	movs	r0, #1
    c7e0:	1c19      	adds	r1, r3, #0
    c7e2:	f7ff ffd7 	bl	c794 <_Z41__static_initialization_and_destruction_0ii>
    c7e6:	46bd      	mov	sp, r7
    c7e8:	bd80      	pop	{r7, pc}
    c7ea:	46c0      	nop			(mov r8, r8)
    c7ec:	0000ffff 	.word	0x0000ffff

0000c7f0 <_ZN9arlogging7Logging4InitESsi>:
    Logging::~Logging()
    {
    	free(LogPath);
    }

    void Logging::Init(string FileName, int log_level)
    c7f0:	b5b0      	push	{r4, r5, r7, lr}
    c7f2:	b086      	sub	sp, #24
    c7f4:	af00      	add	r7, sp, #0
    c7f6:	60f8      	str	r0, [r7, #12]
    c7f8:	60b9      	str	r1, [r7, #8]
    c7fa:	607a      	str	r2, [r7, #4]
    {
    	LLevel = log_level;
    c7fc:	68fa      	ldr	r2, [r7, #12]
    c7fe:	687b      	ldr	r3, [r7, #4]
    c800:	6053      	str	r3, [r2, #4]
    	LogName = FileName;
    c802:	68fb      	ldr	r3, [r7, #12]
    c804:	3310      	adds	r3, #16
    c806:	68ba      	ldr	r2, [r7, #8]
    c808:	1c18      	adds	r0, r3, #0
    c80a:	1c11      	adds	r1, r2, #0
    c80c:	f7fd e9d2 	blx	9bb4 <_init+0x410>
    	FullLogName = FullLogName + "/Logs/" + LogName;
    c810:	68fb      	ldr	r3, [r7, #12]
    c812:	1c1d      	adds	r5, r3, #0
    c814:	3514      	adds	r5, #20
    c816:	68fb      	ldr	r3, [r7, #12]
    c818:	1c19      	adds	r1, r3, #0
    c81a:	3114      	adds	r1, #20
    c81c:	1c3b      	adds	r3, r7, #0
    c81e:	3314      	adds	r3, #20
    c820:	4a11      	ldr	r2, [pc, #68]	(c868 <_ZN9arlogging7Logging4InitESsi+0x78>)
    c822:	1c18      	adds	r0, r3, #0
    c824:	f000 fe1e 	bl	d464 <_ZStplIcSt11char_traitsIcESaIcEESbIT_T0_T1_ERKS6_PKS3_>
    c828:	68fb      	ldr	r3, [r7, #12]
    c82a:	1c1c      	adds	r4, r3, #0
    c82c:	3410      	adds	r4, #16
    c82e:	1c3b      	adds	r3, r7, #0
    c830:	3310      	adds	r3, #16
    c832:	1c3a      	adds	r2, r7, #0
    c834:	3214      	adds	r2, #20
    c836:	1c18      	adds	r0, r3, #0
    c838:	1c11      	adds	r1, r2, #0
    c83a:	1c22      	adds	r2, r4, #0
    c83c:	f7ff fe4c 	bl	c4d8 <_ZStplIcSt11char_traitsIcESaIcEESbIT_T0_T1_ERKS6_S8_>
    c840:	1c3b      	adds	r3, r7, #0
    c842:	3310      	adds	r3, #16
    c844:	1c28      	adds	r0, r5, #0
    c846:	1c19      	adds	r1, r3, #0
    c848:	f7fd e9b4 	blx	9bb4 <_init+0x410>
    c84c:	1c3b      	adds	r3, r7, #0
    c84e:	3310      	adds	r3, #16
    c850:	1c18      	adds	r0, r3, #0
    c852:	f7fd e884 	blx	995c <_init+0x1b8>
    c856:	1c3b      	adds	r3, r7, #0
    c858:	3314      	adds	r3, #20
    c85a:	1c18      	adds	r0, r3, #0
    c85c:	f7fd e87e 	blx	995c <_init+0x1b8>
    }
    c860:	46bd      	mov	sp, r7
    c862:	b006      	add	sp, #24
    c864:	bdb0      	pop	{r4, r5, r7, pc}
    c866:	46c0      	nop			(mov r8, r8)
    c868:	0000dd1c 	.word	0x0000dd1c

0000c86c <_ZN9arlogging7Logging26GetCurrDateTimeFixedLengthEPcj>:

    char * Logging::GetCurrDateTimeFixedLength(char *OutString, size_t length)
    c86c:	b590      	push	{r4, r7, lr}
    c86e:	b093      	sub	sp, #76
    c870:	af00      	add	r7, sp, #0
    c872:	60f8      	str	r0, [r7, #12]
    c874:	60b9      	str	r1, [r7, #8]
    c876:	607a      	str	r2, [r7, #4]
    {
        time_t t;
        struct tm tm;
        struct timeval td;

        bzero(OutString, length);
    c878:	68bb      	ldr	r3, [r7, #8]
    c87a:	687a      	ldr	r2, [r7, #4]
    c87c:	1c18      	adds	r0, r3, #0
    c87e:	1c11      	adds	r1, r2, #0
    c880:	f7fd e956 	blx	9b30 <_init+0x38c>
        t = time(NULL);
    c884:	2000      	movs	r0, #0
    c886:	f7fd e906 	blx	9a94 <_init+0x2f0>
    c88a:	1c03      	adds	r3, r0, #0
    c88c:	647b      	str	r3, [r7, #68]
        localtime_r(&t, &tm);
    c88e:	1c3b      	adds	r3, r7, #0
    c890:	3344      	adds	r3, #68
    c892:	1c3a      	adds	r2, r7, #0
    c894:	3210      	adds	r2, #16
    c896:	1c18      	adds	r0, r3, #0
    c898:	1c11      	adds	r1, r2, #0
    c89a:	f7fc efbe 	blx	9818 <_init+0x74>
        gettimeofday(&td, 0);
    c89e:	1c3b      	adds	r3, r7, #0
    c8a0:	333c      	adds	r3, #60
    c8a2:	1c18      	adds	r0, r3, #0
    c8a4:	2100      	movs	r1, #0
    c8a6:	f7fd e872 	blx	998c <_init+0x1e8>
        sprintf(OutString + strftime(OutString, DT_BUF_SIZE, "%d.%m.%Y %T", &tm), ".%.3d", (int) (td.tv_usec / 1000));
    c8aa:	68bb      	ldr	r3, [r7, #8]
    c8ac:	4a0f      	ldr	r2, [pc, #60]	(c8ec <_ZN9arlogging7Logging26GetCurrDateTimeFixedLengthEPcj+0x80>)
    c8ae:	1c3c      	adds	r4, r7, #0
    c8b0:	3410      	adds	r4, #16
    c8b2:	1c18      	adds	r0, r3, #0
    c8b4:	21fe      	movs	r1, #254
    c8b6:	1c23      	adds	r3, r4, #0
    c8b8:	f7fd e928 	blx	9b0c <_init+0x368>
    c8bc:	1c02      	adds	r2, r0, #0
    c8be:	68bb      	ldr	r3, [r7, #8]
    c8c0:	189c      	adds	r4, r3, r2
    c8c2:	1c3b      	adds	r3, r7, #0
    c8c4:	333c      	adds	r3, #60
    c8c6:	685a      	ldr	r2, [r3, #4]
    c8c8:	23fa      	movs	r3, #250
    c8ca:	009b      	lsls	r3, r3, #2
    c8cc:	1c10      	adds	r0, r2, #0
    c8ce:	1c19      	adds	r1, r3, #0
    c8d0:	f7fd e93a 	blx	9b48 <_init+0x3a4>
    c8d4:	1c03      	adds	r3, r0, #0
    c8d6:	1c1a      	adds	r2, r3, #0
    c8d8:	4b05      	ldr	r3, [pc, #20]	(c8f0 <_ZN9arlogging7Logging26GetCurrDateTimeFixedLengthEPcj+0x84>)
    c8da:	1c20      	adds	r0, r4, #0
    c8dc:	1c19      	adds	r1, r3, #0
    c8de:	f7fd e982 	blx	9be4 <_init+0x440>

        return OutString;
    c8e2:	68bb      	ldr	r3, [r7, #8]
    }
    c8e4:	1c18      	adds	r0, r3, #0
    c8e6:	46bd      	mov	sp, r7
    c8e8:	b013      	add	sp, #76
    c8ea:	bd90      	pop	{r4, r7, pc}
    c8ec:	0000dd24 	.word	0x0000dd24
    c8f0:	0000dd30 	.word	0x0000dd30

0000c8f4 <_ZN9arlogging7Logging9AppendLogESsi>:
        LogText = LogText + " " + txt;
        LogFileStream.write(LogText.c_str(), LogText.length());
        LogFileStream.close();
    }

    string Logging::AppendLog(string Text, int log_level)
    c8f4:	b590      	push	{r4, r7, lr}
    c8f6:	4c69      	ldr	r4, [pc, #420]	(ca9c <_ZN9arlogging7Logging9AppendLogESsi+0x1a8>)
    c8f8:	44a5      	add	sp, r4
    c8fa:	af00      	add	r7, sp, #0
    c8fc:	6038      	str	r0, [r7, #0]
    c8fe:	60f9      	str	r1, [r7, #12]
    c900:	60ba      	str	r2, [r7, #8]
    c902:	607b      	str	r3, [r7, #4]
    {
      ofstream LogFileStream;
    c904:	1c3b      	adds	r3, r7, #0
    c906:	3310      	adds	r3, #16
    c908:	1c18      	adds	r0, r3, #0
    c90a:	f7fd e918 	blx	9b3c <_init+0x398>
      string LogText;
    c90e:	2189      	movs	r1, #137
    c910:	0089      	lsls	r1, r1, #2
    c912:	187b      	adds	r3, r7, r1
    c914:	1c18      	adds	r0, r3, #0
    c916:	f7fc ef62 	blx	97dc <_init+0x38>
      char OutString[DT_BUF_SIZE];
      txt = Text;
    c91a:	68fb      	ldr	r3, [r7, #12]
    c91c:	3308      	adds	r3, #8
    c91e:	68ba      	ldr	r2, [r7, #8]
    c920:	1c18      	adds	r0, r3, #0
    c922:	1c11      	adds	r1, r2, #0
    c924:	f7fd e946 	blx	9bb4 <_init+0x410>

      LogText.assign(GetCurrDateTimeFixedLength(OutString, DT_BUF_SIZE));
    c928:	68fb      	ldr	r3, [r7, #12]
    c92a:	2193      	movs	r1, #147
    c92c:	0049      	lsls	r1, r1, #1
    c92e:	187a      	adds	r2, r7, r1
    c930:	1c18      	adds	r0, r3, #0
    c932:	1c11      	adds	r1, r2, #0
    c934:	22fe      	movs	r2, #254
    c936:	f7ff ff99 	bl	c86c <_ZN9arlogging7Logging26GetCurrDateTimeFixedLengthEPcj>
    c93a:	1c02      	adds	r2, r0, #0
    c93c:	2189      	movs	r1, #137
    c93e:	0089      	lsls	r1, r1, #2
    c940:	187b      	adds	r3, r7, r1
    c942:	1c18      	adds	r0, r3, #0
    c944:	1c11      	adds	r1, r2, #0
    c946:	f7fc ef9e 	blx	9884 <_init+0xe0>
      LogText = "> " + LogText + " " + txt;
    c94a:	228c      	movs	r2, #140
    c94c:	0092      	lsls	r2, r2, #2
    c94e:	18bb      	adds	r3, r7, r2
    c950:	4a53      	ldr	r2, [pc, #332]	(caa0 <_ZN9arlogging7Logging9AppendLogESsi+0x1ac>)
    c952:	2189      	movs	r1, #137
    c954:	0089      	lsls	r1, r1, #2
    c956:	187c      	adds	r4, r7, r1
    c958:	1c18      	adds	r0, r3, #0
    c95a:	1c11      	adds	r1, r2, #0
    c95c:	1c22      	adds	r2, r4, #0
    c95e:	f000 fda9 	bl	d4b4 <_ZStplIcSt11char_traitsIcESaIcEESbIT_T0_T1_EPKS3_RKS6_>
    c962:	228b      	movs	r2, #139
    c964:	0092      	lsls	r2, r2, #2
    c966:	18bb      	adds	r3, r7, r2
    c968:	218c      	movs	r1, #140
    c96a:	0089      	lsls	r1, r1, #2
    c96c:	187a      	adds	r2, r7, r1
    c96e:	4c4d      	ldr	r4, [pc, #308]	(caa4 <_ZN9arlogging7Logging9AppendLogESsi+0x1b0>)
    c970:	1c18      	adds	r0, r3, #0
    c972:	1c11      	adds	r1, r2, #0
    c974:	1c22      	adds	r2, r4, #0
    c976:	f000 fd75 	bl	d464 <_ZStplIcSt11char_traitsIcESaIcEESbIT_T0_T1_ERKS6_PKS3_>
    c97a:	68fb      	ldr	r3, [r7, #12]
    c97c:	1c1c      	adds	r4, r3, #0
    c97e:	3408      	adds	r4, #8
    c980:	228a      	movs	r2, #138
    c982:	0092      	lsls	r2, r2, #2
    c984:	18bb      	adds	r3, r7, r2
    c986:	218b      	movs	r1, #139
    c988:	0089      	lsls	r1, r1, #2
    c98a:	187a      	adds	r2, r7, r1
    c98c:	1c18      	adds	r0, r3, #0
    c98e:	1c11      	adds	r1, r2, #0
    c990:	1c22      	adds	r2, r4, #0
    c992:	f7ff fda1 	bl	c4d8 <_ZStplIcSt11char_traitsIcESaIcEESbIT_T0_T1_ERKS6_S8_>
    c996:	2289      	movs	r2, #137
    c998:	0092      	lsls	r2, r2, #2
    c99a:	18bb      	adds	r3, r7, r2
    c99c:	218a      	movs	r1, #138
    c99e:	0089      	lsls	r1, r1, #2
    c9a0:	187a      	adds	r2, r7, r1
    c9a2:	1c18      	adds	r0, r3, #0
    c9a4:	1c11      	adds	r1, r2, #0
    c9a6:	f7fd e906 	blx	9bb4 <_init+0x410>
    c9aa:	228a      	movs	r2, #138
    c9ac:	0092      	lsls	r2, r2, #2
    c9ae:	18bb      	adds	r3, r7, r2
    c9b0:	1c18      	adds	r0, r3, #0
    c9b2:	f7fc efd4 	blx	995c <_init+0x1b8>
    c9b6:	218b      	movs	r1, #139
    c9b8:	0089      	lsls	r1, r1, #2
    c9ba:	187b      	adds	r3, r7, r1
    c9bc:	1c18      	adds	r0, r3, #0
    c9be:	f7fc efce 	blx	995c <_init+0x1b8>
    c9c2:	228c      	movs	r2, #140
    c9c4:	0092      	lsls	r2, r2, #2
    c9c6:	18bb      	adds	r3, r7, r2
    c9c8:	1c18      	adds	r0, r3, #0
    c9ca:	f7fc efc8 	blx	995c <_init+0x1b8>
      if (log_level <= LLevel)
    c9ce:	68fb      	ldr	r3, [r7, #12]
    c9d0:	685a      	ldr	r2, [r3, #4]
    c9d2:	687b      	ldr	r3, [r7, #4]
    c9d4:	429a      	cmp	r2, r3
    c9d6:	db47      	blt.n	ca68 <_ZN9arlogging7Logging9AppendLogESsi+0x174>
        {
          LogFileStream.open(FullLogName.c_str(), ios::app);
    c9d8:	68fb      	ldr	r3, [r7, #12]
    c9da:	3314      	adds	r3, #20
    c9dc:	1c18      	adds	r0, r3, #0
    c9de:	f7fc ef5e 	blx	989c <_init+0xf8>
    c9e2:	1c02      	adds	r2, r0, #0
    c9e4:	1c3b      	adds	r3, r7, #0
    c9e6:	3310      	adds	r3, #16
    c9e8:	1c18      	adds	r0, r3, #0
    c9ea:	1c11      	adds	r1, r2, #0
    c9ec:	2201      	movs	r2, #1
    c9ee:	f7fd e85e 	blx	9aac <_init+0x308>
          if (!LogFileStream.is_open())
    c9f2:	1c3b      	adds	r3, r7, #0
    c9f4:	3310      	adds	r3, #16
    c9f6:	1c18      	adds	r0, r3, #0
    c9f8:	f7fd e876 	blx	9ae8 <_init+0x344>
    c9fc:	1c03      	adds	r3, r0, #0
    c9fe:	469c      	mov	ip, r3
    ca00:	4662      	mov	r2, ip
    ca02:	2301      	movs	r3, #1
    ca04:	4053      	eors	r3, r2
    ca06:	061b      	lsls	r3, r3, #24
    ca08:	0e1b      	lsrs	r3, r3, #24
    ca0a:	2b00      	cmp	r3, #0
    ca0c:	d012      	beq.n	ca34 <_ZN9arlogging7Logging9AppendLogESsi+0x140>
            {
              return "";
    ca0e:	683c      	ldr	r4, [r7, #0]
    ca10:	4925      	ldr	r1, [pc, #148]	(caa8 <_ZN9arlogging7Logging9AppendLogESsi+0x1b4>)
    ca12:	187b      	adds	r3, r7, r1
    ca14:	1c18      	adds	r0, r3, #0
    ca16:	f7fd e8b6 	blx	9b84 <_init+0x3e0>
    ca1a:	4b24      	ldr	r3, [pc, #144]	(caac <_ZN9arlogging7Logging9AppendLogESsi+0x1b8>)
    ca1c:	4922      	ldr	r1, [pc, #136]	(caa8 <_ZN9arlogging7Logging9AppendLogESsi+0x1b4>)
    ca1e:	187a      	adds	r2, r7, r1
    ca20:	1c20      	adds	r0, r4, #0
    ca22:	1c19      	adds	r1, r3, #0
    ca24:	f7fd e806 	blx	9a34 <_init+0x290>
    ca28:	4a1f      	ldr	r2, [pc, #124]	(caa8 <_ZN9arlogging7Logging9AppendLogESsi+0x1b4>)
    ca2a:	18bb      	adds	r3, r7, r2
    ca2c:	1c18      	adds	r0, r3, #0
    ca2e:	f7fd e844 	blx	9ab8 <_init+0x314>
    ca32:	e021      	b.n	ca78 <_ZN9arlogging7Logging9AppendLogESsi+0x184>
            }
          LogFileStream.write(LogText.c_str(), LogText.length());
    ca34:	2189      	movs	r1, #137
    ca36:	0089      	lsls	r1, r1, #2
    ca38:	187b      	adds	r3, r7, r1
    ca3a:	1c18      	adds	r0, r3, #0
    ca3c:	f7fc ef2e 	blx	989c <_init+0xf8>
    ca40:	1c04      	adds	r4, r0, #0
    ca42:	2289      	movs	r2, #137
    ca44:	0092      	lsls	r2, r2, #2
    ca46:	18bb      	adds	r3, r7, r2
    ca48:	1c18      	adds	r0, r3, #0
    ca4a:	f7fc ef64 	blx	9914 <_init+0x170>
    ca4e:	1c03      	adds	r3, r0, #0
    ca50:	1c1a      	adds	r2, r3, #0
    ca52:	1c3b      	adds	r3, r7, #0
    ca54:	3310      	adds	r3, #16
    ca56:	1c18      	adds	r0, r3, #0
    ca58:	1c21      	adds	r1, r4, #0
    ca5a:	f7fc eeea 	blx	9830 <_init+0x8c>
          LogFileStream.close();
    ca5e:	1c3b      	adds	r3, r7, #0
    ca60:	3310      	adds	r3, #16
    ca62:	1c18      	adds	r0, r3, #0
    ca64:	f7fc effe 	blx	9a64 <_init+0x2c0>
        }

      return LogText;
    ca68:	683b      	ldr	r3, [r7, #0]
    ca6a:	2189      	movs	r1, #137
    ca6c:	0089      	lsls	r1, r1, #2
    ca6e:	187a      	adds	r2, r7, r1
    ca70:	1c18      	adds	r0, r3, #0
    ca72:	1c11      	adds	r1, r2, #0
    ca74:	f7fc ef42 	blx	98fc <_init+0x158>
    ca78:	2289      	movs	r2, #137
    ca7a:	0092      	lsls	r2, r2, #2
    ca7c:	18bb      	adds	r3, r7, r2
    ca7e:	1c18      	adds	r0, r3, #0
    ca80:	f7fc ef6c 	blx	995c <_init+0x1b8>
    ca84:	1c3b      	adds	r3, r7, #0
    ca86:	3310      	adds	r3, #16
    ca88:	1c18      	adds	r0, r3, #0
    ca8a:	f7fc efe0 	blx	9a4c <_init+0x2a8>
    }
    ca8e:	6838      	ldr	r0, [r7, #0]
    ca90:	6838      	ldr	r0, [r7, #0]
    ca92:	46bd      	mov	sp, r7
    ca94:	238f      	movs	r3, #143
    ca96:	009b      	lsls	r3, r3, #2
    ca98:	449d      	add	sp, r3
    ca9a:	bd90      	pop	{r4, r7, pc}
    ca9c:	fffffdc4 	.word	0xfffffdc4
    caa0:	0000dd38 	.word	0x0000dd38
    caa4:	0000dd3c 	.word	0x0000dd3c
    caa8:	00000237 	.word	0x00000237
    caac:	0000dd40 	.word	0x0000dd40

0000cab0 <_ZN9arlogging7Logging10AppendDataESs>:
      LogText = "> " + LogText + " " + txt;
      LogFileStream.write(LogText.c_str(), LogText.length());
      LogFileStream.close();
    }

    void Logging::AppendData(string Text)
    cab0:	b590      	push	{r4, r7, lr}
    cab2:	4c50      	ldr	r4, [pc, #320]	(cbf4 <_ZN9arlogging7Logging10AppendDataESs+0x144>)
    cab4:	44a5      	add	sp, r4
    cab6:	af00      	add	r7, sp, #0
    cab8:	60f8      	str	r0, [r7, #12]
    caba:	60b9      	str	r1, [r7, #8]
    {
        ofstream LogFileStream;
    cabc:	1c3b      	adds	r3, r7, #0
    cabe:	3310      	adds	r3, #16
    cac0:	1c18      	adds	r0, r3, #0
    cac2:	f7fd e83c 	blx	9b3c <_init+0x398>
        string LogText;
    cac6:	2189      	movs	r1, #137
    cac8:	0089      	lsls	r1, r1, #2
    caca:	187b      	adds	r3, r7, r1
    cacc:	1c18      	adds	r0, r3, #0
    cace:	f7fc ee86 	blx	97dc <_init+0x38>
        char OutString[DT_BUF_SIZE];
        txt = Text;
    cad2:	68fb      	ldr	r3, [r7, #12]
    cad4:	3308      	adds	r3, #8
    cad6:	68ba      	ldr	r2, [r7, #8]
    cad8:	1c18      	adds	r0, r3, #0
    cada:	1c11      	adds	r1, r2, #0
    cadc:	f7fd e86a 	blx	9bb4 <_init+0x410>

        LogFileStream.open(FullLogName.c_str(), ios::app);
    cae0:	68fb      	ldr	r3, [r7, #12]
    cae2:	3314      	adds	r3, #20
    cae4:	1c18      	adds	r0, r3, #0
    cae6:	f7fc eeda 	blx	989c <_init+0xf8>
    caea:	1c02      	adds	r2, r0, #0
    caec:	1c3b      	adds	r3, r7, #0
    caee:	3310      	adds	r3, #16
    caf0:	1c18      	adds	r0, r3, #0
    caf2:	1c11      	adds	r1, r2, #0
    caf4:	2201      	movs	r2, #1
    caf6:	f7fc efda 	blx	9aac <_init+0x308>
        if (!LogFileStream.is_open())
    cafa:	1c3b      	adds	r3, r7, #0
    cafc:	3310      	adds	r3, #16
    cafe:	1c18      	adds	r0, r3, #0
    cb00:	f7fc eff2 	blx	9ae8 <_init+0x344>
    cb04:	1c03      	adds	r3, r0, #0
    cb06:	469c      	mov	ip, r3
    cb08:	4662      	mov	r2, ip
    cb0a:	2301      	movs	r3, #1
    cb0c:	4053      	eors	r3, r2
    cb0e:	061b      	lsls	r3, r3, #24
    cb10:	0e1b      	lsrs	r3, r3, #24
    cb12:	2b00      	cmp	r3, #0
    cb14:	d001      	beq.n	cb1a <_ZN9arlogging7Logging10AppendDataESs+0x6a>
    cb16:	2200      	movs	r2, #0
    cb18:	e05b      	b.n	cbd2 <_ZN9arlogging7Logging10AppendDataESs+0x122>
          {
            return;
          }
        LogText.assign(GetCurrDateTimeFixedLength(OutString, DT_BUF_SIZE));
    cb1a:	68fb      	ldr	r3, [r7, #12]
    cb1c:	2193      	movs	r1, #147
    cb1e:	0049      	lsls	r1, r1, #1
    cb20:	187a      	adds	r2, r7, r1
    cb22:	1c18      	adds	r0, r3, #0
    cb24:	1c11      	adds	r1, r2, #0
    cb26:	22fe      	movs	r2, #254
    cb28:	f7ff fea0 	bl	c86c <_ZN9arlogging7Logging26GetCurrDateTimeFixedLengthEPcj>
    cb2c:	1c02      	adds	r2, r0, #0
    cb2e:	2189      	movs	r1, #137
    cb30:	0089      	lsls	r1, r1, #2
    cb32:	187b      	adds	r3, r7, r1
    cb34:	1c18      	adds	r0, r3, #0
    cb36:	1c11      	adds	r1, r2, #0
    cb38:	f7fc eea4 	blx	9884 <_init+0xe0>
        LogText = LogText + " " + txt;
    cb3c:	228b      	movs	r2, #139
    cb3e:	0092      	lsls	r2, r2, #2
    cb40:	18bb      	adds	r3, r7, r2
    cb42:	2189      	movs	r1, #137
    cb44:	0089      	lsls	r1, r1, #2
    cb46:	187a      	adds	r2, r7, r1
    cb48:	4c2b      	ldr	r4, [pc, #172]	(cbf8 <_ZN9arlogging7Logging10AppendDataESs+0x148>)
    cb4a:	1c18      	adds	r0, r3, #0
    cb4c:	1c11      	adds	r1, r2, #0
    cb4e:	1c22      	adds	r2, r4, #0
    cb50:	f000 fc88 	bl	d464 <_ZStplIcSt11char_traitsIcESaIcEESbIT_T0_T1_ERKS6_PKS3_>
    cb54:	68fb      	ldr	r3, [r7, #12]
    cb56:	1c1c      	adds	r4, r3, #0
    cb58:	3408      	adds	r4, #8
    cb5a:	228a      	movs	r2, #138
    cb5c:	0092      	lsls	r2, r2, #2
    cb5e:	18bb      	adds	r3, r7, r2
    cb60:	218b      	movs	r1, #139
    cb62:	0089      	lsls	r1, r1, #2
    cb64:	187a      	adds	r2, r7, r1
    cb66:	1c18      	adds	r0, r3, #0
    cb68:	1c11      	adds	r1, r2, #0
    cb6a:	1c22      	adds	r2, r4, #0
    cb6c:	f7ff fcb4 	bl	c4d8 <_ZStplIcSt11char_traitsIcESaIcEESbIT_T0_T1_ERKS6_S8_>
    cb70:	2289      	movs	r2, #137
    cb72:	0092      	lsls	r2, r2, #2
    cb74:	18bb      	adds	r3, r7, r2
    cb76:	218a      	movs	r1, #138
    cb78:	0089      	lsls	r1, r1, #2
    cb7a:	187a      	adds	r2, r7, r1
    cb7c:	1c18      	adds	r0, r3, #0
    cb7e:	1c11      	adds	r1, r2, #0
    cb80:	f7fd e818 	blx	9bb4 <_init+0x410>
    cb84:	228a      	movs	r2, #138
    cb86:	0092      	lsls	r2, r2, #2
    cb88:	18bb      	adds	r3, r7, r2
    cb8a:	1c18      	adds	r0, r3, #0
    cb8c:	f7fc eee6 	blx	995c <_init+0x1b8>
    cb90:	218b      	movs	r1, #139
    cb92:	0089      	lsls	r1, r1, #2
    cb94:	187b      	adds	r3, r7, r1
    cb96:	1c18      	adds	r0, r3, #0
    cb98:	f7fc eee0 	blx	995c <_init+0x1b8>
        LogFileStream.write(LogText.c_str(), LogText.length());
    cb9c:	2289      	movs	r2, #137
    cb9e:	0092      	lsls	r2, r2, #2
    cba0:	18bb      	adds	r3, r7, r2
    cba2:	1c18      	adds	r0, r3, #0
    cba4:	f7fc ee7a 	blx	989c <_init+0xf8>
    cba8:	1c04      	adds	r4, r0, #0
    cbaa:	2189      	movs	r1, #137
    cbac:	0089      	lsls	r1, r1, #2
    cbae:	187b      	adds	r3, r7, r1
    cbb0:	1c18      	adds	r0, r3, #0
    cbb2:	f7fc eeb0 	blx	9914 <_init+0x170>
    cbb6:	1c03      	adds	r3, r0, #0
    cbb8:	1c1a      	adds	r2, r3, #0
    cbba:	1c3b      	adds	r3, r7, #0
    cbbc:	3310      	adds	r3, #16
    cbbe:	1c18      	adds	r0, r3, #0
    cbc0:	1c21      	adds	r1, r4, #0
    cbc2:	f7fc ee36 	blx	9830 <_init+0x8c>
        LogFileStream.close();
    cbc6:	1c3b      	adds	r3, r7, #0
    cbc8:	3310      	adds	r3, #16
    cbca:	1c18      	adds	r0, r3, #0
    cbcc:	f7fc ef4a 	blx	9a64 <_init+0x2c0>
    cbd0:	2201      	movs	r2, #1
    cbd2:	2189      	movs	r1, #137
    cbd4:	0089      	lsls	r1, r1, #2
    cbd6:	187b      	adds	r3, r7, r1
    cbd8:	1c18      	adds	r0, r3, #0
    cbda:	f7fc eec0 	blx	995c <_init+0x1b8>
    cbde:	1c3b      	adds	r3, r7, #0
    cbe0:	3310      	adds	r3, #16
    cbe2:	1c18      	adds	r0, r3, #0
    cbe4:	f7fc ef32 	blx	9a4c <_init+0x2a8>
    }
    cbe8:	46bd      	mov	sp, r7
    cbea:	238d      	movs	r3, #141
    cbec:	009b      	lsls	r3, r3, #2
    cbee:	449d      	add	sp, r3
    cbf0:	bd90      	pop	{r4, r7, pc}
    cbf2:	46c0      	nop			(mov r8, r8)
    cbf4:	fffffdcc 	.word	0xfffffdcc
    cbf8:	0000dd3c 	.word	0x0000dd3c

0000cbfc <_ZN9arlogging7Logging9AppendLogESs>:
      LogText = "> " + LogText + " " + txt;
      LogFileStream.write(LogText.c_str(), LogText.length());
      LogFileStream.close();
    }

    void Logging::AppendLog(string Text)
    cbfc:	b590      	push	{r4, r7, lr}
    cbfe:	4c59      	ldr	r4, [pc, #356]	(cd64 <_ZN9arlogging7Logging9AppendLogESs+0x168>)
    cc00:	44a5      	add	sp, r4
    cc02:	af00      	add	r7, sp, #0
    cc04:	60f8      	str	r0, [r7, #12]
    cc06:	60b9      	str	r1, [r7, #8]
    {
      ofstream LogFileStream;
    cc08:	1c3b      	adds	r3, r7, #0
    cc0a:	3314      	adds	r3, #20
    cc0c:	1c18      	adds	r0, r3, #0
    cc0e:	f7fc ef96 	blx	9b3c <_init+0x398>
      string LogText;
    cc12:	218a      	movs	r1, #138
    cc14:	0089      	lsls	r1, r1, #2
    cc16:	187b      	adds	r3, r7, r1
    cc18:	1c18      	adds	r0, r3, #0
    cc1a:	f7fc ede0 	blx	97dc <_init+0x38>
      char OutString[DT_BUF_SIZE];
      txt = Text;
    cc1e:	68fb      	ldr	r3, [r7, #12]
    cc20:	3308      	adds	r3, #8
    cc22:	68ba      	ldr	r2, [r7, #8]
    cc24:	1c18      	adds	r0, r3, #0
    cc26:	1c11      	adds	r1, r2, #0
    cc28:	f7fc efc4 	blx	9bb4 <_init+0x410>

      LogFileStream.open(FullLogName.c_str(), ios::app);
    cc2c:	68fb      	ldr	r3, [r7, #12]
    cc2e:	3314      	adds	r3, #20
    cc30:	1c18      	adds	r0, r3, #0
    cc32:	f7fc ee34 	blx	989c <_init+0xf8>
    cc36:	1c02      	adds	r2, r0, #0
    cc38:	1c3b      	adds	r3, r7, #0
    cc3a:	3314      	adds	r3, #20
    cc3c:	1c18      	adds	r0, r3, #0
    cc3e:	1c11      	adds	r1, r2, #0
    cc40:	2201      	movs	r2, #1
    cc42:	f7fc ef34 	blx	9aac <_init+0x308>
      if (!LogFileStream.is_open())
    cc46:	1c3b      	adds	r3, r7, #0
    cc48:	3314      	adds	r3, #20
    cc4a:	1c18      	adds	r0, r3, #0
    cc4c:	f7fc ef4c 	blx	9ae8 <_init+0x344>
    cc50:	1c03      	adds	r3, r0, #0
    cc52:	469c      	mov	ip, r3
    cc54:	4662      	mov	r2, ip
    cc56:	2301      	movs	r3, #1
    cc58:	4053      	eors	r3, r2
    cc5a:	061b      	lsls	r3, r3, #24
    cc5c:	0e1b      	lsrs	r3, r3, #24
    cc5e:	2b00      	cmp	r3, #0
    cc60:	d001      	beq.n	cc66 <_ZN9arlogging7Logging9AppendLogESs+0x6a>
    cc62:	2200      	movs	r2, #0
    cc64:	e06d      	b.n	cd42 <_ZN9arlogging7Logging9AppendLogESs+0x146>
        {
          return;
        }
      LogText.assign(GetCurrDateTimeFixedLength(OutString, DT_BUF_SIZE));
    cc66:	68fb      	ldr	r3, [r7, #12]
    cc68:	2195      	movs	r1, #149
    cc6a:	0049      	lsls	r1, r1, #1
    cc6c:	187a      	adds	r2, r7, r1
    cc6e:	1c18      	adds	r0, r3, #0
    cc70:	1c11      	adds	r1, r2, #0
    cc72:	22fe      	movs	r2, #254
    cc74:	f7ff fdfa 	bl	c86c <_ZN9arlogging7Logging26GetCurrDateTimeFixedLengthEPcj>
    cc78:	1c02      	adds	r2, r0, #0
    cc7a:	218a      	movs	r1, #138
    cc7c:	0089      	lsls	r1, r1, #2
    cc7e:	187b      	adds	r3, r7, r1
    cc80:	1c18      	adds	r0, r3, #0
    cc82:	1c11      	adds	r1, r2, #0
    cc84:	f7fc edfe 	blx	9884 <_init+0xe0>
      LogText = "> " + LogText + " " + txt;
    cc88:	228d      	movs	r2, #141
    cc8a:	0092      	lsls	r2, r2, #2
    cc8c:	18bb      	adds	r3, r7, r2
    cc8e:	4a36      	ldr	r2, [pc, #216]	(cd68 <_ZN9arlogging7Logging9AppendLogESs+0x16c>)
    cc90:	218a      	movs	r1, #138
    cc92:	0089      	lsls	r1, r1, #2
    cc94:	187c      	adds	r4, r7, r1
    cc96:	1c18      	adds	r0, r3, #0
    cc98:	1c11      	adds	r1, r2, #0
    cc9a:	1c22      	adds	r2, r4, #0
    cc9c:	f000 fc0a 	bl	d4b4 <_ZStplIcSt11char_traitsIcESaIcEESbIT_T0_T1_EPKS3_RKS6_>
    cca0:	228c      	movs	r2, #140
    cca2:	0092      	lsls	r2, r2, #2
    cca4:	18bb      	adds	r3, r7, r2
    cca6:	218d      	movs	r1, #141
    cca8:	0089      	lsls	r1, r1, #2
    ccaa:	187a      	adds	r2, r7, r1
    ccac:	4c2f      	ldr	r4, [pc, #188]	(cd6c <_ZN9arlogging7Logging9AppendLogESs+0x170>)
    ccae:	1c18      	adds	r0, r3, #0
    ccb0:	1c11      	adds	r1, r2, #0
    ccb2:	1c22      	adds	r2, r4, #0
    ccb4:	f000 fbd6 	bl	d464 <_ZStplIcSt11char_traitsIcESaIcEESbIT_T0_T1_ERKS6_PKS3_>
    ccb8:	68fb      	ldr	r3, [r7, #12]
    ccba:	1c1c      	adds	r4, r3, #0
    ccbc:	3408      	adds	r4, #8
    ccbe:	228b      	movs	r2, #139
    ccc0:	0092      	lsls	r2, r2, #2
    ccc2:	18bb      	adds	r3, r7, r2
    ccc4:	218c      	movs	r1, #140
    ccc6:	0089      	lsls	r1, r1, #2
    ccc8:	187a      	adds	r2, r7, r1
    ccca:	1c18      	adds	r0, r3, #0
    cccc:	1c11      	adds	r1, r2, #0
    ccce:	1c22      	adds	r2, r4, #0
    ccd0:	f7ff fc02 	bl	c4d8 <_ZStplIcSt11char_traitsIcESaIcEESbIT_T0_T1_ERKS6_S8_>
    ccd4:	228a      	movs	r2, #138
    ccd6:	0092      	lsls	r2, r2, #2
    ccd8:	18bb      	adds	r3, r7, r2
    ccda:	218b      	movs	r1, #139
    ccdc:	0089      	lsls	r1, r1, #2
    ccde:	187a      	adds	r2, r7, r1
    cce0:	1c18      	adds	r0, r3, #0
    cce2:	1c11      	adds	r1, r2, #0
    cce4:	f7fc ef66 	blx	9bb4 <_init+0x410>
    cce8:	228b      	movs	r2, #139
    ccea:	0092      	lsls	r2, r2, #2
    ccec:	18bb      	adds	r3, r7, r2
    ccee:	1c18      	adds	r0, r3, #0
    ccf0:	f7fc ee34 	blx	995c <_init+0x1b8>
    ccf4:	218c      	movs	r1, #140
    ccf6:	0089      	lsls	r1, r1, #2
    ccf8:	187b      	adds	r3, r7, r1
    ccfa:	1c18      	adds	r0, r3, #0
    ccfc:	f7fc ee2e 	blx	995c <_init+0x1b8>
    cd00:	228d      	movs	r2, #141
    cd02:	0092      	lsls	r2, r2, #2
    cd04:	18bb      	adds	r3, r7, r2
    cd06:	1c18      	adds	r0, r3, #0
    cd08:	f7fc ee28 	blx	995c <_init+0x1b8>
      LogFileStream.write(LogText.c_str(), LogText.length());
    cd0c:	218a      	movs	r1, #138
    cd0e:	0089      	lsls	r1, r1, #2
    cd10:	187b      	adds	r3, r7, r1
    cd12:	1c18      	adds	r0, r3, #0
    cd14:	f7fc edc2 	blx	989c <_init+0xf8>
    cd18:	1c04      	adds	r4, r0, #0
    cd1a:	228a      	movs	r2, #138
    cd1c:	0092      	lsls	r2, r2, #2
    cd1e:	18bb      	adds	r3, r7, r2
    cd20:	1c18      	adds	r0, r3, #0
    cd22:	f7fc edf8 	blx	9914 <_init+0x170>
    cd26:	1c03      	adds	r3, r0, #0
    cd28:	1c1a      	adds	r2, r3, #0
    cd2a:	1c3b      	adds	r3, r7, #0
    cd2c:	3314      	adds	r3, #20
    cd2e:	1c18      	adds	r0, r3, #0
    cd30:	1c21      	adds	r1, r4, #0
    cd32:	f7fc ed7e 	blx	9830 <_init+0x8c>
      LogFileStream.close();
    cd36:	1c3b      	adds	r3, r7, #0
    cd38:	3314      	adds	r3, #20
    cd3a:	1c18      	adds	r0, r3, #0
    cd3c:	f7fc ee92 	blx	9a64 <_init+0x2c0>
    cd40:	2301      	movs	r3, #1
    cd42:	218a      	movs	r1, #138
    cd44:	0089      	lsls	r1, r1, #2
    cd46:	187b      	adds	r3, r7, r1
    cd48:	1c18      	adds	r0, r3, #0
    cd4a:	f7fc ee08 	blx	995c <_init+0x1b8>
    cd4e:	1c3b      	adds	r3, r7, #0
    cd50:	3314      	adds	r3, #20
    cd52:	1c18      	adds	r0, r3, #0
    cd54:	f7fc ee7a 	blx	9a4c <_init+0x2a8>
    }
    cd58:	46bd      	mov	sp, r7
    cd5a:	238f      	movs	r3, #143
    cd5c:	009b      	lsls	r3, r3, #2
    cd5e:	449d      	add	sp, r3
    cd60:	bd90      	pop	{r4, r7, pc}
    cd62:	46c0      	nop			(mov r8, r8)
    cd64:	fffffdc4 	.word	0xfffffdc4
    cd68:	0000dd38 	.word	0x0000dd38
    cd6c:	0000dd3c 	.word	0x0000dd3c

0000cd70 <_ZN9arlogging7Logging9AppendLogEv>:
        sprintf(OutString + strftime(OutString, DT_BUF_SIZE, "%d.%m.%Y %T", &tm), ".%.3d", (int) (td.tv_usec / 1000));

        return OutString;
    }

    void Logging::AppendLog()
    cd70:	b590      	push	{r4, r7, lr}
    cd72:	4c55      	ldr	r4, [pc, #340]	(cec8 <_ZN9arlogging7Logging9AppendLogEv+0x158>)
    cd74:	44a5      	add	sp, r4
    cd76:	af00      	add	r7, sp, #0
    cd78:	6078      	str	r0, [r7, #4]
    {
      ofstream LogFileStream;
    cd7a:	1c3b      	adds	r3, r7, #0
    cd7c:	330c      	adds	r3, #12
    cd7e:	1c18      	adds	r0, r3, #0
    cd80:	f7fc eedc 	blx	9b3c <_init+0x398>
      string LogText;
    cd84:	2188      	movs	r1, #136
    cd86:	0089      	lsls	r1, r1, #2
    cd88:	187b      	adds	r3, r7, r1
    cd8a:	1c18      	adds	r0, r3, #0
    cd8c:	f7fc ed26 	blx	97dc <_init+0x38>
      char OutString[DT_BUF_SIZE];

      LogFileStream.open(FullLogName.c_str(), ios::app);
    cd90:	687b      	ldr	r3, [r7, #4]
    cd92:	3314      	adds	r3, #20
    cd94:	1c18      	adds	r0, r3, #0
    cd96:	f7fc ed82 	blx	989c <_init+0xf8>
    cd9a:	1c02      	adds	r2, r0, #0
    cd9c:	1c3b      	adds	r3, r7, #0
    cd9e:	330c      	adds	r3, #12
    cda0:	1c18      	adds	r0, r3, #0
    cda2:	1c11      	adds	r1, r2, #0
    cda4:	2201      	movs	r2, #1
    cda6:	f7fc ee82 	blx	9aac <_init+0x308>
      if (!LogFileStream.is_open())
    cdaa:	1c3b      	adds	r3, r7, #0
    cdac:	330c      	adds	r3, #12
    cdae:	1c18      	adds	r0, r3, #0
    cdb0:	f7fc ee9a 	blx	9ae8 <_init+0x344>
    cdb4:	1c03      	adds	r3, r0, #0
    cdb6:	469c      	mov	ip, r3
    cdb8:	4662      	mov	r2, ip
    cdba:	2301      	movs	r3, #1
    cdbc:	4053      	eors	r3, r2
    cdbe:	061b      	lsls	r3, r3, #24
    cdc0:	0e1b      	lsrs	r3, r3, #24
    cdc2:	2b00      	cmp	r3, #0
    cdc4:	d001      	beq.n	cdca <_ZN9arlogging7Logging9AppendLogEv+0x5a>
    cdc6:	2200      	movs	r2, #0
    cdc8:	e06d      	b.n	cea6 <_ZN9arlogging7Logging9AppendLogEv+0x136>
        {
          return;
        }
      LogText.assign(GetCurrDateTimeFixedLength(OutString, DT_BUF_SIZE));
    cdca:	687b      	ldr	r3, [r7, #4]
    cdcc:	2191      	movs	r1, #145
    cdce:	0049      	lsls	r1, r1, #1
    cdd0:	187a      	adds	r2, r7, r1
    cdd2:	1c18      	adds	r0, r3, #0
    cdd4:	1c11      	adds	r1, r2, #0
    cdd6:	22fe      	movs	r2, #254
    cdd8:	f7ff fd48 	bl	c86c <_ZN9arlogging7Logging26GetCurrDateTimeFixedLengthEPcj>
    cddc:	1c02      	adds	r2, r0, #0
    cdde:	2188      	movs	r1, #136
    cde0:	0089      	lsls	r1, r1, #2
    cde2:	187b      	adds	r3, r7, r1
    cde4:	1c18      	adds	r0, r3, #0
    cde6:	1c11      	adds	r1, r2, #0
    cde8:	f7fc ed4c 	blx	9884 <_init+0xe0>
      LogText = "> " + LogText + " " + txt;
    cdec:	228b      	movs	r2, #139
    cdee:	0092      	lsls	r2, r2, #2
    cdf0:	18bb      	adds	r3, r7, r2
    cdf2:	4a36      	ldr	r2, [pc, #216]	(cecc <_ZN9arlogging7Logging9AppendLogEv+0x15c>)
    cdf4:	2188      	movs	r1, #136
    cdf6:	0089      	lsls	r1, r1, #2
    cdf8:	187c      	adds	r4, r7, r1
    cdfa:	1c18      	adds	r0, r3, #0
    cdfc:	1c11      	adds	r1, r2, #0
    cdfe:	1c22      	adds	r2, r4, #0
    ce00:	f000 fb58 	bl	d4b4 <_ZStplIcSt11char_traitsIcESaIcEESbIT_T0_T1_EPKS3_RKS6_>
    ce04:	228a      	movs	r2, #138
    ce06:	0092      	lsls	r2, r2, #2
    ce08:	18bb      	adds	r3, r7, r2
    ce0a:	218b      	movs	r1, #139
    ce0c:	0089      	lsls	r1, r1, #2
    ce0e:	187a      	adds	r2, r7, r1
    ce10:	4c2f      	ldr	r4, [pc, #188]	(ced0 <_ZN9arlogging7Logging9AppendLogEv+0x160>)
    ce12:	1c18      	adds	r0, r3, #0
    ce14:	1c11      	adds	r1, r2, #0
    ce16:	1c22      	adds	r2, r4, #0
    ce18:	f000 fb24 	bl	d464 <_ZStplIcSt11char_traitsIcESaIcEESbIT_T0_T1_ERKS6_PKS3_>
    ce1c:	687b      	ldr	r3, [r7, #4]
    ce1e:	1c1c      	adds	r4, r3, #0
    ce20:	3408      	adds	r4, #8
    ce22:	2289      	movs	r2, #137
    ce24:	0092      	lsls	r2, r2, #2
    ce26:	18bb      	adds	r3, r7, r2
    ce28:	218a      	movs	r1, #138
    ce2a:	0089      	lsls	r1, r1, #2
    ce2c:	187a      	adds	r2, r7, r1
    ce2e:	1c18      	adds	r0, r3, #0
    ce30:	1c11      	adds	r1, r2, #0
    ce32:	1c22      	adds	r2, r4, #0
    ce34:	f7ff fb50 	bl	c4d8 <_ZStplIcSt11char_traitsIcESaIcEESbIT_T0_T1_ERKS6_S8_>
    ce38:	2288      	movs	r2, #136
    ce3a:	0092      	lsls	r2, r2, #2
    ce3c:	18bb      	adds	r3, r7, r2
    ce3e:	2189      	movs	r1, #137
    ce40:	0089      	lsls	r1, r1, #2
    ce42:	187a      	adds	r2, r7, r1
    ce44:	1c18      	adds	r0, r3, #0
    ce46:	1c11      	adds	r1, r2, #0
    ce48:	f7fc eeb4 	blx	9bb4 <_init+0x410>
    ce4c:	2289      	movs	r2, #137
    ce4e:	0092      	lsls	r2, r2, #2
    ce50:	18bb      	adds	r3, r7, r2
    ce52:	1c18      	adds	r0, r3, #0
    ce54:	f7fc ed82 	blx	995c <_init+0x1b8>
    ce58:	218a      	movs	r1, #138
    ce5a:	0089      	lsls	r1, r1, #2
    ce5c:	187b      	adds	r3, r7, r1
    ce5e:	1c18      	adds	r0, r3, #0
    ce60:	f7fc ed7c 	blx	995c <_init+0x1b8>
    ce64:	228b      	movs	r2, #139
    ce66:	0092      	lsls	r2, r2, #2
    ce68:	18bb      	adds	r3, r7, r2
    ce6a:	1c18      	adds	r0, r3, #0
    ce6c:	f7fc ed76 	blx	995c <_init+0x1b8>
      LogFileStream.write(LogText.c_str(), LogText.length());
    ce70:	2188      	movs	r1, #136
    ce72:	0089      	lsls	r1, r1, #2
    ce74:	187b      	adds	r3, r7, r1
    ce76:	1c18      	adds	r0, r3, #0
    ce78:	f7fc ed10 	blx	989c <_init+0xf8>
    ce7c:	1c04      	adds	r4, r0, #0
    ce7e:	2288      	movs	r2, #136
    ce80:	0092      	lsls	r2, r2, #2
    ce82:	18bb      	adds	r3, r7, r2
    ce84:	1c18      	adds	r0, r3, #0
    ce86:	f7fc ed46 	blx	9914 <_init+0x170>
    ce8a:	1c03      	adds	r3, r0, #0
    ce8c:	1c1a      	adds	r2, r3, #0
    ce8e:	1c3b      	adds	r3, r7, #0
    ce90:	330c      	adds	r3, #12
    ce92:	1c18      	adds	r0, r3, #0
    ce94:	1c21      	adds	r1, r4, #0
    ce96:	f7fc eccc 	blx	9830 <_init+0x8c>
      LogFileStream.close();
    ce9a:	1c3b      	adds	r3, r7, #0
    ce9c:	330c      	adds	r3, #12
    ce9e:	1c18      	adds	r0, r3, #0
    cea0:	f7fc ede0 	blx	9a64 <_init+0x2c0>
    cea4:	2301      	movs	r3, #1
    cea6:	2188      	movs	r1, #136
    cea8:	0089      	lsls	r1, r1, #2
    ceaa:	187b      	adds	r3, r7, r1
    ceac:	1c18      	adds	r0, r3, #0
    ceae:	f7fc ed56 	blx	995c <_init+0x1b8>
    ceb2:	1c3b      	adds	r3, r7, #0
    ceb4:	330c      	adds	r3, #12
    ceb6:	1c18      	adds	r0, r3, #0
    ceb8:	f7fc edc8 	blx	9a4c <_init+0x2a8>
    }
    cebc:	46bd      	mov	sp, r7
    cebe:	238d      	movs	r3, #141
    cec0:	009b      	lsls	r3, r3, #2
    cec2:	449d      	add	sp, r3
    cec4:	bd90      	pop	{r4, r7, pc}
    cec6:	46c0      	nop			(mov r8, r8)
    cec8:	fffffdcc 	.word	0xfffffdcc
    cecc:	0000dd38 	.word	0x0000dd38
    ced0:	0000dd3c 	.word	0x0000dd3c

0000ced4 <_ZN9arlogging7LoggingD1Ev>:
    	mkdir("Logs", 0777);
    	FullLogName = string(LogPath);
    	//FullLogName = FullLogName + "/Logs/" + LogName;
    }

    Logging::~Logging()
    ced4:	b580      	push	{r7, lr}
    ced6:	b082      	sub	sp, #8
    ced8:	af00      	add	r7, sp, #0
    ceda:	6078      	str	r0, [r7, #4]
    {
    	free(LogPath);
    cedc:	687b      	ldr	r3, [r7, #4]
    cede:	681b      	ldr	r3, [r3, #0]
    cee0:	1c18      	adds	r0, r3, #0
    cee2:	f7fc ed42 	blx	9968 <_init+0x1c4>
    }
    cee6:	687b      	ldr	r3, [r7, #4]
    cee8:	3314      	adds	r3, #20
    ceea:	1c18      	adds	r0, r3, #0
    ceec:	f7fc ed36 	blx	995c <_init+0x1b8>
    cef0:	687b      	ldr	r3, [r7, #4]
    cef2:	3310      	adds	r3, #16
    cef4:	1c18      	adds	r0, r3, #0
    cef6:	f7fc ed32 	blx	995c <_init+0x1b8>
    cefa:	687b      	ldr	r3, [r7, #4]
    cefc:	3308      	adds	r3, #8
    cefe:	1c18      	adds	r0, r3, #0
    cf00:	f7fc ed2c 	blx	995c <_init+0x1b8>
    cf04:	687b      	ldr	r3, [r7, #4]
    cf06:	1c18      	adds	r0, r3, #0
    cf08:	46bd      	mov	sp, r7
    cf0a:	b002      	add	sp, #8
    cf0c:	bd80      	pop	{r7, pc}
    cf0e:	46c0      	nop			(mov r8, r8)

0000cf10 <_ZN9arlogging7LoggingD2Ev>:
    	mkdir("Logs", 0777);
    	FullLogName = string(LogPath);
    	//FullLogName = FullLogName + "/Logs/" + LogName;
    }

    Logging::~Logging()
    cf10:	b580      	push	{r7, lr}
    cf12:	b082      	sub	sp, #8
    cf14:	af00      	add	r7, sp, #0
    cf16:	6078      	str	r0, [r7, #4]
    {
    	free(LogPath);
    cf18:	687b      	ldr	r3, [r7, #4]
    cf1a:	681b      	ldr	r3, [r3, #0]
    cf1c:	1c18      	adds	r0, r3, #0
    cf1e:	f7fc ed24 	blx	9968 <_init+0x1c4>
    }
    cf22:	687b      	ldr	r3, [r7, #4]
    cf24:	3314      	adds	r3, #20
    cf26:	1c18      	adds	r0, r3, #0
    cf28:	f7fc ed18 	blx	995c <_init+0x1b8>
    cf2c:	687b      	ldr	r3, [r7, #4]
    cf2e:	3310      	adds	r3, #16
    cf30:	1c18      	adds	r0, r3, #0
    cf32:	f7fc ed14 	blx	995c <_init+0x1b8>
    cf36:	687b      	ldr	r3, [r7, #4]
    cf38:	3308      	adds	r3, #8
    cf3a:	1c18      	adds	r0, r3, #0
    cf3c:	f7fc ed0e 	blx	995c <_init+0x1b8>
    cf40:	687b      	ldr	r3, [r7, #4]
    cf42:	1c18      	adds	r0, r3, #0
    cf44:	46bd      	mov	sp, r7
    cf46:	b002      	add	sp, #8
    cf48:	bd80      	pop	{r7, pc}
    cf4a:	46c0      	nop			(mov r8, r8)

0000cf4c <_ZN9arlogging7LoggingC1Ev>:
          mkdir("Logs", 0777);
          FullLogName = string(LogPath);
          FullLogName = FullLogName + "/Logs/" + LogName;
        }

    Logging::Logging()
    cf4c:	b5b0      	push	{r4, r5, r7, lr}
    cf4e:	b084      	sub	sp, #16
    cf50:	af00      	add	r7, sp, #0
    cf52:	6078      	str	r0, [r7, #4]
    cf54:	687b      	ldr	r3, [r7, #4]
    cf56:	3308      	adds	r3, #8
    cf58:	1c18      	adds	r0, r3, #0
    cf5a:	f7fc ec40 	blx	97dc <_init+0x38>
    cf5e:	687b      	ldr	r3, [r7, #4]
    cf60:	3310      	adds	r3, #16
    cf62:	1c18      	adds	r0, r3, #0
    cf64:	f7fc ec3a 	blx	97dc <_init+0x38>
    cf68:	687b      	ldr	r3, [r7, #4]
    cf6a:	3314      	adds	r3, #20
    cf6c:	1c18      	adds	r0, r3, #0
    cf6e:	f7fc ec36 	blx	97dc <_init+0x38>
    {
    	//LLevel = log_level;

    	//LogPath = new char[PATH_MAX];
    	LogPath = get_current_dir_name();
    cf72:	f7fc ecb8 	blx	98e4 <_init+0x140>
    cf76:	1c02      	adds	r2, r0, #0
    cf78:	687b      	ldr	r3, [r7, #4]
    cf7a:	601a      	str	r2, [r3, #0]
    	//LogName = FileName;
    	mkdir("Logs", 0777);
    cf7c:	4b16      	ldr	r3, [pc, #88]	(cfd8 <_ZN9arlogging7LoggingC1Ev+0x8c>)
    cf7e:	4a17      	ldr	r2, [pc, #92]	(cfdc <_ZN9arlogging7LoggingC1Ev+0x90>)
    cf80:	1c18      	adds	r0, r3, #0
    cf82:	1c11      	adds	r1, r2, #0
    cf84:	f7fc ec3c 	blx	9800 <_init+0x5c>
    	FullLogName = string(LogPath);
    cf88:	687b      	ldr	r3, [r7, #4]
    cf8a:	1c1d      	adds	r5, r3, #0
    cf8c:	3514      	adds	r5, #20
    cf8e:	687b      	ldr	r3, [r7, #4]
    cf90:	681c      	ldr	r4, [r3, #0]
    cf92:	1c3b      	adds	r3, r7, #0
    cf94:	330f      	adds	r3, #15
    cf96:	1c18      	adds	r0, r3, #0
    cf98:	f7fc edf4 	blx	9b84 <_init+0x3e0>
    cf9c:	1c3b      	adds	r3, r7, #0
    cf9e:	3308      	adds	r3, #8
    cfa0:	1c3a      	adds	r2, r7, #0
    cfa2:	320f      	adds	r2, #15
    cfa4:	1c18      	adds	r0, r3, #0
    cfa6:	1c21      	adds	r1, r4, #0
    cfa8:	f7fc ed44 	blx	9a34 <_init+0x290>
    cfac:	1c3b      	adds	r3, r7, #0
    cfae:	3308      	adds	r3, #8
    cfb0:	1c28      	adds	r0, r5, #0
    cfb2:	1c19      	adds	r1, r3, #0
    cfb4:	f7fc edfe 	blx	9bb4 <_init+0x410>
    cfb8:	1c3b      	adds	r3, r7, #0
    cfba:	3308      	adds	r3, #8
    cfbc:	1c18      	adds	r0, r3, #0
    cfbe:	f7fc ecce 	blx	995c <_init+0x1b8>
    cfc2:	1c3b      	adds	r3, r7, #0
    cfc4:	330f      	adds	r3, #15
    cfc6:	1c18      	adds	r0, r3, #0
    cfc8:	f7fc ed76 	blx	9ab8 <_init+0x314>
    	//FullLogName = FullLogName + "/Logs/" + LogName;
    }
    cfcc:	687b      	ldr	r3, [r7, #4]
    cfce:	1c18      	adds	r0, r3, #0
    cfd0:	46bd      	mov	sp, r7
    cfd2:	b004      	add	sp, #16
    cfd4:	bdb0      	pop	{r4, r5, r7, pc}
    cfd6:	46c0      	nop			(mov r8, r8)
    cfd8:	0000dd44 	.word	0x0000dd44
    cfdc:	000001ff 	.word	0x000001ff

0000cfe0 <_ZN9arlogging7LoggingC2Ev>:
          mkdir("Logs", 0777);
          FullLogName = string(LogPath);
          FullLogName = FullLogName + "/Logs/" + LogName;
        }

    Logging::Logging()
    cfe0:	b5b0      	push	{r4, r5, r7, lr}
    cfe2:	b084      	sub	sp, #16
    cfe4:	af00      	add	r7, sp, #0
    cfe6:	6078      	str	r0, [r7, #4]
    cfe8:	687b      	ldr	r3, [r7, #4]
    cfea:	3308      	adds	r3, #8
    cfec:	1c18      	adds	r0, r3, #0
    cfee:	f7fc ebf6 	blx	97dc <_init+0x38>
    cff2:	687b      	ldr	r3, [r7, #4]
    cff4:	3310      	adds	r3, #16
    cff6:	1c18      	adds	r0, r3, #0
    cff8:	f7fc ebf0 	blx	97dc <_init+0x38>
    cffc:	687b      	ldr	r3, [r7, #4]
    cffe:	3314      	adds	r3, #20
    d000:	1c18      	adds	r0, r3, #0
    d002:	f7fc ebec 	blx	97dc <_init+0x38>
    {
    	//LLevel = log_level;

    	//LogPath = new char[PATH_MAX];
    	LogPath = get_current_dir_name();
    d006:	f7fc ec6e 	blx	98e4 <_init+0x140>
    d00a:	1c02      	adds	r2, r0, #0
    d00c:	687b      	ldr	r3, [r7, #4]
    d00e:	601a      	str	r2, [r3, #0]
    	//LogName = FileName;
    	mkdir("Logs", 0777);
    d010:	4b16      	ldr	r3, [pc, #88]	(d06c <_ZN9arlogging7LoggingC2Ev+0x8c>)
    d012:	4a17      	ldr	r2, [pc, #92]	(d070 <_ZN9arlogging7LoggingC2Ev+0x90>)
    d014:	1c18      	adds	r0, r3, #0
    d016:	1c11      	adds	r1, r2, #0
    d018:	f7fc ebf2 	blx	9800 <_init+0x5c>
    	FullLogName = string(LogPath);
    d01c:	687b      	ldr	r3, [r7, #4]
    d01e:	1c1d      	adds	r5, r3, #0
    d020:	3514      	adds	r5, #20
    d022:	687b      	ldr	r3, [r7, #4]
    d024:	681c      	ldr	r4, [r3, #0]
    d026:	1c3b      	adds	r3, r7, #0
    d028:	330f      	adds	r3, #15
    d02a:	1c18      	adds	r0, r3, #0
    d02c:	f7fc edaa 	blx	9b84 <_init+0x3e0>
    d030:	1c3b      	adds	r3, r7, #0
    d032:	3308      	adds	r3, #8
    d034:	1c3a      	adds	r2, r7, #0
    d036:	320f      	adds	r2, #15
    d038:	1c18      	adds	r0, r3, #0
    d03a:	1c21      	adds	r1, r4, #0
    d03c:	f7fc ecfa 	blx	9a34 <_init+0x290>
    d040:	1c3b      	adds	r3, r7, #0
    d042:	3308      	adds	r3, #8
    d044:	1c28      	adds	r0, r5, #0
    d046:	1c19      	adds	r1, r3, #0
    d048:	f7fc edb4 	blx	9bb4 <_init+0x410>
    d04c:	1c3b      	adds	r3, r7, #0
    d04e:	3308      	adds	r3, #8
    d050:	1c18      	adds	r0, r3, #0
    d052:	f7fc ec84 	blx	995c <_init+0x1b8>
    d056:	1c3b      	adds	r3, r7, #0
    d058:	330f      	adds	r3, #15
    d05a:	1c18      	adds	r0, r3, #0
    d05c:	f7fc ed2c 	blx	9ab8 <_init+0x314>
    	//FullLogName = FullLogName + "/Logs/" + LogName;
    }
    d060:	687b      	ldr	r3, [r7, #4]
    d062:	1c18      	adds	r0, r3, #0
    d064:	46bd      	mov	sp, r7
    d066:	b004      	add	sp, #16
    d068:	bdb0      	pop	{r4, r5, r7, pc}
    d06a:	46c0      	nop			(mov r8, r8)
    d06c:	0000dd44 	.word	0x0000dd44
    d070:	000001ff 	.word	0x000001ff

0000d074 <_ZN9arlogging7LoggingC1ESsi>:
      mkdir("Logs", 0777);
      FullLogName = string(LogPath);
      FullLogName = FullLogName + "/Logs/" + LogName;
    }

    Logging::Logging(string FileName, int log_level)
    d074:	b5b0      	push	{r4, r5, r7, lr}
    d076:	b088      	sub	sp, #32
    d078:	af00      	add	r7, sp, #0
    d07a:	60f8      	str	r0, [r7, #12]
    d07c:	60b9      	str	r1, [r7, #8]
    d07e:	607a      	str	r2, [r7, #4]
    d080:	68fb      	ldr	r3, [r7, #12]
    d082:	3308      	adds	r3, #8
    d084:	1c18      	adds	r0, r3, #0
    d086:	f7fc ebaa 	blx	97dc <_init+0x38>
    d08a:	68fb      	ldr	r3, [r7, #12]
    d08c:	3310      	adds	r3, #16
    d08e:	1c18      	adds	r0, r3, #0
    d090:	f7fc eba4 	blx	97dc <_init+0x38>
    d094:	68fb      	ldr	r3, [r7, #12]
    d096:	3314      	adds	r3, #20
    d098:	1c18      	adds	r0, r3, #0
    d09a:	f7fc eba0 	blx	97dc <_init+0x38>
        {
          LLevel = log_level;
    d09e:	68fa      	ldr	r2, [r7, #12]
    d0a0:	687b      	ldr	r3, [r7, #4]
    d0a2:	6053      	str	r3, [r2, #4]

          //LogPath = new char[PATH_MAX];
          LogPath = get_current_dir_name();
    d0a4:	f7fc ec1e 	blx	98e4 <_init+0x140>
    d0a8:	1c02      	adds	r2, r0, #0
    d0aa:	68fb      	ldr	r3, [r7, #12]
    d0ac:	601a      	str	r2, [r3, #0]

          LogName = FileName;
    d0ae:	68fb      	ldr	r3, [r7, #12]
    d0b0:	3310      	adds	r3, #16
    d0b2:	68ba      	ldr	r2, [r7, #8]
    d0b4:	1c18      	adds	r0, r3, #0
    d0b6:	1c11      	adds	r1, r2, #0
    d0b8:	f7fc ed7c 	blx	9bb4 <_init+0x410>
          mkdir("Logs", 0777);
    d0bc:	4b2a      	ldr	r3, [pc, #168]	(d168 <_ZN9arlogging7LoggingC1ESsi+0xf4>)
    d0be:	4a2b      	ldr	r2, [pc, #172]	(d16c <_ZN9arlogging7LoggingC1ESsi+0xf8>)
    d0c0:	1c18      	adds	r0, r3, #0
    d0c2:	1c11      	adds	r1, r2, #0
    d0c4:	f7fc eb9c 	blx	9800 <_init+0x5c>
          FullLogName = string(LogPath);
    d0c8:	68fb      	ldr	r3, [r7, #12]
    d0ca:	1c1d      	adds	r5, r3, #0
    d0cc:	3514      	adds	r5, #20
    d0ce:	68fb      	ldr	r3, [r7, #12]
    d0d0:	681c      	ldr	r4, [r3, #0]
    d0d2:	1c3b      	adds	r3, r7, #0
    d0d4:	3317      	adds	r3, #23
    d0d6:	1c18      	adds	r0, r3, #0
    d0d8:	f7fc ed54 	blx	9b84 <_init+0x3e0>
    d0dc:	1c3b      	adds	r3, r7, #0
    d0de:	3310      	adds	r3, #16
    d0e0:	1c3a      	adds	r2, r7, #0
    d0e2:	3217      	adds	r2, #23
    d0e4:	1c18      	adds	r0, r3, #0
    d0e6:	1c21      	adds	r1, r4, #0
    d0e8:	f7fc eca4 	blx	9a34 <_init+0x290>
    d0ec:	1c3b      	adds	r3, r7, #0
    d0ee:	3310      	adds	r3, #16
    d0f0:	1c28      	adds	r0, r5, #0
    d0f2:	1c19      	adds	r1, r3, #0
    d0f4:	f7fc ed5e 	blx	9bb4 <_init+0x410>
    d0f8:	1c3b      	adds	r3, r7, #0
    d0fa:	3310      	adds	r3, #16
    d0fc:	1c18      	adds	r0, r3, #0
    d0fe:	f7fc ec2e 	blx	995c <_init+0x1b8>
    d102:	1c3b      	adds	r3, r7, #0
    d104:	3317      	adds	r3, #23
    d106:	1c18      	adds	r0, r3, #0
    d108:	f7fc ecd6 	blx	9ab8 <_init+0x314>
          FullLogName = FullLogName + "/Logs/" + LogName;
    d10c:	68fb      	ldr	r3, [r7, #12]
    d10e:	1c1d      	adds	r5, r3, #0
    d110:	3514      	adds	r5, #20
    d112:	68fb      	ldr	r3, [r7, #12]
    d114:	1c19      	adds	r1, r3, #0
    d116:	3114      	adds	r1, #20
    d118:	1c3b      	adds	r3, r7, #0
    d11a:	331c      	adds	r3, #28
    d11c:	4a14      	ldr	r2, [pc, #80]	(d170 <_ZN9arlogging7LoggingC1ESsi+0xfc>)
    d11e:	1c18      	adds	r0, r3, #0
    d120:	f000 f9a0 	bl	d464 <_ZStplIcSt11char_traitsIcESaIcEESbIT_T0_T1_ERKS6_PKS3_>
    d124:	68fb      	ldr	r3, [r7, #12]
    d126:	1c1c      	adds	r4, r3, #0
    d128:	3410      	adds	r4, #16
    d12a:	1c3b      	adds	r3, r7, #0
    d12c:	3318      	adds	r3, #24
    d12e:	1c3a      	adds	r2, r7, #0
    d130:	321c      	adds	r2, #28
    d132:	1c18      	adds	r0, r3, #0
    d134:	1c11      	adds	r1, r2, #0
    d136:	1c22      	adds	r2, r4, #0
    d138:	f7ff f9ce 	bl	c4d8 <_ZStplIcSt11char_traitsIcESaIcEESbIT_T0_T1_ERKS6_S8_>
    d13c:	1c3b      	adds	r3, r7, #0
    d13e:	3318      	adds	r3, #24
    d140:	1c28      	adds	r0, r5, #0
    d142:	1c19      	adds	r1, r3, #0
    d144:	f7fc ed36 	blx	9bb4 <_init+0x410>
    d148:	1c3b      	adds	r3, r7, #0
    d14a:	3318      	adds	r3, #24
    d14c:	1c18      	adds	r0, r3, #0
    d14e:	f7fc ec06 	blx	995c <_init+0x1b8>
    d152:	1c3b      	adds	r3, r7, #0
    d154:	331c      	adds	r3, #28
    d156:	1c18      	adds	r0, r3, #0
    d158:	f7fc ec00 	blx	995c <_init+0x1b8>
        }
    d15c:	68fb      	ldr	r3, [r7, #12]
    d15e:	1c18      	adds	r0, r3, #0
    d160:	46bd      	mov	sp, r7
    d162:	b008      	add	sp, #32
    d164:	bdb0      	pop	{r4, r5, r7, pc}
    d166:	46c0      	nop			(mov r8, r8)
    d168:	0000dd44 	.word	0x0000dd44
    d16c:	000001ff 	.word	0x000001ff
    d170:	0000dd1c 	.word	0x0000dd1c

0000d174 <_ZN9arlogging7LoggingC2ESsi>:
      mkdir("Logs", 0777);
      FullLogName = string(LogPath);
      FullLogName = FullLogName + "/Logs/" + LogName;
    }

    Logging::Logging(string FileName, int log_level)
    d174:	b5b0      	push	{r4, r5, r7, lr}
    d176:	b088      	sub	sp, #32
    d178:	af00      	add	r7, sp, #0
    d17a:	60f8      	str	r0, [r7, #12]
    d17c:	60b9      	str	r1, [r7, #8]
    d17e:	607a      	str	r2, [r7, #4]
    d180:	68fb      	ldr	r3, [r7, #12]
    d182:	3308      	adds	r3, #8
    d184:	1c18      	adds	r0, r3, #0
    d186:	f7fc eb2a 	blx	97dc <_init+0x38>
    d18a:	68fb      	ldr	r3, [r7, #12]
    d18c:	3310      	adds	r3, #16
    d18e:	1c18      	adds	r0, r3, #0
    d190:	f7fc eb24 	blx	97dc <_init+0x38>
    d194:	68fb      	ldr	r3, [r7, #12]
    d196:	3314      	adds	r3, #20
    d198:	1c18      	adds	r0, r3, #0
    d19a:	f7fc eb20 	blx	97dc <_init+0x38>
        {
          LLevel = log_level;
    d19e:	68fa      	ldr	r2, [r7, #12]
    d1a0:	687b      	ldr	r3, [r7, #4]
    d1a2:	6053      	str	r3, [r2, #4]

          //LogPath = new char[PATH_MAX];
          LogPath = get_current_dir_name();
    d1a4:	f7fc eb9e 	blx	98e4 <_init+0x140>
    d1a8:	1c02      	adds	r2, r0, #0
    d1aa:	68fb      	ldr	r3, [r7, #12]
    d1ac:	601a      	str	r2, [r3, #0]

          LogName = FileName;
    d1ae:	68fb      	ldr	r3, [r7, #12]
    d1b0:	3310      	adds	r3, #16
    d1b2:	68ba      	ldr	r2, [r7, #8]
    d1b4:	1c18      	adds	r0, r3, #0
    d1b6:	1c11      	adds	r1, r2, #0
    d1b8:	f7fc ecfc 	blx	9bb4 <_init+0x410>
          mkdir("Logs", 0777);
    d1bc:	4b2a      	ldr	r3, [pc, #168]	(d268 <_ZN9arlogging7LoggingC2ESsi+0xf4>)
    d1be:	4a2b      	ldr	r2, [pc, #172]	(d26c <_ZN9arlogging7LoggingC2ESsi+0xf8>)
    d1c0:	1c18      	adds	r0, r3, #0
    d1c2:	1c11      	adds	r1, r2, #0
    d1c4:	f7fc eb1c 	blx	9800 <_init+0x5c>
          FullLogName = string(LogPath);
    d1c8:	68fb      	ldr	r3, [r7, #12]
    d1ca:	1c1d      	adds	r5, r3, #0
    d1cc:	3514      	adds	r5, #20
    d1ce:	68fb      	ldr	r3, [r7, #12]
    d1d0:	681c      	ldr	r4, [r3, #0]
    d1d2:	1c3b      	adds	r3, r7, #0
    d1d4:	3317      	adds	r3, #23
    d1d6:	1c18      	adds	r0, r3, #0
    d1d8:	f7fc ecd4 	blx	9b84 <_init+0x3e0>
    d1dc:	1c3b      	adds	r3, r7, #0
    d1de:	3310      	adds	r3, #16
    d1e0:	1c3a      	adds	r2, r7, #0
    d1e2:	3217      	adds	r2, #23
    d1e4:	1c18      	adds	r0, r3, #0
    d1e6:	1c21      	adds	r1, r4, #0
    d1e8:	f7fc ec24 	blx	9a34 <_init+0x290>
    d1ec:	1c3b      	adds	r3, r7, #0
    d1ee:	3310      	adds	r3, #16
    d1f0:	1c28      	adds	r0, r5, #0
    d1f2:	1c19      	adds	r1, r3, #0
    d1f4:	f7fc ecde 	blx	9bb4 <_init+0x410>
    d1f8:	1c3b      	adds	r3, r7, #0
    d1fa:	3310      	adds	r3, #16
    d1fc:	1c18      	adds	r0, r3, #0
    d1fe:	f7fc ebae 	blx	995c <_init+0x1b8>
    d202:	1c3b      	adds	r3, r7, #0
    d204:	3317      	adds	r3, #23
    d206:	1c18      	adds	r0, r3, #0
    d208:	f7fc ec56 	blx	9ab8 <_init+0x314>
          FullLogName = FullLogName + "/Logs/" + LogName;
    d20c:	68fb      	ldr	r3, [r7, #12]
    d20e:	1c1d      	adds	r5, r3, #0
    d210:	3514      	adds	r5, #20
    d212:	68fb      	ldr	r3, [r7, #12]
    d214:	1c19      	adds	r1, r3, #0
    d216:	3114      	adds	r1, #20
    d218:	1c3b      	adds	r3, r7, #0
    d21a:	331c      	adds	r3, #28
    d21c:	4a14      	ldr	r2, [pc, #80]	(d270 <_ZN9arlogging7LoggingC2ESsi+0xfc>)
    d21e:	1c18      	adds	r0, r3, #0
    d220:	f000 f920 	bl	d464 <_ZStplIcSt11char_traitsIcESaIcEESbIT_T0_T1_ERKS6_PKS3_>
    d224:	68fb      	ldr	r3, [r7, #12]
    d226:	1c1c      	adds	r4, r3, #0
    d228:	3410      	adds	r4, #16
    d22a:	1c3b      	adds	r3, r7, #0
    d22c:	3318      	adds	r3, #24
    d22e:	1c3a      	adds	r2, r7, #0
    d230:	321c      	adds	r2, #28
    d232:	1c18      	adds	r0, r3, #0
    d234:	1c11      	adds	r1, r2, #0
    d236:	1c22      	adds	r2, r4, #0
    d238:	f7ff f94e 	bl	c4d8 <_ZStplIcSt11char_traitsIcESaIcEESbIT_T0_T1_ERKS6_S8_>
    d23c:	1c3b      	adds	r3, r7, #0
    d23e:	3318      	adds	r3, #24
    d240:	1c28      	adds	r0, r5, #0
    d242:	1c19      	adds	r1, r3, #0
    d244:	f7fc ecb6 	blx	9bb4 <_init+0x410>
    d248:	1c3b      	adds	r3, r7, #0
    d24a:	3318      	adds	r3, #24
    d24c:	1c18      	adds	r0, r3, #0
    d24e:	f7fc eb86 	blx	995c <_init+0x1b8>
    d252:	1c3b      	adds	r3, r7, #0
    d254:	331c      	adds	r3, #28
    d256:	1c18      	adds	r0, r3, #0
    d258:	f7fc eb80 	blx	995c <_init+0x1b8>
        }
    d25c:	68fb      	ldr	r3, [r7, #12]
    d25e:	1c18      	adds	r0, r3, #0
    d260:	46bd      	mov	sp, r7
    d262:	b008      	add	sp, #32
    d264:	bdb0      	pop	{r4, r5, r7, pc}
    d266:	46c0      	nop			(mov r8, r8)
    d268:	0000dd44 	.word	0x0000dd44
    d26c:	000001ff 	.word	0x000001ff
    d270:	0000dd1c 	.word	0x0000dd1c

0000d274 <_ZN9arlogging7LoggingC1ESs>:



namespace arlogging
{
    Logging::Logging(string FileName)
    d274:	b5b0      	push	{r4, r5, r7, lr}
    d276:	b086      	sub	sp, #24
    d278:	af00      	add	r7, sp, #0
    d27a:	6078      	str	r0, [r7, #4]
    d27c:	6039      	str	r1, [r7, #0]
    d27e:	687b      	ldr	r3, [r7, #4]
    d280:	3308      	adds	r3, #8
    d282:	1c18      	adds	r0, r3, #0
    d284:	f7fc eaaa 	blx	97dc <_init+0x38>
    d288:	687b      	ldr	r3, [r7, #4]
    d28a:	3310      	adds	r3, #16
    d28c:	1c18      	adds	r0, r3, #0
    d28e:	f7fc eaa6 	blx	97dc <_init+0x38>
    d292:	687b      	ldr	r3, [r7, #4]
    d294:	3314      	adds	r3, #20
    d296:	1c18      	adds	r0, r3, #0
    d298:	f7fc eaa0 	blx	97dc <_init+0x38>
    {
      //LogPath = new char[PATH_MAX];
      LogPath = get_current_dir_name();
    d29c:	f7fc eb22 	blx	98e4 <_init+0x140>
    d2a0:	1c02      	adds	r2, r0, #0
    d2a2:	687b      	ldr	r3, [r7, #4]
    d2a4:	601a      	str	r2, [r3, #0]
      LogName = FileName;
    d2a6:	687b      	ldr	r3, [r7, #4]
    d2a8:	3310      	adds	r3, #16
    d2aa:	683a      	ldr	r2, [r7, #0]
    d2ac:	1c18      	adds	r0, r3, #0
    d2ae:	1c11      	adds	r1, r2, #0
    d2b0:	f7fc ec80 	blx	9bb4 <_init+0x410>
      mkdir("Logs", 0777);
    d2b4:	4b2a      	ldr	r3, [pc, #168]	(d360 <_ZN9arlogging7LoggingC1ESs+0xec>)
    d2b6:	4a2b      	ldr	r2, [pc, #172]	(d364 <_ZN9arlogging7LoggingC1ESs+0xf0>)
    d2b8:	1c18      	adds	r0, r3, #0
    d2ba:	1c11      	adds	r1, r2, #0
    d2bc:	f7fc eaa0 	blx	9800 <_init+0x5c>
      FullLogName = string(LogPath);
    d2c0:	687b      	ldr	r3, [r7, #4]
    d2c2:	1c1d      	adds	r5, r3, #0
    d2c4:	3514      	adds	r5, #20
    d2c6:	687b      	ldr	r3, [r7, #4]
    d2c8:	681c      	ldr	r4, [r3, #0]
    d2ca:	1c3b      	adds	r3, r7, #0
    d2cc:	330f      	adds	r3, #15
    d2ce:	1c18      	adds	r0, r3, #0
    d2d0:	f7fc ec58 	blx	9b84 <_init+0x3e0>
    d2d4:	1c3b      	adds	r3, r7, #0
    d2d6:	3308      	adds	r3, #8
    d2d8:	1c3a      	adds	r2, r7, #0
    d2da:	320f      	adds	r2, #15
    d2dc:	1c18      	adds	r0, r3, #0
    d2de:	1c21      	adds	r1, r4, #0
    d2e0:	f7fc eba8 	blx	9a34 <_init+0x290>
    d2e4:	1c3b      	adds	r3, r7, #0
    d2e6:	3308      	adds	r3, #8
    d2e8:	1c28      	adds	r0, r5, #0
    d2ea:	1c19      	adds	r1, r3, #0
    d2ec:	f7fc ec62 	blx	9bb4 <_init+0x410>
    d2f0:	1c3b      	adds	r3, r7, #0
    d2f2:	3308      	adds	r3, #8
    d2f4:	1c18      	adds	r0, r3, #0
    d2f6:	f7fc eb32 	blx	995c <_init+0x1b8>
    d2fa:	1c3b      	adds	r3, r7, #0
    d2fc:	330f      	adds	r3, #15
    d2fe:	1c18      	adds	r0, r3, #0
    d300:	f7fc ebda 	blx	9ab8 <_init+0x314>
      FullLogName = FullLogName + "/Logs/" + LogName;
    d304:	687b      	ldr	r3, [r7, #4]
    d306:	1c1d      	adds	r5, r3, #0
    d308:	3514      	adds	r5, #20
    d30a:	687b      	ldr	r3, [r7, #4]
    d30c:	1c19      	adds	r1, r3, #0
    d30e:	3114      	adds	r1, #20
    d310:	1c3b      	adds	r3, r7, #0
    d312:	3314      	adds	r3, #20
    d314:	4a14      	ldr	r2, [pc, #80]	(d368 <_ZN9arlogging7LoggingC1ESs+0xf4>)
    d316:	1c18      	adds	r0, r3, #0
    d318:	f000 f8a4 	bl	d464 <_ZStplIcSt11char_traitsIcESaIcEESbIT_T0_T1_ERKS6_PKS3_>
    d31c:	687b      	ldr	r3, [r7, #4]
    d31e:	1c1c      	adds	r4, r3, #0
    d320:	3410      	adds	r4, #16
    d322:	1c3b      	adds	r3, r7, #0
    d324:	3310      	adds	r3, #16
    d326:	1c3a      	adds	r2, r7, #0
    d328:	3214      	adds	r2, #20
    d32a:	1c18      	adds	r0, r3, #0
    d32c:	1c11      	adds	r1, r2, #0
    d32e:	1c22      	adds	r2, r4, #0
    d330:	f7ff f8d2 	bl	c4d8 <_ZStplIcSt11char_traitsIcESaIcEESbIT_T0_T1_ERKS6_S8_>
    d334:	1c3b      	adds	r3, r7, #0
    d336:	3310      	adds	r3, #16
    d338:	1c28      	adds	r0, r5, #0
    d33a:	1c19      	adds	r1, r3, #0
    d33c:	f7fc ec3a 	blx	9bb4 <_init+0x410>
    d340:	1c3b      	adds	r3, r7, #0
    d342:	3310      	adds	r3, #16
    d344:	1c18      	adds	r0, r3, #0
    d346:	f7fc eb0a 	blx	995c <_init+0x1b8>
    d34a:	1c3b      	adds	r3, r7, #0
    d34c:	3314      	adds	r3, #20
    d34e:	1c18      	adds	r0, r3, #0
    d350:	f7fc eb04 	blx	995c <_init+0x1b8>
    }
    d354:	687b      	ldr	r3, [r7, #4]
    d356:	1c18      	adds	r0, r3, #0
    d358:	46bd      	mov	sp, r7
    d35a:	b006      	add	sp, #24
    d35c:	bdb0      	pop	{r4, r5, r7, pc}
    d35e:	46c0      	nop			(mov r8, r8)
    d360:	0000dd44 	.word	0x0000dd44
    d364:	000001ff 	.word	0x000001ff
    d368:	0000dd1c 	.word	0x0000dd1c

0000d36c <_ZN9arlogging7LoggingC2ESs>:



namespace arlogging
{
    Logging::Logging(string FileName)
    d36c:	b5b0      	push	{r4, r5, r7, lr}
    d36e:	b086      	sub	sp, #24
    d370:	af00      	add	r7, sp, #0
    d372:	6078      	str	r0, [r7, #4]
    d374:	6039      	str	r1, [r7, #0]
    d376:	687b      	ldr	r3, [r7, #4]
    d378:	3308      	adds	r3, #8
    d37a:	1c18      	adds	r0, r3, #0
    d37c:	f7fc ea2e 	blx	97dc <_init+0x38>
    d380:	687b      	ldr	r3, [r7, #4]
    d382:	3310      	adds	r3, #16
    d384:	1c18      	adds	r0, r3, #0
    d386:	f7fc ea2a 	blx	97dc <_init+0x38>
    d38a:	687b      	ldr	r3, [r7, #4]
    d38c:	3314      	adds	r3, #20
    d38e:	1c18      	adds	r0, r3, #0
    d390:	f7fc ea24 	blx	97dc <_init+0x38>
    {
      //LogPath = new char[PATH_MAX];
      LogPath = get_current_dir_name();
    d394:	f7fc eaa6 	blx	98e4 <_init+0x140>
    d398:	1c02      	adds	r2, r0, #0
    d39a:	687b      	ldr	r3, [r7, #4]
    d39c:	601a      	str	r2, [r3, #0]
      LogName = FileName;
    d39e:	687b      	ldr	r3, [r7, #4]
    d3a0:	3310      	adds	r3, #16
    d3a2:	683a      	ldr	r2, [r7, #0]
    d3a4:	1c18      	adds	r0, r3, #0
    d3a6:	1c11      	adds	r1, r2, #0
    d3a8:	f7fc ec04 	blx	9bb4 <_init+0x410>
      mkdir("Logs", 0777);
    d3ac:	4b2a      	ldr	r3, [pc, #168]	(d458 <_ZN9arlogging7LoggingC2ESs+0xec>)
    d3ae:	4a2b      	ldr	r2, [pc, #172]	(d45c <_ZN9arlogging7LoggingC2ESs+0xf0>)
    d3b0:	1c18      	adds	r0, r3, #0
    d3b2:	1c11      	adds	r1, r2, #0
    d3b4:	f7fc ea24 	blx	9800 <_init+0x5c>
      FullLogName = string(LogPath);
    d3b8:	687b      	ldr	r3, [r7, #4]
    d3ba:	1c1d      	adds	r5, r3, #0
    d3bc:	3514      	adds	r5, #20
    d3be:	687b      	ldr	r3, [r7, #4]
    d3c0:	681c      	ldr	r4, [r3, #0]
    d3c2:	1c3b      	adds	r3, r7, #0
    d3c4:	330f      	adds	r3, #15
    d3c6:	1c18      	adds	r0, r3, #0
    d3c8:	f7fc ebdc 	blx	9b84 <_init+0x3e0>
    d3cc:	1c3b      	adds	r3, r7, #0
    d3ce:	3308      	adds	r3, #8
    d3d0:	1c3a      	adds	r2, r7, #0
    d3d2:	320f      	adds	r2, #15
    d3d4:	1c18      	adds	r0, r3, #0
    d3d6:	1c21      	adds	r1, r4, #0
    d3d8:	f7fc eb2c 	blx	9a34 <_init+0x290>
    d3dc:	1c3b      	adds	r3, r7, #0
    d3de:	3308      	adds	r3, #8
    d3e0:	1c28      	adds	r0, r5, #0
    d3e2:	1c19      	adds	r1, r3, #0
    d3e4:	f7fc ebe6 	blx	9bb4 <_init+0x410>
    d3e8:	1c3b      	adds	r3, r7, #0
    d3ea:	3308      	adds	r3, #8
    d3ec:	1c18      	adds	r0, r3, #0
    d3ee:	f7fc eab6 	blx	995c <_init+0x1b8>
    d3f2:	1c3b      	adds	r3, r7, #0
    d3f4:	330f      	adds	r3, #15
    d3f6:	1c18      	adds	r0, r3, #0
    d3f8:	f7fc eb5e 	blx	9ab8 <_init+0x314>
      FullLogName = FullLogName + "/Logs/" + LogName;
    d3fc:	687b      	ldr	r3, [r7, #4]
    d3fe:	1c1d      	adds	r5, r3, #0
    d400:	3514      	adds	r5, #20
    d402:	687b      	ldr	r3, [r7, #4]
    d404:	1c19      	adds	r1, r3, #0
    d406:	3114      	adds	r1, #20
    d408:	1c3b      	adds	r3, r7, #0
    d40a:	3314      	adds	r3, #20
    d40c:	4a14      	ldr	r2, [pc, #80]	(d460 <_ZN9arlogging7LoggingC2ESs+0xf4>)
    d40e:	1c18      	adds	r0, r3, #0
    d410:	f000 f828 	bl	d464 <_ZStplIcSt11char_traitsIcESaIcEESbIT_T0_T1_ERKS6_PKS3_>
    d414:	687b      	ldr	r3, [r7, #4]
    d416:	1c1c      	adds	r4, r3, #0
    d418:	3410      	adds	r4, #16
    d41a:	1c3b      	adds	r3, r7, #0
    d41c:	3310      	adds	r3, #16
    d41e:	1c3a      	adds	r2, r7, #0
    d420:	3214      	adds	r2, #20
    d422:	1c18      	adds	r0, r3, #0
    d424:	1c11      	adds	r1, r2, #0
    d426:	1c22      	adds	r2, r4, #0
    d428:	f7ff f856 	bl	c4d8 <_ZStplIcSt11char_traitsIcESaIcEESbIT_T0_T1_ERKS6_S8_>
    d42c:	1c3b      	adds	r3, r7, #0
    d42e:	3310      	adds	r3, #16
    d430:	1c28      	adds	r0, r5, #0
    d432:	1c19      	adds	r1, r3, #0
    d434:	f7fc ebbe 	blx	9bb4 <_init+0x410>
    d438:	1c3b      	adds	r3, r7, #0
    d43a:	3310      	adds	r3, #16
    d43c:	1c18      	adds	r0, r3, #0
    d43e:	f7fc ea8e 	blx	995c <_init+0x1b8>
    d442:	1c3b      	adds	r3, r7, #0
    d444:	3314      	adds	r3, #20
    d446:	1c18      	adds	r0, r3, #0
    d448:	f7fc ea88 	blx	995c <_init+0x1b8>
    }
    d44c:	687b      	ldr	r3, [r7, #4]
    d44e:	1c18      	adds	r0, r3, #0
    d450:	46bd      	mov	sp, r7
    d452:	b006      	add	sp, #24
    d454:	bdb0      	pop	{r4, r5, r7, pc}
    d456:	46c0      	nop			(mov r8, r8)
    d458:	0000dd44 	.word	0x0000dd44
    d45c:	000001ff 	.word	0x000001ff
    d460:	0000dd1c 	.word	0x0000dd1c

0000d464 <_ZStplIcSt11char_traitsIcESaIcEESbIT_T0_T1_ERKS6_PKS3_>:
   *  @return  New string with @a lhs followed by @a rhs.
   */
  template<typename _CharT, typename _Traits, typename _Alloc>
    inline basic_string<_CharT, _Traits, _Alloc>
    operator+(const basic_string<_CharT, _Traits, _Alloc>& __lhs,
	     const _CharT* __rhs)
    d464:	b590      	push	{r4, r7, lr}
    d466:	b085      	sub	sp, #20
    d468:	af00      	add	r7, sp, #0
    d46a:	1c04      	adds	r4, r0, #0
    d46c:	6079      	str	r1, [r7, #4]
    d46e:	603a      	str	r2, [r7, #0]
    {
      basic_string<_CharT, _Traits, _Alloc> __str(__lhs);
    d470:	1c23      	adds	r3, r4, #0
    d472:	687a      	ldr	r2, [r7, #4]
    d474:	1c18      	adds	r0, r3, #0
    d476:	1c11      	adds	r1, r2, #0
    d478:	f7fc ea40 	blx	98fc <_init+0x158>
      __str.append(__rhs);
    d47c:	1c23      	adds	r3, r4, #0
    d47e:	683a      	ldr	r2, [r7, #0]
    d480:	1c18      	adds	r0, r3, #0
    d482:	1c11      	adds	r1, r2, #0
    d484:	f7fc eb2a 	blx	9adc <_init+0x338>
      return __str;
    }
    d488:	1c20      	adds	r0, r4, #0
    d48a:	1c20      	adds	r0, r4, #0
    d48c:	46bd      	mov	sp, r7
    d48e:	b005      	add	sp, #20
    d490:	bd90      	pop	{r4, r7, pc}
    d492:	46c0      	nop			(mov r8, r8)

0000d494 <_ZNSt11char_traitsIcE6lengthEPKc>:
      static int
      compare(const char_type* __s1, const char_type* __s2, size_t __n)
      { return __builtin_memcmp(__s1, __s2, __n); }

      static size_t
      length(const char_type* __s)
    d494:	b580      	push	{r7, lr}
    d496:	b082      	sub	sp, #8
    d498:	af00      	add	r7, sp, #0
    d49a:	6078      	str	r0, [r7, #4]
      { return __builtin_strlen(__s); }
    d49c:	687b      	ldr	r3, [r7, #4]
    d49e:	1c18      	adds	r0, r3, #0
    d4a0:	f7fc eaa4 	blx	99ec <_init+0x248>
    d4a4:	1c03      	adds	r3, r0, #0
    d4a6:	469c      	mov	ip, r3
    d4a8:	4663      	mov	r3, ip
    d4aa:	1c18      	adds	r0, r3, #0
    d4ac:	46bd      	mov	sp, r7
    d4ae:	b002      	add	sp, #8
    d4b0:	bd80      	pop	{r7, pc}
    d4b2:	46c0      	nop			(mov r8, r8)

0000d4b4 <_ZStplIcSt11char_traitsIcESaIcEESbIT_T0_T1_EPKS3_RKS6_>:
    }
   
  template<typename _CharT, typename _Traits, typename _Alloc>
    basic_string<_CharT, _Traits, _Alloc>
    operator+(const _CharT* __lhs,
	      const basic_string<_CharT, _Traits, _Alloc>& __rhs)
    d4b4:	b5b0      	push	{r4, r5, r7, lr}
    d4b6:	b084      	sub	sp, #16
    d4b8:	af00      	add	r7, sp, #0
    d4ba:	1c05      	adds	r5, r0, #0
    d4bc:	6079      	str	r1, [r7, #4]
    d4be:	603a      	str	r2, [r7, #0]
    {
      __glibcxx_requires_string(__lhs);
      typedef basic_string<_CharT, _Traits, _Alloc> __string_type;
      typedef typename __string_type::size_type	  __size_type;
      const __size_type __len = _Traits::length(__lhs);
    d4c0:	687b      	ldr	r3, [r7, #4]
    d4c2:	1c18      	adds	r0, r3, #0
    d4c4:	f7ff ffe6 	bl	d494 <_ZNSt11char_traitsIcE6lengthEPKc>
    d4c8:	1c03      	adds	r3, r0, #0
    d4ca:	60fb      	str	r3, [r7, #12]
      __string_type __str;
    d4cc:	1c2b      	adds	r3, r5, #0
    d4ce:	1c18      	adds	r0, r3, #0
    d4d0:	f7fc e984 	blx	97dc <_init+0x38>
      __str.reserve(__len + __rhs.size());
    d4d4:	1c2c      	adds	r4, r5, #0
    d4d6:	683b      	ldr	r3, [r7, #0]
    d4d8:	1c18      	adds	r0, r3, #0
    d4da:	f7fc e9f8 	blx	98cc <_init+0x128>
    d4de:	1c02      	adds	r2, r0, #0
    d4e0:	68fb      	ldr	r3, [r7, #12]
    d4e2:	18d3      	adds	r3, r2, r3
    d4e4:	1c20      	adds	r0, r4, #0
    d4e6:	1c19      	adds	r1, r3, #0
    d4e8:	f7fc eb82 	blx	9bf0 <_init+0x44c>
      __str.append(__lhs, __len);
    d4ec:	1c2b      	adds	r3, r5, #0
    d4ee:	687a      	ldr	r2, [r7, #4]
    d4f0:	68fc      	ldr	r4, [r7, #12]
    d4f2:	1c18      	adds	r0, r3, #0
    d4f4:	1c11      	adds	r1, r2, #0
    d4f6:	1c22      	adds	r2, r4, #0
    d4f8:	f7fc eb32 	blx	9b60 <_init+0x3bc>
      __str.append(__rhs);
    d4fc:	1c2b      	adds	r3, r5, #0
    d4fe:	683a      	ldr	r2, [r7, #0]
    d500:	1c18      	adds	r0, r3, #0
    d502:	1c11      	adds	r1, r2, #0
    d504:	f7fc eb5c 	blx	9bc0 <_init+0x41c>
      return __str;
    }
    d508:	1c28      	adds	r0, r5, #0
    d50a:	1c28      	adds	r0, r5, #0
    d50c:	46bd      	mov	sp, r7
    d50e:	b004      	add	sp, #16
    d510:	bdb0      	pop	{r4, r5, r7, pc}
    d512:	46c0      	nop			(mov r8, r8)

0000d514 <__libc_csu_fini>:
    d514:	e12fff1e 	bx	lr

0000d518 <__libc_csu_init>:
    d518:	e92d47f0 	push	{r4, r5, r6, r7, r8, r9, sl, lr}
    d51c:	e1a08001 	mov	r8, r1
    d520:	e1a07002 	mov	r7, r2
    d524:	e1a0a000 	mov	sl, r0
    d528:	ebfff09d 	bl	97a4 <_init>
    d52c:	e59f1044 	ldr	r1, [pc, #68]	; d578 <__libc_csu_init+0x60>
    d530:	e59f3044 	ldr	r3, [pc, #68]	; d57c <__libc_csu_init+0x64>
    d534:	e59f2044 	ldr	r2, [pc, #68]	; d580 <__libc_csu_init+0x68>
    d538:	e0613003 	rsb	r3, r1, r3
    d53c:	e08f2002 	add	r2, pc, r2
    d540:	e1b05143 	asrs	r5, r3, #2
    d544:	e0822001 	add	r2, r2, r1
    d548:	08bd87f0 	popeq	{r4, r5, r6, r7, r8, r9, sl, pc}
    d54c:	e1a06002 	mov	r6, r2
    d550:	e3a04000 	mov	r4, #0	; 0x0
    d554:	e1a0000a 	mov	r0, sl
    d558:	e1a01008 	mov	r1, r8
    d55c:	e1a02007 	mov	r2, r7
    d560:	e1a0e00f 	mov	lr, pc
    d564:	e796f104 	ldr	pc, [r6, r4, lsl #2]
    d568:	e2844001 	add	r4, r4, #1	; 0x1
    d56c:	e1540005 	cmp	r4, r5
    d570:	3afffff7 	bcc	d554 <__libc_csu_init+0x3c>
    d574:	e8bd87f0 	pop	{r4, r5, r6, r7, r8, r9, sl, pc}
    d578:	fffffeac 	.word	0xfffffeac
    d57c:	fffffec8 	.word	0xfffffec8
    d580:	00009058 	.word	0x00009058

Disassembly of section .fini:

0000d584 <_fini>:
    d584:	e92d4010 	push	{r4, lr}
    d588:	e8bd8010 	pop	{r4, pc}
