   1              		.cpu arm926ej-s
   2              		.eabi_attribute 27, 3
   3              		.fpu neon
   4              		.eabi_attribute 20, 1
   5              		.eabi_attribute 21, 1
   6              		.eabi_attribute 23, 3
   7              		.eabi_attribute 24, 1
   8              		.eabi_attribute 25, 1
   9              		.eabi_attribute 26, 2
  10              		.eabi_attribute 30, 6
  11              		.eabi_attribute 18, 4
  12              		.code	16
  13              		.file	"ff_writer_engine.cpp"
  23              	.Ltext0:
  24              		.file 1 "../ff_writer_engine.cpp"
 14881              		.align	2
 14882              		.weak	_ZNSt14unary_functionIiiEC2Ev
 14883              		.code	16
 14884              		.thumb_func
 14886              	_ZNSt14unary_functionIiiEC2Ev:
 14887              		.fnstart
 14888              	.LFB1358:
   1:/home/romar/CodeSourcery/Sourcery_G++_Lite/bin/../lib/gcc/arm-none-linux-gnueabi/4.3.3/../../../../arm-none-linux-gnueabi/include/c++/4.3.3/bits/stl_function.h **** // Functor implementations -*- C++ -*-
   2:/home/romar/CodeSourcery/Sourcery_G++_Lite/bin/../lib/gcc/arm-none-linux-gnueabi/4.3.3/../../../../arm-none-linux-gnueabi/include/c++/4.3.3/bits/stl_function.h **** 
   3:/home/romar/CodeSourcery/Sourcery_G++_Lite/bin/../lib/gcc/arm-none-linux-gnueabi/4.3.3/../../../../arm-none-linux-gnueabi/include/c++/4.3.3/bits/stl_function.h **** // Copyright (C) 2001, 2002, 2003, 2004, 2005, 2006, 2007
   4:/home/romar/CodeSourcery/Sourcery_G++_Lite/bin/../lib/gcc/arm-none-linux-gnueabi/4.3.3/../../../../arm-none-linux-gnueabi/include/c++/4.3.3/bits/stl_function.h **** // Free Software Foundation, Inc.
   5:/home/romar/CodeSourcery/Sourcery_G++_Lite/bin/../lib/gcc/arm-none-linux-gnueabi/4.3.3/../../../../arm-none-linux-gnueabi/include/c++/4.3.3/bits/stl_function.h **** //
   6:/home/romar/CodeSourcery/Sourcery_G++_Lite/bin/../lib/gcc/arm-none-linux-gnueabi/4.3.3/../../../../arm-none-linux-gnueabi/include/c++/4.3.3/bits/stl_function.h **** // This file is part of the GNU ISO C++ Library.  This library is free
   7:/home/romar/CodeSourcery/Sourcery_G++_Lite/bin/../lib/gcc/arm-none-linux-gnueabi/4.3.3/../../../../arm-none-linux-gnueabi/include/c++/4.3.3/bits/stl_function.h **** // software; you can redistribute it and/or modify it under the
   8:/home/romar/CodeSourcery/Sourcery_G++_Lite/bin/../lib/gcc/arm-none-linux-gnueabi/4.3.3/../../../../arm-none-linux-gnueabi/include/c++/4.3.3/bits/stl_function.h **** // terms of the GNU General Public License as published by the
   9:/home/romar/CodeSourcery/Sourcery_G++_Lite/bin/../lib/gcc/arm-none-linux-gnueabi/4.3.3/../../../../arm-none-linux-gnueabi/include/c++/4.3.3/bits/stl_function.h **** // Free Software Foundation; either version 2, or (at your option)
  10:/home/romar/CodeSourcery/Sourcery_G++_Lite/bin/../lib/gcc/arm-none-linux-gnueabi/4.3.3/../../../../arm-none-linux-gnueabi/include/c++/4.3.3/bits/stl_function.h **** // any later version.
  11:/home/romar/CodeSourcery/Sourcery_G++_Lite/bin/../lib/gcc/arm-none-linux-gnueabi/4.3.3/../../../../arm-none-linux-gnueabi/include/c++/4.3.3/bits/stl_function.h **** 
  12:/home/romar/CodeSourcery/Sourcery_G++_Lite/bin/../lib/gcc/arm-none-linux-gnueabi/4.3.3/../../../../arm-none-linux-gnueabi/include/c++/4.3.3/bits/stl_function.h **** // This library is distributed in the hope that it will be useful,
  13:/home/romar/CodeSourcery/Sourcery_G++_Lite/bin/../lib/gcc/arm-none-linux-gnueabi/4.3.3/../../../../arm-none-linux-gnueabi/include/c++/4.3.3/bits/stl_function.h **** // but WITHOUT ANY WARRANTY; without even the implied warranty of
  14:/home/romar/CodeSourcery/Sourcery_G++_Lite/bin/../lib/gcc/arm-none-linux-gnueabi/4.3.3/../../../../arm-none-linux-gnueabi/include/c++/4.3.3/bits/stl_function.h **** // MERCHANTABILITY or FITNESS FOR A PARTICULAR PURPOSE.  See the
  15:/home/romar/CodeSourcery/Sourcery_G++_Lite/bin/../lib/gcc/arm-none-linux-gnueabi/4.3.3/../../../../arm-none-linux-gnueabi/include/c++/4.3.3/bits/stl_function.h **** // GNU General Public License for more details.
  16:/home/romar/CodeSourcery/Sourcery_G++_Lite/bin/../lib/gcc/arm-none-linux-gnueabi/4.3.3/../../../../arm-none-linux-gnueabi/include/c++/4.3.3/bits/stl_function.h **** 
  17:/home/romar/CodeSourcery/Sourcery_G++_Lite/bin/../lib/gcc/arm-none-linux-gnueabi/4.3.3/../../../../arm-none-linux-gnueabi/include/c++/4.3.3/bits/stl_function.h **** // You should have received a copy of the GNU General Public License along
  18:/home/romar/CodeSourcery/Sourcery_G++_Lite/bin/../lib/gcc/arm-none-linux-gnueabi/4.3.3/../../../../arm-none-linux-gnueabi/include/c++/4.3.3/bits/stl_function.h **** // with this library; see the file COPYING.  If not, write to the Free
  19:/home/romar/CodeSourcery/Sourcery_G++_Lite/bin/../lib/gcc/arm-none-linux-gnueabi/4.3.3/../../../../arm-none-linux-gnueabi/include/c++/4.3.3/bits/stl_function.h **** // Software Foundation, 51 Franklin Street, Fifth Floor, Boston, MA 02110-1301,
  20:/home/romar/CodeSourcery/Sourcery_G++_Lite/bin/../lib/gcc/arm-none-linux-gnueabi/4.3.3/../../../../arm-none-linux-gnueabi/include/c++/4.3.3/bits/stl_function.h **** // USA.
  21:/home/romar/CodeSourcery/Sourcery_G++_Lite/bin/../lib/gcc/arm-none-linux-gnueabi/4.3.3/../../../../arm-none-linux-gnueabi/include/c++/4.3.3/bits/stl_function.h **** 
  22:/home/romar/CodeSourcery/Sourcery_G++_Lite/bin/../lib/gcc/arm-none-linux-gnueabi/4.3.3/../../../../arm-none-linux-gnueabi/include/c++/4.3.3/bits/stl_function.h **** // As a special exception, you may use this file as part of a free software
  23:/home/romar/CodeSourcery/Sourcery_G++_Lite/bin/../lib/gcc/arm-none-linux-gnueabi/4.3.3/../../../../arm-none-linux-gnueabi/include/c++/4.3.3/bits/stl_function.h **** // library without restriction.  Specifically, if other files instantiate
  24:/home/romar/CodeSourcery/Sourcery_G++_Lite/bin/../lib/gcc/arm-none-linux-gnueabi/4.3.3/../../../../arm-none-linux-gnueabi/include/c++/4.3.3/bits/stl_function.h **** // templates or use macros or inline functions from this file, or you compile
  25:/home/romar/CodeSourcery/Sourcery_G++_Lite/bin/../lib/gcc/arm-none-linux-gnueabi/4.3.3/../../../../arm-none-linux-gnueabi/include/c++/4.3.3/bits/stl_function.h **** // this file and link it with other files to produce an executable, this
  26:/home/romar/CodeSourcery/Sourcery_G++_Lite/bin/../lib/gcc/arm-none-linux-gnueabi/4.3.3/../../../../arm-none-linux-gnueabi/include/c++/4.3.3/bits/stl_function.h **** // file does not by itself cause the resulting executable to be covered by
  27:/home/romar/CodeSourcery/Sourcery_G++_Lite/bin/../lib/gcc/arm-none-linux-gnueabi/4.3.3/../../../../arm-none-linux-gnueabi/include/c++/4.3.3/bits/stl_function.h **** // the GNU General Public License.  This exception does not however
  28:/home/romar/CodeSourcery/Sourcery_G++_Lite/bin/../lib/gcc/arm-none-linux-gnueabi/4.3.3/../../../../arm-none-linux-gnueabi/include/c++/4.3.3/bits/stl_function.h **** // invalidate any other reasons why the executable file might be covered by
  29:/home/romar/CodeSourcery/Sourcery_G++_Lite/bin/../lib/gcc/arm-none-linux-gnueabi/4.3.3/../../../../arm-none-linux-gnueabi/include/c++/4.3.3/bits/stl_function.h **** // the GNU General Public License.
  30:/home/romar/CodeSourcery/Sourcery_G++_Lite/bin/../lib/gcc/arm-none-linux-gnueabi/4.3.3/../../../../arm-none-linux-gnueabi/include/c++/4.3.3/bits/stl_function.h **** 
  31:/home/romar/CodeSourcery/Sourcery_G++_Lite/bin/../lib/gcc/arm-none-linux-gnueabi/4.3.3/../../../../arm-none-linux-gnueabi/include/c++/4.3.3/bits/stl_function.h **** /*
  32:/home/romar/CodeSourcery/Sourcery_G++_Lite/bin/../lib/gcc/arm-none-linux-gnueabi/4.3.3/../../../../arm-none-linux-gnueabi/include/c++/4.3.3/bits/stl_function.h ****  *
  33:/home/romar/CodeSourcery/Sourcery_G++_Lite/bin/../lib/gcc/arm-none-linux-gnueabi/4.3.3/../../../../arm-none-linux-gnueabi/include/c++/4.3.3/bits/stl_function.h ****  * Copyright (c) 1994
  34:/home/romar/CodeSourcery/Sourcery_G++_Lite/bin/../lib/gcc/arm-none-linux-gnueabi/4.3.3/../../../../arm-none-linux-gnueabi/include/c++/4.3.3/bits/stl_function.h ****  * Hewlett-Packard Company
  35:/home/romar/CodeSourcery/Sourcery_G++_Lite/bin/../lib/gcc/arm-none-linux-gnueabi/4.3.3/../../../../arm-none-linux-gnueabi/include/c++/4.3.3/bits/stl_function.h ****  *
  36:/home/romar/CodeSourcery/Sourcery_G++_Lite/bin/../lib/gcc/arm-none-linux-gnueabi/4.3.3/../../../../arm-none-linux-gnueabi/include/c++/4.3.3/bits/stl_function.h ****  * Permission to use, copy, modify, distribute and sell this software
  37:/home/romar/CodeSourcery/Sourcery_G++_Lite/bin/../lib/gcc/arm-none-linux-gnueabi/4.3.3/../../../../arm-none-linux-gnueabi/include/c++/4.3.3/bits/stl_function.h ****  * and its documentation for any purpose is hereby granted without fee,
  38:/home/romar/CodeSourcery/Sourcery_G++_Lite/bin/../lib/gcc/arm-none-linux-gnueabi/4.3.3/../../../../arm-none-linux-gnueabi/include/c++/4.3.3/bits/stl_function.h ****  * provided that the above copyright notice appear in all copies and
  39:/home/romar/CodeSourcery/Sourcery_G++_Lite/bin/../lib/gcc/arm-none-linux-gnueabi/4.3.3/../../../../arm-none-linux-gnueabi/include/c++/4.3.3/bits/stl_function.h ****  * that both that copyright notice and this permission notice appear
  40:/home/romar/CodeSourcery/Sourcery_G++_Lite/bin/../lib/gcc/arm-none-linux-gnueabi/4.3.3/../../../../arm-none-linux-gnueabi/include/c++/4.3.3/bits/stl_function.h ****  * in supporting documentation.  Hewlett-Packard Company makes no
  41:/home/romar/CodeSourcery/Sourcery_G++_Lite/bin/../lib/gcc/arm-none-linux-gnueabi/4.3.3/../../../../arm-none-linux-gnueabi/include/c++/4.3.3/bits/stl_function.h ****  * representations about the suitability of this software for any
  42:/home/romar/CodeSourcery/Sourcery_G++_Lite/bin/../lib/gcc/arm-none-linux-gnueabi/4.3.3/../../../../arm-none-linux-gnueabi/include/c++/4.3.3/bits/stl_function.h ****  * purpose.  It is provided "as is" without express or implied warranty.
  43:/home/romar/CodeSourcery/Sourcery_G++_Lite/bin/../lib/gcc/arm-none-linux-gnueabi/4.3.3/../../../../arm-none-linux-gnueabi/include/c++/4.3.3/bits/stl_function.h ****  *
  44:/home/romar/CodeSourcery/Sourcery_G++_Lite/bin/../lib/gcc/arm-none-linux-gnueabi/4.3.3/../../../../arm-none-linux-gnueabi/include/c++/4.3.3/bits/stl_function.h ****  *
  45:/home/romar/CodeSourcery/Sourcery_G++_Lite/bin/../lib/gcc/arm-none-linux-gnueabi/4.3.3/../../../../arm-none-linux-gnueabi/include/c++/4.3.3/bits/stl_function.h ****  * Copyright (c) 1996-1998
  46:/home/romar/CodeSourcery/Sourcery_G++_Lite/bin/../lib/gcc/arm-none-linux-gnueabi/4.3.3/../../../../arm-none-linux-gnueabi/include/c++/4.3.3/bits/stl_function.h ****  * Silicon Graphics Computer Systems, Inc.
  47:/home/romar/CodeSourcery/Sourcery_G++_Lite/bin/../lib/gcc/arm-none-linux-gnueabi/4.3.3/../../../../arm-none-linux-gnueabi/include/c++/4.3.3/bits/stl_function.h ****  *
  48:/home/romar/CodeSourcery/Sourcery_G++_Lite/bin/../lib/gcc/arm-none-linux-gnueabi/4.3.3/../../../../arm-none-linux-gnueabi/include/c++/4.3.3/bits/stl_function.h ****  * Permission to use, copy, modify, distribute and sell this software
  49:/home/romar/CodeSourcery/Sourcery_G++_Lite/bin/../lib/gcc/arm-none-linux-gnueabi/4.3.3/../../../../arm-none-linux-gnueabi/include/c++/4.3.3/bits/stl_function.h ****  * and its documentation for any purpose is hereby granted without fee,
  50:/home/romar/CodeSourcery/Sourcery_G++_Lite/bin/../lib/gcc/arm-none-linux-gnueabi/4.3.3/../../../../arm-none-linux-gnueabi/include/c++/4.3.3/bits/stl_function.h ****  * provided that the above copyright notice appear in all copies and
  51:/home/romar/CodeSourcery/Sourcery_G++_Lite/bin/../lib/gcc/arm-none-linux-gnueabi/4.3.3/../../../../arm-none-linux-gnueabi/include/c++/4.3.3/bits/stl_function.h ****  * that both that copyright notice and this permission notice appear
  52:/home/romar/CodeSourcery/Sourcery_G++_Lite/bin/../lib/gcc/arm-none-linux-gnueabi/4.3.3/../../../../arm-none-linux-gnueabi/include/c++/4.3.3/bits/stl_function.h ****  * in supporting documentation.  Silicon Graphics makes no
  53:/home/romar/CodeSourcery/Sourcery_G++_Lite/bin/../lib/gcc/arm-none-linux-gnueabi/4.3.3/../../../../arm-none-linux-gnueabi/include/c++/4.3.3/bits/stl_function.h ****  * representations about the suitability of this software for any
  54:/home/romar/CodeSourcery/Sourcery_G++_Lite/bin/../lib/gcc/arm-none-linux-gnueabi/4.3.3/../../../../arm-none-linux-gnueabi/include/c++/4.3.3/bits/stl_function.h ****  * purpose.  It is provided "as is" without express or implied warranty.
  55:/home/romar/CodeSourcery/Sourcery_G++_Lite/bin/../lib/gcc/arm-none-linux-gnueabi/4.3.3/../../../../arm-none-linux-gnueabi/include/c++/4.3.3/bits/stl_function.h ****  */
  56:/home/romar/CodeSourcery/Sourcery_G++_Lite/bin/../lib/gcc/arm-none-linux-gnueabi/4.3.3/../../../../arm-none-linux-gnueabi/include/c++/4.3.3/bits/stl_function.h **** 
  57:/home/romar/CodeSourcery/Sourcery_G++_Lite/bin/../lib/gcc/arm-none-linux-gnueabi/4.3.3/../../../../arm-none-linux-gnueabi/include/c++/4.3.3/bits/stl_function.h **** /** @file stl_function.h
  58:/home/romar/CodeSourcery/Sourcery_G++_Lite/bin/../lib/gcc/arm-none-linux-gnueabi/4.3.3/../../../../arm-none-linux-gnueabi/include/c++/4.3.3/bits/stl_function.h ****  *  This is an internal header file, included by other library headers.
  59:/home/romar/CodeSourcery/Sourcery_G++_Lite/bin/../lib/gcc/arm-none-linux-gnueabi/4.3.3/../../../../arm-none-linux-gnueabi/include/c++/4.3.3/bits/stl_function.h ****  *  You should not attempt to use it directly.
  60:/home/romar/CodeSourcery/Sourcery_G++_Lite/bin/../lib/gcc/arm-none-linux-gnueabi/4.3.3/../../../../arm-none-linux-gnueabi/include/c++/4.3.3/bits/stl_function.h ****  */
  61:/home/romar/CodeSourcery/Sourcery_G++_Lite/bin/../lib/gcc/arm-none-linux-gnueabi/4.3.3/../../../../arm-none-linux-gnueabi/include/c++/4.3.3/bits/stl_function.h **** 
  62:/home/romar/CodeSourcery/Sourcery_G++_Lite/bin/../lib/gcc/arm-none-linux-gnueabi/4.3.3/../../../../arm-none-linux-gnueabi/include/c++/4.3.3/bits/stl_function.h **** #ifndef _STL_FUNCTION_H
  63:/home/romar/CodeSourcery/Sourcery_G++_Lite/bin/../lib/gcc/arm-none-linux-gnueabi/4.3.3/../../../../arm-none-linux-gnueabi/include/c++/4.3.3/bits/stl_function.h **** #define _STL_FUNCTION_H 1
  64:/home/romar/CodeSourcery/Sourcery_G++_Lite/bin/../lib/gcc/arm-none-linux-gnueabi/4.3.3/../../../../arm-none-linux-gnueabi/include/c++/4.3.3/bits/stl_function.h **** 
  65:/home/romar/CodeSourcery/Sourcery_G++_Lite/bin/../lib/gcc/arm-none-linux-gnueabi/4.3.3/../../../../arm-none-linux-gnueabi/include/c++/4.3.3/bits/stl_function.h **** _GLIBCXX_BEGIN_NAMESPACE(std)
  66:/home/romar/CodeSourcery/Sourcery_G++_Lite/bin/../lib/gcc/arm-none-linux-gnueabi/4.3.3/../../../../arm-none-linux-gnueabi/include/c++/4.3.3/bits/stl_function.h **** 
  67:/home/romar/CodeSourcery/Sourcery_G++_Lite/bin/../lib/gcc/arm-none-linux-gnueabi/4.3.3/../../../../arm-none-linux-gnueabi/include/c++/4.3.3/bits/stl_function.h ****   // 20.3.1 base classes
  68:/home/romar/CodeSourcery/Sourcery_G++_Lite/bin/../lib/gcc/arm-none-linux-gnueabi/4.3.3/../../../../arm-none-linux-gnueabi/include/c++/4.3.3/bits/stl_function.h ****   /** @defgroup s20_3_1_base Functor Base Classes
  69:/home/romar/CodeSourcery/Sourcery_G++_Lite/bin/../lib/gcc/arm-none-linux-gnueabi/4.3.3/../../../../arm-none-linux-gnueabi/include/c++/4.3.3/bits/stl_function.h ****    *  Function objects, or @e functors, are objects with an @c operator()
  70:/home/romar/CodeSourcery/Sourcery_G++_Lite/bin/../lib/gcc/arm-none-linux-gnueabi/4.3.3/../../../../arm-none-linux-gnueabi/include/c++/4.3.3/bits/stl_function.h ****    *  defined and accessible.  They can be passed as arguments to algorithm
  71:/home/romar/CodeSourcery/Sourcery_G++_Lite/bin/../lib/gcc/arm-none-linux-gnueabi/4.3.3/../../../../arm-none-linux-gnueabi/include/c++/4.3.3/bits/stl_function.h ****    *  templates and used in place of a function pointer.  Not only is the
  72:/home/romar/CodeSourcery/Sourcery_G++_Lite/bin/../lib/gcc/arm-none-linux-gnueabi/4.3.3/../../../../arm-none-linux-gnueabi/include/c++/4.3.3/bits/stl_function.h ****    *  resulting expressiveness of the library increased, but the generated
  73:/home/romar/CodeSourcery/Sourcery_G++_Lite/bin/../lib/gcc/arm-none-linux-gnueabi/4.3.3/../../../../arm-none-linux-gnueabi/include/c++/4.3.3/bits/stl_function.h ****    *  code can be more efficient than what you might write by hand.  When we
  74:/home/romar/CodeSourcery/Sourcery_G++_Lite/bin/../lib/gcc/arm-none-linux-gnueabi/4.3.3/../../../../arm-none-linux-gnueabi/include/c++/4.3.3/bits/stl_function.h ****    *  refer to "functors," then, generally we include function pointers in
  75:/home/romar/CodeSourcery/Sourcery_G++_Lite/bin/../lib/gcc/arm-none-linux-gnueabi/4.3.3/../../../../arm-none-linux-gnueabi/include/c++/4.3.3/bits/stl_function.h ****    *  the description as well.
  76:/home/romar/CodeSourcery/Sourcery_G++_Lite/bin/../lib/gcc/arm-none-linux-gnueabi/4.3.3/../../../../arm-none-linux-gnueabi/include/c++/4.3.3/bits/stl_function.h ****    *
  77:/home/romar/CodeSourcery/Sourcery_G++_Lite/bin/../lib/gcc/arm-none-linux-gnueabi/4.3.3/../../../../arm-none-linux-gnueabi/include/c++/4.3.3/bits/stl_function.h ****    *  Often, functors are only created as temporaries passed to algorithm
  78:/home/romar/CodeSourcery/Sourcery_G++_Lite/bin/../lib/gcc/arm-none-linux-gnueabi/4.3.3/../../../../arm-none-linux-gnueabi/include/c++/4.3.3/bits/stl_function.h ****    *  calls, rather than being created as named variables.
  79:/home/romar/CodeSourcery/Sourcery_G++_Lite/bin/../lib/gcc/arm-none-linux-gnueabi/4.3.3/../../../../arm-none-linux-gnueabi/include/c++/4.3.3/bits/stl_function.h ****    *
  80:/home/romar/CodeSourcery/Sourcery_G++_Lite/bin/../lib/gcc/arm-none-linux-gnueabi/4.3.3/../../../../arm-none-linux-gnueabi/include/c++/4.3.3/bits/stl_function.h ****    *  Two examples taken from the standard itself follow.  To perform a
  81:/home/romar/CodeSourcery/Sourcery_G++_Lite/bin/../lib/gcc/arm-none-linux-gnueabi/4.3.3/../../../../arm-none-linux-gnueabi/include/c++/4.3.3/bits/stl_function.h ****    *  by-element addition of two vectors @c a and @c b containing @c double,
  82:/home/romar/CodeSourcery/Sourcery_G++_Lite/bin/../lib/gcc/arm-none-linux-gnueabi/4.3.3/../../../../arm-none-linux-gnueabi/include/c++/4.3.3/bits/stl_function.h ****    *  and put the result in @c a, use
  83:/home/romar/CodeSourcery/Sourcery_G++_Lite/bin/../lib/gcc/arm-none-linux-gnueabi/4.3.3/../../../../arm-none-linux-gnueabi/include/c++/4.3.3/bits/stl_function.h ****    *  \code
  84:/home/romar/CodeSourcery/Sourcery_G++_Lite/bin/../lib/gcc/arm-none-linux-gnueabi/4.3.3/../../../../arm-none-linux-gnueabi/include/c++/4.3.3/bits/stl_function.h ****    *  transform (a.begin(), a.end(), b.begin(), a.begin(), plus<double>());
  85:/home/romar/CodeSourcery/Sourcery_G++_Lite/bin/../lib/gcc/arm-none-linux-gnueabi/4.3.3/../../../../arm-none-linux-gnueabi/include/c++/4.3.3/bits/stl_function.h ****    *  \endcode
  86:/home/romar/CodeSourcery/Sourcery_G++_Lite/bin/../lib/gcc/arm-none-linux-gnueabi/4.3.3/../../../../arm-none-linux-gnueabi/include/c++/4.3.3/bits/stl_function.h ****    *  To negate every element in @c a, use
  87:/home/romar/CodeSourcery/Sourcery_G++_Lite/bin/../lib/gcc/arm-none-linux-gnueabi/4.3.3/../../../../arm-none-linux-gnueabi/include/c++/4.3.3/bits/stl_function.h ****    *  \code
  88:/home/romar/CodeSourcery/Sourcery_G++_Lite/bin/../lib/gcc/arm-none-linux-gnueabi/4.3.3/../../../../arm-none-linux-gnueabi/include/c++/4.3.3/bits/stl_function.h ****    *  transform(a.begin(), a.end(), a.begin(), negate<double>());
  89:/home/romar/CodeSourcery/Sourcery_G++_Lite/bin/../lib/gcc/arm-none-linux-gnueabi/4.3.3/../../../../arm-none-linux-gnueabi/include/c++/4.3.3/bits/stl_function.h ****    *  \endcode
  90:/home/romar/CodeSourcery/Sourcery_G++_Lite/bin/../lib/gcc/arm-none-linux-gnueabi/4.3.3/../../../../arm-none-linux-gnueabi/include/c++/4.3.3/bits/stl_function.h ****    *  The addition and negation functions will be inlined directly.
  91:/home/romar/CodeSourcery/Sourcery_G++_Lite/bin/../lib/gcc/arm-none-linux-gnueabi/4.3.3/../../../../arm-none-linux-gnueabi/include/c++/4.3.3/bits/stl_function.h ****    *
  92:/home/romar/CodeSourcery/Sourcery_G++_Lite/bin/../lib/gcc/arm-none-linux-gnueabi/4.3.3/../../../../arm-none-linux-gnueabi/include/c++/4.3.3/bits/stl_function.h ****    *  The standard functors are derived from structs named @c unary_function
  93:/home/romar/CodeSourcery/Sourcery_G++_Lite/bin/../lib/gcc/arm-none-linux-gnueabi/4.3.3/../../../../arm-none-linux-gnueabi/include/c++/4.3.3/bits/stl_function.h ****    *  and @c binary_function.  These two classes contain nothing but typedefs,
  94:/home/romar/CodeSourcery/Sourcery_G++_Lite/bin/../lib/gcc/arm-none-linux-gnueabi/4.3.3/../../../../arm-none-linux-gnueabi/include/c++/4.3.3/bits/stl_function.h ****    *  to aid in generic (template) programming.  If you write your own
  95:/home/romar/CodeSourcery/Sourcery_G++_Lite/bin/../lib/gcc/arm-none-linux-gnueabi/4.3.3/../../../../arm-none-linux-gnueabi/include/c++/4.3.3/bits/stl_function.h ****    *  functors, you might consider doing the same.
  96:/home/romar/CodeSourcery/Sourcery_G++_Lite/bin/../lib/gcc/arm-none-linux-gnueabi/4.3.3/../../../../arm-none-linux-gnueabi/include/c++/4.3.3/bits/stl_function.h ****    *
  97:/home/romar/CodeSourcery/Sourcery_G++_Lite/bin/../lib/gcc/arm-none-linux-gnueabi/4.3.3/../../../../arm-none-linux-gnueabi/include/c++/4.3.3/bits/stl_function.h ****    *  @{
  98:/home/romar/CodeSourcery/Sourcery_G++_Lite/bin/../lib/gcc/arm-none-linux-gnueabi/4.3.3/../../../../arm-none-linux-gnueabi/include/c++/4.3.3/bits/stl_function.h ****    */
  99:/home/romar/CodeSourcery/Sourcery_G++_Lite/bin/../lib/gcc/arm-none-linux-gnueabi/4.3.3/../../../../arm-none-linux-gnueabi/include/c++/4.3.3/bits/stl_function.h ****   /**
 100:/home/romar/CodeSourcery/Sourcery_G++_Lite/bin/../lib/gcc/arm-none-linux-gnueabi/4.3.3/../../../../arm-none-linux-gnueabi/include/c++/4.3.3/bits/stl_function.h ****    *  This is one of the @link s20_3_1_base functor base classes@endlink.
 101:/home/romar/CodeSourcery/Sourcery_G++_Lite/bin/../lib/gcc/arm-none-linux-gnueabi/4.3.3/../../../../arm-none-linux-gnueabi/include/c++/4.3.3/bits/stl_function.h ****    */
 102:/home/romar/CodeSourcery/Sourcery_G++_Lite/bin/../lib/gcc/arm-none-linux-gnueabi/4.3.3/../../../../arm-none-linux-gnueabi/include/c++/4.3.3/bits/stl_function.h ****   template<typename _Arg, typename _Result>
 103:/home/romar/CodeSourcery/Sourcery_G++_Lite/bin/../lib/gcc/arm-none-linux-gnueabi/4.3.3/../../../../arm-none-linux-gnueabi/include/c++/4.3.3/bits/stl_function.h ****     struct unary_function
 104:/home/romar/CodeSourcery/Sourcery_G++_Lite/bin/../lib/gcc/arm-none-linux-gnueabi/4.3.3/../../../../arm-none-linux-gnueabi/include/c++/4.3.3/bits/stl_function.h ****     {
 14889              		.loc 61 104 0
 14890              		.save	{r7, lr}
 14891 0000 80B5     		push	{r7, lr}
 14892              	.LCFI0:
 14893              		.pad #8
 14894 0002 82B0     		sub	sp, sp, #8
 14895              	.LCFI1:
 14896              		.setfp r7, sp, #0
 14897 0004 00AF     		add	r7, sp, #0
 14898              	.LCFI2:
 14899 0006 7860     		str	r0, [r7, #4]
 14900              		.loc 61 104 0
 14901 0008 7B68     		ldr	r3, [r7, #4]
 14902 000a 181C     		mov	r0, r3
 14903 000c BD46     		mov	sp, r7
 14904 000e 02B0     		add	sp, sp, #8
 14905              		@ sp needed for prologue
 14906 0010 80BD     		pop	{r7, pc}
 14907              	.LFE1358:
 14908              		.fnend
 14910 0012 C046     		.section	.text._ZNSt25pointer_to_unary_functionIiiEC1EPFiiE,"axG",%progbits,_ZNSt25pointer_to_unar
 14911              		.align	2
 14912              		.weak	_ZNSt25pointer_to_unary_functionIiiEC1EPFiiE
 14913              		.code	16
 14914              		.thumb_func
 14916              	_ZNSt25pointer_to_unary_functionIiiEC1EPFiiE:
 14917              		.fnstart
 14918              	.LFB1361:
 105:/home/romar/CodeSourcery/Sourcery_G++_Lite/bin/../lib/gcc/arm-none-linux-gnueabi/4.3.3/../../../../arm-none-linux-gnueabi/include/c++/4.3.3/bits/stl_function.h ****       typedef _Arg argument_type;   ///< @c argument_type is the type of the
 106:/home/romar/CodeSourcery/Sourcery_G++_Lite/bin/../lib/gcc/arm-none-linux-gnueabi/4.3.3/../../../../arm-none-linux-gnueabi/include/c++/4.3.3/bits/stl_function.h ****                                     ///     argument (no surprises here)
 107:/home/romar/CodeSourcery/Sourcery_G++_Lite/bin/../lib/gcc/arm-none-linux-gnueabi/4.3.3/../../../../arm-none-linux-gnueabi/include/c++/4.3.3/bits/stl_function.h **** 
 108:/home/romar/CodeSourcery/Sourcery_G++_Lite/bin/../lib/gcc/arm-none-linux-gnueabi/4.3.3/../../../../arm-none-linux-gnueabi/include/c++/4.3.3/bits/stl_function.h ****       typedef _Result result_type;  ///< @c result_type is the return type
 109:/home/romar/CodeSourcery/Sourcery_G++_Lite/bin/../lib/gcc/arm-none-linux-gnueabi/4.3.3/../../../../arm-none-linux-gnueabi/include/c++/4.3.3/bits/stl_function.h ****     };
 110:/home/romar/CodeSourcery/Sourcery_G++_Lite/bin/../lib/gcc/arm-none-linux-gnueabi/4.3.3/../../../../arm-none-linux-gnueabi/include/c++/4.3.3/bits/stl_function.h **** 
 111:/home/romar/CodeSourcery/Sourcery_G++_Lite/bin/../lib/gcc/arm-none-linux-gnueabi/4.3.3/../../../../arm-none-linux-gnueabi/include/c++/4.3.3/bits/stl_function.h ****   /**
 112:/home/romar/CodeSourcery/Sourcery_G++_Lite/bin/../lib/gcc/arm-none-linux-gnueabi/4.3.3/../../../../arm-none-linux-gnueabi/include/c++/4.3.3/bits/stl_function.h ****    *  This is one of the @link s20_3_1_base functor base classes@endlink.
 113:/home/romar/CodeSourcery/Sourcery_G++_Lite/bin/../lib/gcc/arm-none-linux-gnueabi/4.3.3/../../../../arm-none-linux-gnueabi/include/c++/4.3.3/bits/stl_function.h ****    */
 114:/home/romar/CodeSourcery/Sourcery_G++_Lite/bin/../lib/gcc/arm-none-linux-gnueabi/4.3.3/../../../../arm-none-linux-gnueabi/include/c++/4.3.3/bits/stl_function.h ****   template<typename _Arg1, typename _Arg2, typename _Result>
 115:/home/romar/CodeSourcery/Sourcery_G++_Lite/bin/../lib/gcc/arm-none-linux-gnueabi/4.3.3/../../../../arm-none-linux-gnueabi/include/c++/4.3.3/bits/stl_function.h ****     struct binary_function
 116:/home/romar/CodeSourcery/Sourcery_G++_Lite/bin/../lib/gcc/arm-none-linux-gnueabi/4.3.3/../../../../arm-none-linux-gnueabi/include/c++/4.3.3/bits/stl_function.h ****     {
 117:/home/romar/CodeSourcery/Sourcery_G++_Lite/bin/../lib/gcc/arm-none-linux-gnueabi/4.3.3/../../../../arm-none-linux-gnueabi/include/c++/4.3.3/bits/stl_function.h ****       typedef _Arg1 first_argument_type;   ///< the type of the first argument
 118:/home/romar/CodeSourcery/Sourcery_G++_Lite/bin/../lib/gcc/arm-none-linux-gnueabi/4.3.3/../../../../arm-none-linux-gnueabi/include/c++/4.3.3/bits/stl_function.h ****                                            ///  (no surprises here)
 119:/home/romar/CodeSourcery/Sourcery_G++_Lite/bin/../lib/gcc/arm-none-linux-gnueabi/4.3.3/../../../../arm-none-linux-gnueabi/include/c++/4.3.3/bits/stl_function.h **** 
 120:/home/romar/CodeSourcery/Sourcery_G++_Lite/bin/../lib/gcc/arm-none-linux-gnueabi/4.3.3/../../../../arm-none-linux-gnueabi/include/c++/4.3.3/bits/stl_function.h ****       typedef _Arg2 second_argument_type;  ///< the type of the second argument
 121:/home/romar/CodeSourcery/Sourcery_G++_Lite/bin/../lib/gcc/arm-none-linux-gnueabi/4.3.3/../../../../arm-none-linux-gnueabi/include/c++/4.3.3/bits/stl_function.h ****       typedef _Result result_type;         ///< type of the return type
 122:/home/romar/CodeSourcery/Sourcery_G++_Lite/bin/../lib/gcc/arm-none-linux-gnueabi/4.3.3/../../../../arm-none-linux-gnueabi/include/c++/4.3.3/bits/stl_function.h ****     };
 123:/home/romar/CodeSourcery/Sourcery_G++_Lite/bin/../lib/gcc/arm-none-linux-gnueabi/4.3.3/../../../../arm-none-linux-gnueabi/include/c++/4.3.3/bits/stl_function.h ****   /** @}  */
 124:/home/romar/CodeSourcery/Sourcery_G++_Lite/bin/../lib/gcc/arm-none-linux-gnueabi/4.3.3/../../../../arm-none-linux-gnueabi/include/c++/4.3.3/bits/stl_function.h **** 
 125:/home/romar/CodeSourcery/Sourcery_G++_Lite/bin/../lib/gcc/arm-none-linux-gnueabi/4.3.3/../../../../arm-none-linux-gnueabi/include/c++/4.3.3/bits/stl_function.h ****   // 20.3.2 arithmetic
 126:/home/romar/CodeSourcery/Sourcery_G++_Lite/bin/../lib/gcc/arm-none-linux-gnueabi/4.3.3/../../../../arm-none-linux-gnueabi/include/c++/4.3.3/bits/stl_function.h ****   /** @defgroup s20_3_2_arithmetic Arithmetic Classes
 127:/home/romar/CodeSourcery/Sourcery_G++_Lite/bin/../lib/gcc/arm-none-linux-gnueabi/4.3.3/../../../../arm-none-linux-gnueabi/include/c++/4.3.3/bits/stl_function.h **** 
 128:/home/romar/CodeSourcery/Sourcery_G++_Lite/bin/../lib/gcc/arm-none-linux-gnueabi/4.3.3/../../../../arm-none-linux-gnueabi/include/c++/4.3.3/bits/stl_function.h ****    *  Because basic math often needs to be done during an algorithm,
 129:/home/romar/CodeSourcery/Sourcery_G++_Lite/bin/../lib/gcc/arm-none-linux-gnueabi/4.3.3/../../../../arm-none-linux-gnueabi/include/c++/4.3.3/bits/stl_function.h ****    *  the library provides functors for those operations.  See the
 130:/home/romar/CodeSourcery/Sourcery_G++_Lite/bin/../lib/gcc/arm-none-linux-gnueabi/4.3.3/../../../../arm-none-linux-gnueabi/include/c++/4.3.3/bits/stl_function.h ****    *  documentation for @link s20_3_1_base the base classes@endlink
 131:/home/romar/CodeSourcery/Sourcery_G++_Lite/bin/../lib/gcc/arm-none-linux-gnueabi/4.3.3/../../../../arm-none-linux-gnueabi/include/c++/4.3.3/bits/stl_function.h ****    *  for examples of their use.
 132:/home/romar/CodeSourcery/Sourcery_G++_Lite/bin/../lib/gcc/arm-none-linux-gnueabi/4.3.3/../../../../arm-none-linux-gnueabi/include/c++/4.3.3/bits/stl_function.h ****    *
 133:/home/romar/CodeSourcery/Sourcery_G++_Lite/bin/../lib/gcc/arm-none-linux-gnueabi/4.3.3/../../../../arm-none-linux-gnueabi/include/c++/4.3.3/bits/stl_function.h ****    *  @{
 134:/home/romar/CodeSourcery/Sourcery_G++_Lite/bin/../lib/gcc/arm-none-linux-gnueabi/4.3.3/../../../../arm-none-linux-gnueabi/include/c++/4.3.3/bits/stl_function.h ****    */
 135:/home/romar/CodeSourcery/Sourcery_G++_Lite/bin/../lib/gcc/arm-none-linux-gnueabi/4.3.3/../../../../arm-none-linux-gnueabi/include/c++/4.3.3/bits/stl_function.h ****   /// One of the @link s20_3_2_arithmetic math functors@endlink.
 136:/home/romar/CodeSourcery/Sourcery_G++_Lite/bin/../lib/gcc/arm-none-linux-gnueabi/4.3.3/../../../../arm-none-linux-gnueabi/include/c++/4.3.3/bits/stl_function.h ****   template<typename _Tp>
 137:/home/romar/CodeSourcery/Sourcery_G++_Lite/bin/../lib/gcc/arm-none-linux-gnueabi/4.3.3/../../../../arm-none-linux-gnueabi/include/c++/4.3.3/bits/stl_function.h ****     struct plus : public binary_function<_Tp, _Tp, _Tp>
 138:/home/romar/CodeSourcery/Sourcery_G++_Lite/bin/../lib/gcc/arm-none-linux-gnueabi/4.3.3/../../../../arm-none-linux-gnueabi/include/c++/4.3.3/bits/stl_function.h ****     {
 139:/home/romar/CodeSourcery/Sourcery_G++_Lite/bin/../lib/gcc/arm-none-linux-gnueabi/4.3.3/../../../../arm-none-linux-gnueabi/include/c++/4.3.3/bits/stl_function.h ****       _Tp
 140:/home/romar/CodeSourcery/Sourcery_G++_Lite/bin/../lib/gcc/arm-none-linux-gnueabi/4.3.3/../../../../arm-none-linux-gnueabi/include/c++/4.3.3/bits/stl_function.h ****       operator()(const _Tp& __x, const _Tp& __y) const
 141:/home/romar/CodeSourcery/Sourcery_G++_Lite/bin/../lib/gcc/arm-none-linux-gnueabi/4.3.3/../../../../arm-none-linux-gnueabi/include/c++/4.3.3/bits/stl_function.h ****       { return __x + __y; }
 142:/home/romar/CodeSourcery/Sourcery_G++_Lite/bin/../lib/gcc/arm-none-linux-gnueabi/4.3.3/../../../../arm-none-linux-gnueabi/include/c++/4.3.3/bits/stl_function.h ****     };
 143:/home/romar/CodeSourcery/Sourcery_G++_Lite/bin/../lib/gcc/arm-none-linux-gnueabi/4.3.3/../../../../arm-none-linux-gnueabi/include/c++/4.3.3/bits/stl_function.h **** 
 144:/home/romar/CodeSourcery/Sourcery_G++_Lite/bin/../lib/gcc/arm-none-linux-gnueabi/4.3.3/../../../../arm-none-linux-gnueabi/include/c++/4.3.3/bits/stl_function.h ****   /// One of the @link s20_3_2_arithmetic math functors@endlink.
 145:/home/romar/CodeSourcery/Sourcery_G++_Lite/bin/../lib/gcc/arm-none-linux-gnueabi/4.3.3/../../../../arm-none-linux-gnueabi/include/c++/4.3.3/bits/stl_function.h ****   template<typename _Tp>
 146:/home/romar/CodeSourcery/Sourcery_G++_Lite/bin/../lib/gcc/arm-none-linux-gnueabi/4.3.3/../../../../arm-none-linux-gnueabi/include/c++/4.3.3/bits/stl_function.h ****     struct minus : public binary_function<_Tp, _Tp, _Tp>
 147:/home/romar/CodeSourcery/Sourcery_G++_Lite/bin/../lib/gcc/arm-none-linux-gnueabi/4.3.3/../../../../arm-none-linux-gnueabi/include/c++/4.3.3/bits/stl_function.h ****     {
 148:/home/romar/CodeSourcery/Sourcery_G++_Lite/bin/../lib/gcc/arm-none-linux-gnueabi/4.3.3/../../../../arm-none-linux-gnueabi/include/c++/4.3.3/bits/stl_function.h ****       _Tp
 149:/home/romar/CodeSourcery/Sourcery_G++_Lite/bin/../lib/gcc/arm-none-linux-gnueabi/4.3.3/../../../../arm-none-linux-gnueabi/include/c++/4.3.3/bits/stl_function.h ****       operator()(const _Tp& __x, const _Tp& __y) const
 150:/home/romar/CodeSourcery/Sourcery_G++_Lite/bin/../lib/gcc/arm-none-linux-gnueabi/4.3.3/../../../../arm-none-linux-gnueabi/include/c++/4.3.3/bits/stl_function.h ****       { return __x - __y; }
 151:/home/romar/CodeSourcery/Sourcery_G++_Lite/bin/../lib/gcc/arm-none-linux-gnueabi/4.3.3/../../../../arm-none-linux-gnueabi/include/c++/4.3.3/bits/stl_function.h ****     };
 152:/home/romar/CodeSourcery/Sourcery_G++_Lite/bin/../lib/gcc/arm-none-linux-gnueabi/4.3.3/../../../../arm-none-linux-gnueabi/include/c++/4.3.3/bits/stl_function.h **** 
 153:/home/romar/CodeSourcery/Sourcery_G++_Lite/bin/../lib/gcc/arm-none-linux-gnueabi/4.3.3/../../../../arm-none-linux-gnueabi/include/c++/4.3.3/bits/stl_function.h ****   /// One of the @link s20_3_2_arithmetic math functors@endlink.
 154:/home/romar/CodeSourcery/Sourcery_G++_Lite/bin/../lib/gcc/arm-none-linux-gnueabi/4.3.3/../../../../arm-none-linux-gnueabi/include/c++/4.3.3/bits/stl_function.h ****   template<typename _Tp>
 155:/home/romar/CodeSourcery/Sourcery_G++_Lite/bin/../lib/gcc/arm-none-linux-gnueabi/4.3.3/../../../../arm-none-linux-gnueabi/include/c++/4.3.3/bits/stl_function.h ****     struct multiplies : public binary_function<_Tp, _Tp, _Tp>
 156:/home/romar/CodeSourcery/Sourcery_G++_Lite/bin/../lib/gcc/arm-none-linux-gnueabi/4.3.3/../../../../arm-none-linux-gnueabi/include/c++/4.3.3/bits/stl_function.h ****     {
 157:/home/romar/CodeSourcery/Sourcery_G++_Lite/bin/../lib/gcc/arm-none-linux-gnueabi/4.3.3/../../../../arm-none-linux-gnueabi/include/c++/4.3.3/bits/stl_function.h ****       _Tp
 158:/home/romar/CodeSourcery/Sourcery_G++_Lite/bin/../lib/gcc/arm-none-linux-gnueabi/4.3.3/../../../../arm-none-linux-gnueabi/include/c++/4.3.3/bits/stl_function.h ****       operator()(const _Tp& __x, const _Tp& __y) const
 159:/home/romar/CodeSourcery/Sourcery_G++_Lite/bin/../lib/gcc/arm-none-linux-gnueabi/4.3.3/../../../../arm-none-linux-gnueabi/include/c++/4.3.3/bits/stl_function.h ****       { return __x * __y; }
 160:/home/romar/CodeSourcery/Sourcery_G++_Lite/bin/../lib/gcc/arm-none-linux-gnueabi/4.3.3/../../../../arm-none-linux-gnueabi/include/c++/4.3.3/bits/stl_function.h ****     };
 161:/home/romar/CodeSourcery/Sourcery_G++_Lite/bin/../lib/gcc/arm-none-linux-gnueabi/4.3.3/../../../../arm-none-linux-gnueabi/include/c++/4.3.3/bits/stl_function.h **** 
 162:/home/romar/CodeSourcery/Sourcery_G++_Lite/bin/../lib/gcc/arm-none-linux-gnueabi/4.3.3/../../../../arm-none-linux-gnueabi/include/c++/4.3.3/bits/stl_function.h ****   /// One of the @link s20_3_2_arithmetic math functors@endlink.
 163:/home/romar/CodeSourcery/Sourcery_G++_Lite/bin/../lib/gcc/arm-none-linux-gnueabi/4.3.3/../../../../arm-none-linux-gnueabi/include/c++/4.3.3/bits/stl_function.h ****   template<typename _Tp>
 164:/home/romar/CodeSourcery/Sourcery_G++_Lite/bin/../lib/gcc/arm-none-linux-gnueabi/4.3.3/../../../../arm-none-linux-gnueabi/include/c++/4.3.3/bits/stl_function.h ****     struct divides : public binary_function<_Tp, _Tp, _Tp>
 165:/home/romar/CodeSourcery/Sourcery_G++_Lite/bin/../lib/gcc/arm-none-linux-gnueabi/4.3.3/../../../../arm-none-linux-gnueabi/include/c++/4.3.3/bits/stl_function.h ****     {
 166:/home/romar/CodeSourcery/Sourcery_G++_Lite/bin/../lib/gcc/arm-none-linux-gnueabi/4.3.3/../../../../arm-none-linux-gnueabi/include/c++/4.3.3/bits/stl_function.h ****       _Tp
 167:/home/romar/CodeSourcery/Sourcery_G++_Lite/bin/../lib/gcc/arm-none-linux-gnueabi/4.3.3/../../../../arm-none-linux-gnueabi/include/c++/4.3.3/bits/stl_function.h ****       operator()(const _Tp& __x, const _Tp& __y) const
 168:/home/romar/CodeSourcery/Sourcery_G++_Lite/bin/../lib/gcc/arm-none-linux-gnueabi/4.3.3/../../../../arm-none-linux-gnueabi/include/c++/4.3.3/bits/stl_function.h ****       { return __x / __y; }
 169:/home/romar/CodeSourcery/Sourcery_G++_Lite/bin/../lib/gcc/arm-none-linux-gnueabi/4.3.3/../../../../arm-none-linux-gnueabi/include/c++/4.3.3/bits/stl_function.h ****     };
 170:/home/romar/CodeSourcery/Sourcery_G++_Lite/bin/../lib/gcc/arm-none-linux-gnueabi/4.3.3/../../../../arm-none-linux-gnueabi/include/c++/4.3.3/bits/stl_function.h **** 
 171:/home/romar/CodeSourcery/Sourcery_G++_Lite/bin/../lib/gcc/arm-none-linux-gnueabi/4.3.3/../../../../arm-none-linux-gnueabi/include/c++/4.3.3/bits/stl_function.h ****   /// One of the @link s20_3_2_arithmetic math functors@endlink.
 172:/home/romar/CodeSourcery/Sourcery_G++_Lite/bin/../lib/gcc/arm-none-linux-gnueabi/4.3.3/../../../../arm-none-linux-gnueabi/include/c++/4.3.3/bits/stl_function.h ****   template<typename _Tp>
 173:/home/romar/CodeSourcery/Sourcery_G++_Lite/bin/../lib/gcc/arm-none-linux-gnueabi/4.3.3/../../../../arm-none-linux-gnueabi/include/c++/4.3.3/bits/stl_function.h ****     struct modulus : public binary_function<_Tp, _Tp, _Tp>
 174:/home/romar/CodeSourcery/Sourcery_G++_Lite/bin/../lib/gcc/arm-none-linux-gnueabi/4.3.3/../../../../arm-none-linux-gnueabi/include/c++/4.3.3/bits/stl_function.h ****     {
 175:/home/romar/CodeSourcery/Sourcery_G++_Lite/bin/../lib/gcc/arm-none-linux-gnueabi/4.3.3/../../../../arm-none-linux-gnueabi/include/c++/4.3.3/bits/stl_function.h ****       _Tp
 176:/home/romar/CodeSourcery/Sourcery_G++_Lite/bin/../lib/gcc/arm-none-linux-gnueabi/4.3.3/../../../../arm-none-linux-gnueabi/include/c++/4.3.3/bits/stl_function.h ****       operator()(const _Tp& __x, const _Tp& __y) const
 177:/home/romar/CodeSourcery/Sourcery_G++_Lite/bin/../lib/gcc/arm-none-linux-gnueabi/4.3.3/../../../../arm-none-linux-gnueabi/include/c++/4.3.3/bits/stl_function.h ****       { return __x % __y; }
 178:/home/romar/CodeSourcery/Sourcery_G++_Lite/bin/../lib/gcc/arm-none-linux-gnueabi/4.3.3/../../../../arm-none-linux-gnueabi/include/c++/4.3.3/bits/stl_function.h ****     };
 179:/home/romar/CodeSourcery/Sourcery_G++_Lite/bin/../lib/gcc/arm-none-linux-gnueabi/4.3.3/../../../../arm-none-linux-gnueabi/include/c++/4.3.3/bits/stl_function.h **** 
 180:/home/romar/CodeSourcery/Sourcery_G++_Lite/bin/../lib/gcc/arm-none-linux-gnueabi/4.3.3/../../../../arm-none-linux-gnueabi/include/c++/4.3.3/bits/stl_function.h ****   /// One of the @link s20_3_2_arithmetic math functors@endlink.
 181:/home/romar/CodeSourcery/Sourcery_G++_Lite/bin/../lib/gcc/arm-none-linux-gnueabi/4.3.3/../../../../arm-none-linux-gnueabi/include/c++/4.3.3/bits/stl_function.h ****   template<typename _Tp>
 182:/home/romar/CodeSourcery/Sourcery_G++_Lite/bin/../lib/gcc/arm-none-linux-gnueabi/4.3.3/../../../../arm-none-linux-gnueabi/include/c++/4.3.3/bits/stl_function.h ****     struct negate : public unary_function<_Tp, _Tp>
 183:/home/romar/CodeSourcery/Sourcery_G++_Lite/bin/../lib/gcc/arm-none-linux-gnueabi/4.3.3/../../../../arm-none-linux-gnueabi/include/c++/4.3.3/bits/stl_function.h ****     {
 184:/home/romar/CodeSourcery/Sourcery_G++_Lite/bin/../lib/gcc/arm-none-linux-gnueabi/4.3.3/../../../../arm-none-linux-gnueabi/include/c++/4.3.3/bits/stl_function.h ****       _Tp
 185:/home/romar/CodeSourcery/Sourcery_G++_Lite/bin/../lib/gcc/arm-none-linux-gnueabi/4.3.3/../../../../arm-none-linux-gnueabi/include/c++/4.3.3/bits/stl_function.h ****       operator()(const _Tp& __x) const
 186:/home/romar/CodeSourcery/Sourcery_G++_Lite/bin/../lib/gcc/arm-none-linux-gnueabi/4.3.3/../../../../arm-none-linux-gnueabi/include/c++/4.3.3/bits/stl_function.h ****       { return -__x; }
 187:/home/romar/CodeSourcery/Sourcery_G++_Lite/bin/../lib/gcc/arm-none-linux-gnueabi/4.3.3/../../../../arm-none-linux-gnueabi/include/c++/4.3.3/bits/stl_function.h ****     };
 188:/home/romar/CodeSourcery/Sourcery_G++_Lite/bin/../lib/gcc/arm-none-linux-gnueabi/4.3.3/../../../../arm-none-linux-gnueabi/include/c++/4.3.3/bits/stl_function.h ****   /** @}  */
 189:/home/romar/CodeSourcery/Sourcery_G++_Lite/bin/../lib/gcc/arm-none-linux-gnueabi/4.3.3/../../../../arm-none-linux-gnueabi/include/c++/4.3.3/bits/stl_function.h **** 
 190:/home/romar/CodeSourcery/Sourcery_G++_Lite/bin/../lib/gcc/arm-none-linux-gnueabi/4.3.3/../../../../arm-none-linux-gnueabi/include/c++/4.3.3/bits/stl_function.h ****   // 20.3.3 comparisons
 191:/home/romar/CodeSourcery/Sourcery_G++_Lite/bin/../lib/gcc/arm-none-linux-gnueabi/4.3.3/../../../../arm-none-linux-gnueabi/include/c++/4.3.3/bits/stl_function.h ****   /** @defgroup s20_3_3_comparisons Comparison Classes
 192:/home/romar/CodeSourcery/Sourcery_G++_Lite/bin/../lib/gcc/arm-none-linux-gnueabi/4.3.3/../../../../arm-none-linux-gnueabi/include/c++/4.3.3/bits/stl_function.h ****    *  The library provides six wrapper functors for all the basic comparisons
 193:/home/romar/CodeSourcery/Sourcery_G++_Lite/bin/../lib/gcc/arm-none-linux-gnueabi/4.3.3/../../../../arm-none-linux-gnueabi/include/c++/4.3.3/bits/stl_function.h ****    *  in C++, like @c <.
 194:/home/romar/CodeSourcery/Sourcery_G++_Lite/bin/../lib/gcc/arm-none-linux-gnueabi/4.3.3/../../../../arm-none-linux-gnueabi/include/c++/4.3.3/bits/stl_function.h ****    *
 195:/home/romar/CodeSourcery/Sourcery_G++_Lite/bin/../lib/gcc/arm-none-linux-gnueabi/4.3.3/../../../../arm-none-linux-gnueabi/include/c++/4.3.3/bits/stl_function.h ****    *  @{
 196:/home/romar/CodeSourcery/Sourcery_G++_Lite/bin/../lib/gcc/arm-none-linux-gnueabi/4.3.3/../../../../arm-none-linux-gnueabi/include/c++/4.3.3/bits/stl_function.h ****    */
 197:/home/romar/CodeSourcery/Sourcery_G++_Lite/bin/../lib/gcc/arm-none-linux-gnueabi/4.3.3/../../../../arm-none-linux-gnueabi/include/c++/4.3.3/bits/stl_function.h ****   /// One of the @link s20_3_3_comparisons comparison functors@endlink.
 198:/home/romar/CodeSourcery/Sourcery_G++_Lite/bin/../lib/gcc/arm-none-linux-gnueabi/4.3.3/../../../../arm-none-linux-gnueabi/include/c++/4.3.3/bits/stl_function.h ****   template<typename _Tp>
 199:/home/romar/CodeSourcery/Sourcery_G++_Lite/bin/../lib/gcc/arm-none-linux-gnueabi/4.3.3/../../../../arm-none-linux-gnueabi/include/c++/4.3.3/bits/stl_function.h ****     struct equal_to : public binary_function<_Tp, _Tp, bool>
 200:/home/romar/CodeSourcery/Sourcery_G++_Lite/bin/../lib/gcc/arm-none-linux-gnueabi/4.3.3/../../../../arm-none-linux-gnueabi/include/c++/4.3.3/bits/stl_function.h ****     {
 201:/home/romar/CodeSourcery/Sourcery_G++_Lite/bin/../lib/gcc/arm-none-linux-gnueabi/4.3.3/../../../../arm-none-linux-gnueabi/include/c++/4.3.3/bits/stl_function.h ****       bool
 202:/home/romar/CodeSourcery/Sourcery_G++_Lite/bin/../lib/gcc/arm-none-linux-gnueabi/4.3.3/../../../../arm-none-linux-gnueabi/include/c++/4.3.3/bits/stl_function.h ****       operator()(const _Tp& __x, const _Tp& __y) const
 203:/home/romar/CodeSourcery/Sourcery_G++_Lite/bin/../lib/gcc/arm-none-linux-gnueabi/4.3.3/../../../../arm-none-linux-gnueabi/include/c++/4.3.3/bits/stl_function.h ****       { return __x == __y; }
 204:/home/romar/CodeSourcery/Sourcery_G++_Lite/bin/../lib/gcc/arm-none-linux-gnueabi/4.3.3/../../../../arm-none-linux-gnueabi/include/c++/4.3.3/bits/stl_function.h ****     };
 205:/home/romar/CodeSourcery/Sourcery_G++_Lite/bin/../lib/gcc/arm-none-linux-gnueabi/4.3.3/../../../../arm-none-linux-gnueabi/include/c++/4.3.3/bits/stl_function.h **** 
 206:/home/romar/CodeSourcery/Sourcery_G++_Lite/bin/../lib/gcc/arm-none-linux-gnueabi/4.3.3/../../../../arm-none-linux-gnueabi/include/c++/4.3.3/bits/stl_function.h ****   /// One of the @link s20_3_3_comparisons comparison functors@endlink.
 207:/home/romar/CodeSourcery/Sourcery_G++_Lite/bin/../lib/gcc/arm-none-linux-gnueabi/4.3.3/../../../../arm-none-linux-gnueabi/include/c++/4.3.3/bits/stl_function.h ****   template<typename _Tp>
 208:/home/romar/CodeSourcery/Sourcery_G++_Lite/bin/../lib/gcc/arm-none-linux-gnueabi/4.3.3/../../../../arm-none-linux-gnueabi/include/c++/4.3.3/bits/stl_function.h ****     struct not_equal_to : public binary_function<_Tp, _Tp, bool>
 209:/home/romar/CodeSourcery/Sourcery_G++_Lite/bin/../lib/gcc/arm-none-linux-gnueabi/4.3.3/../../../../arm-none-linux-gnueabi/include/c++/4.3.3/bits/stl_function.h ****     {
 210:/home/romar/CodeSourcery/Sourcery_G++_Lite/bin/../lib/gcc/arm-none-linux-gnueabi/4.3.3/../../../../arm-none-linux-gnueabi/include/c++/4.3.3/bits/stl_function.h ****       bool
 211:/home/romar/CodeSourcery/Sourcery_G++_Lite/bin/../lib/gcc/arm-none-linux-gnueabi/4.3.3/../../../../arm-none-linux-gnueabi/include/c++/4.3.3/bits/stl_function.h ****       operator()(const _Tp& __x, const _Tp& __y) const
 212:/home/romar/CodeSourcery/Sourcery_G++_Lite/bin/../lib/gcc/arm-none-linux-gnueabi/4.3.3/../../../../arm-none-linux-gnueabi/include/c++/4.3.3/bits/stl_function.h ****       { return __x != __y; }
 213:/home/romar/CodeSourcery/Sourcery_G++_Lite/bin/../lib/gcc/arm-none-linux-gnueabi/4.3.3/../../../../arm-none-linux-gnueabi/include/c++/4.3.3/bits/stl_function.h ****     };
 214:/home/romar/CodeSourcery/Sourcery_G++_Lite/bin/../lib/gcc/arm-none-linux-gnueabi/4.3.3/../../../../arm-none-linux-gnueabi/include/c++/4.3.3/bits/stl_function.h **** 
 215:/home/romar/CodeSourcery/Sourcery_G++_Lite/bin/../lib/gcc/arm-none-linux-gnueabi/4.3.3/../../../../arm-none-linux-gnueabi/include/c++/4.3.3/bits/stl_function.h ****   /// One of the @link s20_3_3_comparisons comparison functors@endlink.
 216:/home/romar/CodeSourcery/Sourcery_G++_Lite/bin/../lib/gcc/arm-none-linux-gnueabi/4.3.3/../../../../arm-none-linux-gnueabi/include/c++/4.3.3/bits/stl_function.h ****   template<typename _Tp>
 217:/home/romar/CodeSourcery/Sourcery_G++_Lite/bin/../lib/gcc/arm-none-linux-gnueabi/4.3.3/../../../../arm-none-linux-gnueabi/include/c++/4.3.3/bits/stl_function.h ****     struct greater : public binary_function<_Tp, _Tp, bool>
 218:/home/romar/CodeSourcery/Sourcery_G++_Lite/bin/../lib/gcc/arm-none-linux-gnueabi/4.3.3/../../../../arm-none-linux-gnueabi/include/c++/4.3.3/bits/stl_function.h ****     {
 219:/home/romar/CodeSourcery/Sourcery_G++_Lite/bin/../lib/gcc/arm-none-linux-gnueabi/4.3.3/../../../../arm-none-linux-gnueabi/include/c++/4.3.3/bits/stl_function.h ****       bool
 220:/home/romar/CodeSourcery/Sourcery_G++_Lite/bin/../lib/gcc/arm-none-linux-gnueabi/4.3.3/../../../../arm-none-linux-gnueabi/include/c++/4.3.3/bits/stl_function.h ****       operator()(const _Tp& __x, const _Tp& __y) const
 221:/home/romar/CodeSourcery/Sourcery_G++_Lite/bin/../lib/gcc/arm-none-linux-gnueabi/4.3.3/../../../../arm-none-linux-gnueabi/include/c++/4.3.3/bits/stl_function.h ****       { return __x > __y; }
 222:/home/romar/CodeSourcery/Sourcery_G++_Lite/bin/../lib/gcc/arm-none-linux-gnueabi/4.3.3/../../../../arm-none-linux-gnueabi/include/c++/4.3.3/bits/stl_function.h ****     };
 223:/home/romar/CodeSourcery/Sourcery_G++_Lite/bin/../lib/gcc/arm-none-linux-gnueabi/4.3.3/../../../../arm-none-linux-gnueabi/include/c++/4.3.3/bits/stl_function.h **** 
 224:/home/romar/CodeSourcery/Sourcery_G++_Lite/bin/../lib/gcc/arm-none-linux-gnueabi/4.3.3/../../../../arm-none-linux-gnueabi/include/c++/4.3.3/bits/stl_function.h ****   /// One of the @link s20_3_3_comparisons comparison functors@endlink.
 225:/home/romar/CodeSourcery/Sourcery_G++_Lite/bin/../lib/gcc/arm-none-linux-gnueabi/4.3.3/../../../../arm-none-linux-gnueabi/include/c++/4.3.3/bits/stl_function.h ****   template<typename _Tp>
 226:/home/romar/CodeSourcery/Sourcery_G++_Lite/bin/../lib/gcc/arm-none-linux-gnueabi/4.3.3/../../../../arm-none-linux-gnueabi/include/c++/4.3.3/bits/stl_function.h ****     struct less : public binary_function<_Tp, _Tp, bool>
 227:/home/romar/CodeSourcery/Sourcery_G++_Lite/bin/../lib/gcc/arm-none-linux-gnueabi/4.3.3/../../../../arm-none-linux-gnueabi/include/c++/4.3.3/bits/stl_function.h ****     {
 228:/home/romar/CodeSourcery/Sourcery_G++_Lite/bin/../lib/gcc/arm-none-linux-gnueabi/4.3.3/../../../../arm-none-linux-gnueabi/include/c++/4.3.3/bits/stl_function.h ****       bool
 229:/home/romar/CodeSourcery/Sourcery_G++_Lite/bin/../lib/gcc/arm-none-linux-gnueabi/4.3.3/../../../../arm-none-linux-gnueabi/include/c++/4.3.3/bits/stl_function.h ****       operator()(const _Tp& __x, const _Tp& __y) const
 230:/home/romar/CodeSourcery/Sourcery_G++_Lite/bin/../lib/gcc/arm-none-linux-gnueabi/4.3.3/../../../../arm-none-linux-gnueabi/include/c++/4.3.3/bits/stl_function.h ****       { return __x < __y; }
 231:/home/romar/CodeSourcery/Sourcery_G++_Lite/bin/../lib/gcc/arm-none-linux-gnueabi/4.3.3/../../../../arm-none-linux-gnueabi/include/c++/4.3.3/bits/stl_function.h ****     };
 232:/home/romar/CodeSourcery/Sourcery_G++_Lite/bin/../lib/gcc/arm-none-linux-gnueabi/4.3.3/../../../../arm-none-linux-gnueabi/include/c++/4.3.3/bits/stl_function.h **** 
 233:/home/romar/CodeSourcery/Sourcery_G++_Lite/bin/../lib/gcc/arm-none-linux-gnueabi/4.3.3/../../../../arm-none-linux-gnueabi/include/c++/4.3.3/bits/stl_function.h ****   /// One of the @link s20_3_3_comparisons comparison functors@endlink.
 234:/home/romar/CodeSourcery/Sourcery_G++_Lite/bin/../lib/gcc/arm-none-linux-gnueabi/4.3.3/../../../../arm-none-linux-gnueabi/include/c++/4.3.3/bits/stl_function.h ****   template<typename _Tp>
 235:/home/romar/CodeSourcery/Sourcery_G++_Lite/bin/../lib/gcc/arm-none-linux-gnueabi/4.3.3/../../../../arm-none-linux-gnueabi/include/c++/4.3.3/bits/stl_function.h ****     struct greater_equal : public binary_function<_Tp, _Tp, bool>
 236:/home/romar/CodeSourcery/Sourcery_G++_Lite/bin/../lib/gcc/arm-none-linux-gnueabi/4.3.3/../../../../arm-none-linux-gnueabi/include/c++/4.3.3/bits/stl_function.h ****     {
 237:/home/romar/CodeSourcery/Sourcery_G++_Lite/bin/../lib/gcc/arm-none-linux-gnueabi/4.3.3/../../../../arm-none-linux-gnueabi/include/c++/4.3.3/bits/stl_function.h ****       bool
 238:/home/romar/CodeSourcery/Sourcery_G++_Lite/bin/../lib/gcc/arm-none-linux-gnueabi/4.3.3/../../../../arm-none-linux-gnueabi/include/c++/4.3.3/bits/stl_function.h ****       operator()(const _Tp& __x, const _Tp& __y) const
 239:/home/romar/CodeSourcery/Sourcery_G++_Lite/bin/../lib/gcc/arm-none-linux-gnueabi/4.3.3/../../../../arm-none-linux-gnueabi/include/c++/4.3.3/bits/stl_function.h ****       { return __x >= __y; }
 240:/home/romar/CodeSourcery/Sourcery_G++_Lite/bin/../lib/gcc/arm-none-linux-gnueabi/4.3.3/../../../../arm-none-linux-gnueabi/include/c++/4.3.3/bits/stl_function.h ****     };
 241:/home/romar/CodeSourcery/Sourcery_G++_Lite/bin/../lib/gcc/arm-none-linux-gnueabi/4.3.3/../../../../arm-none-linux-gnueabi/include/c++/4.3.3/bits/stl_function.h **** 
 242:/home/romar/CodeSourcery/Sourcery_G++_Lite/bin/../lib/gcc/arm-none-linux-gnueabi/4.3.3/../../../../arm-none-linux-gnueabi/include/c++/4.3.3/bits/stl_function.h ****   /// One of the @link s20_3_3_comparisons comparison functors@endlink.
 243:/home/romar/CodeSourcery/Sourcery_G++_Lite/bin/../lib/gcc/arm-none-linux-gnueabi/4.3.3/../../../../arm-none-linux-gnueabi/include/c++/4.3.3/bits/stl_function.h ****   template<typename _Tp>
 244:/home/romar/CodeSourcery/Sourcery_G++_Lite/bin/../lib/gcc/arm-none-linux-gnueabi/4.3.3/../../../../arm-none-linux-gnueabi/include/c++/4.3.3/bits/stl_function.h ****     struct less_equal : public binary_function<_Tp, _Tp, bool>
 245:/home/romar/CodeSourcery/Sourcery_G++_Lite/bin/../lib/gcc/arm-none-linux-gnueabi/4.3.3/../../../../arm-none-linux-gnueabi/include/c++/4.3.3/bits/stl_function.h ****     {
 246:/home/romar/CodeSourcery/Sourcery_G++_Lite/bin/../lib/gcc/arm-none-linux-gnueabi/4.3.3/../../../../arm-none-linux-gnueabi/include/c++/4.3.3/bits/stl_function.h ****       bool
 247:/home/romar/CodeSourcery/Sourcery_G++_Lite/bin/../lib/gcc/arm-none-linux-gnueabi/4.3.3/../../../../arm-none-linux-gnueabi/include/c++/4.3.3/bits/stl_function.h ****       operator()(const _Tp& __x, const _Tp& __y) const
 248:/home/romar/CodeSourcery/Sourcery_G++_Lite/bin/../lib/gcc/arm-none-linux-gnueabi/4.3.3/../../../../arm-none-linux-gnueabi/include/c++/4.3.3/bits/stl_function.h ****       { return __x <= __y; }
 249:/home/romar/CodeSourcery/Sourcery_G++_Lite/bin/../lib/gcc/arm-none-linux-gnueabi/4.3.3/../../../../arm-none-linux-gnueabi/include/c++/4.3.3/bits/stl_function.h ****     };
 250:/home/romar/CodeSourcery/Sourcery_G++_Lite/bin/../lib/gcc/arm-none-linux-gnueabi/4.3.3/../../../../arm-none-linux-gnueabi/include/c++/4.3.3/bits/stl_function.h ****   /** @}  */
 251:/home/romar/CodeSourcery/Sourcery_G++_Lite/bin/../lib/gcc/arm-none-linux-gnueabi/4.3.3/../../../../arm-none-linux-gnueabi/include/c++/4.3.3/bits/stl_function.h **** 
 252:/home/romar/CodeSourcery/Sourcery_G++_Lite/bin/../lib/gcc/arm-none-linux-gnueabi/4.3.3/../../../../arm-none-linux-gnueabi/include/c++/4.3.3/bits/stl_function.h ****   // 20.3.4 logical operations
 253:/home/romar/CodeSourcery/Sourcery_G++_Lite/bin/../lib/gcc/arm-none-linux-gnueabi/4.3.3/../../../../arm-none-linux-gnueabi/include/c++/4.3.3/bits/stl_function.h ****   /** @defgroup s20_3_4_logical Boolean Operations Classes
 254:/home/romar/CodeSourcery/Sourcery_G++_Lite/bin/../lib/gcc/arm-none-linux-gnueabi/4.3.3/../../../../arm-none-linux-gnueabi/include/c++/4.3.3/bits/stl_function.h ****    *  Here are wrapper functors for Boolean operations: @c &&, @c ||,
 255:/home/romar/CodeSourcery/Sourcery_G++_Lite/bin/../lib/gcc/arm-none-linux-gnueabi/4.3.3/../../../../arm-none-linux-gnueabi/include/c++/4.3.3/bits/stl_function.h ****    *  and @c !.
 256:/home/romar/CodeSourcery/Sourcery_G++_Lite/bin/../lib/gcc/arm-none-linux-gnueabi/4.3.3/../../../../arm-none-linux-gnueabi/include/c++/4.3.3/bits/stl_function.h ****    *
 257:/home/romar/CodeSourcery/Sourcery_G++_Lite/bin/../lib/gcc/arm-none-linux-gnueabi/4.3.3/../../../../arm-none-linux-gnueabi/include/c++/4.3.3/bits/stl_function.h ****    *  @{
 258:/home/romar/CodeSourcery/Sourcery_G++_Lite/bin/../lib/gcc/arm-none-linux-gnueabi/4.3.3/../../../../arm-none-linux-gnueabi/include/c++/4.3.3/bits/stl_function.h ****    */
 259:/home/romar/CodeSourcery/Sourcery_G++_Lite/bin/../lib/gcc/arm-none-linux-gnueabi/4.3.3/../../../../arm-none-linux-gnueabi/include/c++/4.3.3/bits/stl_function.h ****   /// One of the @link s20_3_4_logical Boolean operations functors@endlink.
 260:/home/romar/CodeSourcery/Sourcery_G++_Lite/bin/../lib/gcc/arm-none-linux-gnueabi/4.3.3/../../../../arm-none-linux-gnueabi/include/c++/4.3.3/bits/stl_function.h ****   template<typename _Tp>
 261:/home/romar/CodeSourcery/Sourcery_G++_Lite/bin/../lib/gcc/arm-none-linux-gnueabi/4.3.3/../../../../arm-none-linux-gnueabi/include/c++/4.3.3/bits/stl_function.h ****     struct logical_and : public binary_function<_Tp, _Tp, bool>
 262:/home/romar/CodeSourcery/Sourcery_G++_Lite/bin/../lib/gcc/arm-none-linux-gnueabi/4.3.3/../../../../arm-none-linux-gnueabi/include/c++/4.3.3/bits/stl_function.h ****     {
 263:/home/romar/CodeSourcery/Sourcery_G++_Lite/bin/../lib/gcc/arm-none-linux-gnueabi/4.3.3/../../../../arm-none-linux-gnueabi/include/c++/4.3.3/bits/stl_function.h ****       bool
 264:/home/romar/CodeSourcery/Sourcery_G++_Lite/bin/../lib/gcc/arm-none-linux-gnueabi/4.3.3/../../../../arm-none-linux-gnueabi/include/c++/4.3.3/bits/stl_function.h ****       operator()(const _Tp& __x, const _Tp& __y) const
 265:/home/romar/CodeSourcery/Sourcery_G++_Lite/bin/../lib/gcc/arm-none-linux-gnueabi/4.3.3/../../../../arm-none-linux-gnueabi/include/c++/4.3.3/bits/stl_function.h ****       { return __x && __y; }
 266:/home/romar/CodeSourcery/Sourcery_G++_Lite/bin/../lib/gcc/arm-none-linux-gnueabi/4.3.3/../../../../arm-none-linux-gnueabi/include/c++/4.3.3/bits/stl_function.h ****     };
 267:/home/romar/CodeSourcery/Sourcery_G++_Lite/bin/../lib/gcc/arm-none-linux-gnueabi/4.3.3/../../../../arm-none-linux-gnueabi/include/c++/4.3.3/bits/stl_function.h **** 
 268:/home/romar/CodeSourcery/Sourcery_G++_Lite/bin/../lib/gcc/arm-none-linux-gnueabi/4.3.3/../../../../arm-none-linux-gnueabi/include/c++/4.3.3/bits/stl_function.h ****   /// One of the @link s20_3_4_logical Boolean operations functors@endlink.
 269:/home/romar/CodeSourcery/Sourcery_G++_Lite/bin/../lib/gcc/arm-none-linux-gnueabi/4.3.3/../../../../arm-none-linux-gnueabi/include/c++/4.3.3/bits/stl_function.h ****   template<typename _Tp>
 270:/home/romar/CodeSourcery/Sourcery_G++_Lite/bin/../lib/gcc/arm-none-linux-gnueabi/4.3.3/../../../../arm-none-linux-gnueabi/include/c++/4.3.3/bits/stl_function.h ****     struct logical_or : public binary_function<_Tp, _Tp, bool>
 271:/home/romar/CodeSourcery/Sourcery_G++_Lite/bin/../lib/gcc/arm-none-linux-gnueabi/4.3.3/../../../../arm-none-linux-gnueabi/include/c++/4.3.3/bits/stl_function.h ****     {
 272:/home/romar/CodeSourcery/Sourcery_G++_Lite/bin/../lib/gcc/arm-none-linux-gnueabi/4.3.3/../../../../arm-none-linux-gnueabi/include/c++/4.3.3/bits/stl_function.h ****       bool
 273:/home/romar/CodeSourcery/Sourcery_G++_Lite/bin/../lib/gcc/arm-none-linux-gnueabi/4.3.3/../../../../arm-none-linux-gnueabi/include/c++/4.3.3/bits/stl_function.h ****       operator()(const _Tp& __x, const _Tp& __y) const
 274:/home/romar/CodeSourcery/Sourcery_G++_Lite/bin/../lib/gcc/arm-none-linux-gnueabi/4.3.3/../../../../arm-none-linux-gnueabi/include/c++/4.3.3/bits/stl_function.h ****       { return __x || __y; }
 275:/home/romar/CodeSourcery/Sourcery_G++_Lite/bin/../lib/gcc/arm-none-linux-gnueabi/4.3.3/../../../../arm-none-linux-gnueabi/include/c++/4.3.3/bits/stl_function.h ****     };
 276:/home/romar/CodeSourcery/Sourcery_G++_Lite/bin/../lib/gcc/arm-none-linux-gnueabi/4.3.3/../../../../arm-none-linux-gnueabi/include/c++/4.3.3/bits/stl_function.h **** 
 277:/home/romar/CodeSourcery/Sourcery_G++_Lite/bin/../lib/gcc/arm-none-linux-gnueabi/4.3.3/../../../../arm-none-linux-gnueabi/include/c++/4.3.3/bits/stl_function.h ****   /// One of the @link s20_3_4_logical Boolean operations functors@endlink.
 278:/home/romar/CodeSourcery/Sourcery_G++_Lite/bin/../lib/gcc/arm-none-linux-gnueabi/4.3.3/../../../../arm-none-linux-gnueabi/include/c++/4.3.3/bits/stl_function.h ****   template<typename _Tp>
 279:/home/romar/CodeSourcery/Sourcery_G++_Lite/bin/../lib/gcc/arm-none-linux-gnueabi/4.3.3/../../../../arm-none-linux-gnueabi/include/c++/4.3.3/bits/stl_function.h ****     struct logical_not : public unary_function<_Tp, bool>
 280:/home/romar/CodeSourcery/Sourcery_G++_Lite/bin/../lib/gcc/arm-none-linux-gnueabi/4.3.3/../../../../arm-none-linux-gnueabi/include/c++/4.3.3/bits/stl_function.h ****     {
 281:/home/romar/CodeSourcery/Sourcery_G++_Lite/bin/../lib/gcc/arm-none-linux-gnueabi/4.3.3/../../../../arm-none-linux-gnueabi/include/c++/4.3.3/bits/stl_function.h ****       bool
 282:/home/romar/CodeSourcery/Sourcery_G++_Lite/bin/../lib/gcc/arm-none-linux-gnueabi/4.3.3/../../../../arm-none-linux-gnueabi/include/c++/4.3.3/bits/stl_function.h ****       operator()(const _Tp& __x) const
 283:/home/romar/CodeSourcery/Sourcery_G++_Lite/bin/../lib/gcc/arm-none-linux-gnueabi/4.3.3/../../../../arm-none-linux-gnueabi/include/c++/4.3.3/bits/stl_function.h ****       { return !__x; }
 284:/home/romar/CodeSourcery/Sourcery_G++_Lite/bin/../lib/gcc/arm-none-linux-gnueabi/4.3.3/../../../../arm-none-linux-gnueabi/include/c++/4.3.3/bits/stl_function.h ****     };
 285:/home/romar/CodeSourcery/Sourcery_G++_Lite/bin/../lib/gcc/arm-none-linux-gnueabi/4.3.3/../../../../arm-none-linux-gnueabi/include/c++/4.3.3/bits/stl_function.h ****   /** @}  */
 286:/home/romar/CodeSourcery/Sourcery_G++_Lite/bin/../lib/gcc/arm-none-linux-gnueabi/4.3.3/../../../../arm-none-linux-gnueabi/include/c++/4.3.3/bits/stl_function.h **** 
 287:/home/romar/CodeSourcery/Sourcery_G++_Lite/bin/../lib/gcc/arm-none-linux-gnueabi/4.3.3/../../../../arm-none-linux-gnueabi/include/c++/4.3.3/bits/stl_function.h ****   // _GLIBCXX_RESOLVE_LIB_DEFECTS
 288:/home/romar/CodeSourcery/Sourcery_G++_Lite/bin/../lib/gcc/arm-none-linux-gnueabi/4.3.3/../../../../arm-none-linux-gnueabi/include/c++/4.3.3/bits/stl_function.h ****   // DR 660. Missing Bitwise Operations.
 289:/home/romar/CodeSourcery/Sourcery_G++_Lite/bin/../lib/gcc/arm-none-linux-gnueabi/4.3.3/../../../../arm-none-linux-gnueabi/include/c++/4.3.3/bits/stl_function.h ****   template<typename _Tp>
 290:/home/romar/CodeSourcery/Sourcery_G++_Lite/bin/../lib/gcc/arm-none-linux-gnueabi/4.3.3/../../../../arm-none-linux-gnueabi/include/c++/4.3.3/bits/stl_function.h ****     struct bit_and : public binary_function<_Tp, _Tp, _Tp>
 291:/home/romar/CodeSourcery/Sourcery_G++_Lite/bin/../lib/gcc/arm-none-linux-gnueabi/4.3.3/../../../../arm-none-linux-gnueabi/include/c++/4.3.3/bits/stl_function.h ****     {
 292:/home/romar/CodeSourcery/Sourcery_G++_Lite/bin/../lib/gcc/arm-none-linux-gnueabi/4.3.3/../../../../arm-none-linux-gnueabi/include/c++/4.3.3/bits/stl_function.h ****       _Tp
 293:/home/romar/CodeSourcery/Sourcery_G++_Lite/bin/../lib/gcc/arm-none-linux-gnueabi/4.3.3/../../../../arm-none-linux-gnueabi/include/c++/4.3.3/bits/stl_function.h ****       operator()(const _Tp& __x, const _Tp& __y) const
 294:/home/romar/CodeSourcery/Sourcery_G++_Lite/bin/../lib/gcc/arm-none-linux-gnueabi/4.3.3/../../../../arm-none-linux-gnueabi/include/c++/4.3.3/bits/stl_function.h ****       { return __x & __y; }
 295:/home/romar/CodeSourcery/Sourcery_G++_Lite/bin/../lib/gcc/arm-none-linux-gnueabi/4.3.3/../../../../arm-none-linux-gnueabi/include/c++/4.3.3/bits/stl_function.h ****     };
 296:/home/romar/CodeSourcery/Sourcery_G++_Lite/bin/../lib/gcc/arm-none-linux-gnueabi/4.3.3/../../../../arm-none-linux-gnueabi/include/c++/4.3.3/bits/stl_function.h **** 
 297:/home/romar/CodeSourcery/Sourcery_G++_Lite/bin/../lib/gcc/arm-none-linux-gnueabi/4.3.3/../../../../arm-none-linux-gnueabi/include/c++/4.3.3/bits/stl_function.h ****   template<typename _Tp>
 298:/home/romar/CodeSourcery/Sourcery_G++_Lite/bin/../lib/gcc/arm-none-linux-gnueabi/4.3.3/../../../../arm-none-linux-gnueabi/include/c++/4.3.3/bits/stl_function.h ****     struct bit_or : public binary_function<_Tp, _Tp, _Tp>
 299:/home/romar/CodeSourcery/Sourcery_G++_Lite/bin/../lib/gcc/arm-none-linux-gnueabi/4.3.3/../../../../arm-none-linux-gnueabi/include/c++/4.3.3/bits/stl_function.h ****     {
 300:/home/romar/CodeSourcery/Sourcery_G++_Lite/bin/../lib/gcc/arm-none-linux-gnueabi/4.3.3/../../../../arm-none-linux-gnueabi/include/c++/4.3.3/bits/stl_function.h ****       _Tp
 301:/home/romar/CodeSourcery/Sourcery_G++_Lite/bin/../lib/gcc/arm-none-linux-gnueabi/4.3.3/../../../../arm-none-linux-gnueabi/include/c++/4.3.3/bits/stl_function.h ****       operator()(const _Tp& __x, const _Tp& __y) const
 302:/home/romar/CodeSourcery/Sourcery_G++_Lite/bin/../lib/gcc/arm-none-linux-gnueabi/4.3.3/../../../../arm-none-linux-gnueabi/include/c++/4.3.3/bits/stl_function.h ****       { return __x | __y; }
 303:/home/romar/CodeSourcery/Sourcery_G++_Lite/bin/../lib/gcc/arm-none-linux-gnueabi/4.3.3/../../../../arm-none-linux-gnueabi/include/c++/4.3.3/bits/stl_function.h ****     };
 304:/home/romar/CodeSourcery/Sourcery_G++_Lite/bin/../lib/gcc/arm-none-linux-gnueabi/4.3.3/../../../../arm-none-linux-gnueabi/include/c++/4.3.3/bits/stl_function.h **** 
 305:/home/romar/CodeSourcery/Sourcery_G++_Lite/bin/../lib/gcc/arm-none-linux-gnueabi/4.3.3/../../../../arm-none-linux-gnueabi/include/c++/4.3.3/bits/stl_function.h ****   template<typename _Tp>
 306:/home/romar/CodeSourcery/Sourcery_G++_Lite/bin/../lib/gcc/arm-none-linux-gnueabi/4.3.3/../../../../arm-none-linux-gnueabi/include/c++/4.3.3/bits/stl_function.h ****     struct bit_xor : public binary_function<_Tp, _Tp, _Tp>
 307:/home/romar/CodeSourcery/Sourcery_G++_Lite/bin/../lib/gcc/arm-none-linux-gnueabi/4.3.3/../../../../arm-none-linux-gnueabi/include/c++/4.3.3/bits/stl_function.h ****     {
 308:/home/romar/CodeSourcery/Sourcery_G++_Lite/bin/../lib/gcc/arm-none-linux-gnueabi/4.3.3/../../../../arm-none-linux-gnueabi/include/c++/4.3.3/bits/stl_function.h ****       _Tp
 309:/home/romar/CodeSourcery/Sourcery_G++_Lite/bin/../lib/gcc/arm-none-linux-gnueabi/4.3.3/../../../../arm-none-linux-gnueabi/include/c++/4.3.3/bits/stl_function.h ****       operator()(const _Tp& __x, const _Tp& __y) const
 310:/home/romar/CodeSourcery/Sourcery_G++_Lite/bin/../lib/gcc/arm-none-linux-gnueabi/4.3.3/../../../../arm-none-linux-gnueabi/include/c++/4.3.3/bits/stl_function.h ****       { return __x ^ __y; }
 311:/home/romar/CodeSourcery/Sourcery_G++_Lite/bin/../lib/gcc/arm-none-linux-gnueabi/4.3.3/../../../../arm-none-linux-gnueabi/include/c++/4.3.3/bits/stl_function.h ****     };
 312:/home/romar/CodeSourcery/Sourcery_G++_Lite/bin/../lib/gcc/arm-none-linux-gnueabi/4.3.3/../../../../arm-none-linux-gnueabi/include/c++/4.3.3/bits/stl_function.h **** 
 313:/home/romar/CodeSourcery/Sourcery_G++_Lite/bin/../lib/gcc/arm-none-linux-gnueabi/4.3.3/../../../../arm-none-linux-gnueabi/include/c++/4.3.3/bits/stl_function.h ****   // 20.3.5 negators
 314:/home/romar/CodeSourcery/Sourcery_G++_Lite/bin/../lib/gcc/arm-none-linux-gnueabi/4.3.3/../../../../arm-none-linux-gnueabi/include/c++/4.3.3/bits/stl_function.h ****   /** @defgroup s20_3_5_negators Negators
 315:/home/romar/CodeSourcery/Sourcery_G++_Lite/bin/../lib/gcc/arm-none-linux-gnueabi/4.3.3/../../../../arm-none-linux-gnueabi/include/c++/4.3.3/bits/stl_function.h ****    *  The functions @c not1 and @c not2 each take a predicate functor
 316:/home/romar/CodeSourcery/Sourcery_G++_Lite/bin/../lib/gcc/arm-none-linux-gnueabi/4.3.3/../../../../arm-none-linux-gnueabi/include/c++/4.3.3/bits/stl_function.h ****    *  and return an instance of @c unary_negate or
 317:/home/romar/CodeSourcery/Sourcery_G++_Lite/bin/../lib/gcc/arm-none-linux-gnueabi/4.3.3/../../../../arm-none-linux-gnueabi/include/c++/4.3.3/bits/stl_function.h ****    *  @c binary_negate, respectively.  These classes are functors whose
 318:/home/romar/CodeSourcery/Sourcery_G++_Lite/bin/../lib/gcc/arm-none-linux-gnueabi/4.3.3/../../../../arm-none-linux-gnueabi/include/c++/4.3.3/bits/stl_function.h ****    *  @c operator() performs the stored predicate function and then returns
 319:/home/romar/CodeSourcery/Sourcery_G++_Lite/bin/../lib/gcc/arm-none-linux-gnueabi/4.3.3/../../../../arm-none-linux-gnueabi/include/c++/4.3.3/bits/stl_function.h ****    *  the negation of the result.
 320:/home/romar/CodeSourcery/Sourcery_G++_Lite/bin/../lib/gcc/arm-none-linux-gnueabi/4.3.3/../../../../arm-none-linux-gnueabi/include/c++/4.3.3/bits/stl_function.h ****    *
 321:/home/romar/CodeSourcery/Sourcery_G++_Lite/bin/../lib/gcc/arm-none-linux-gnueabi/4.3.3/../../../../arm-none-linux-gnueabi/include/c++/4.3.3/bits/stl_function.h ****    *  For example, given a vector of integers and a trivial predicate,
 322:/home/romar/CodeSourcery/Sourcery_G++_Lite/bin/../lib/gcc/arm-none-linux-gnueabi/4.3.3/../../../../arm-none-linux-gnueabi/include/c++/4.3.3/bits/stl_function.h ****    *  \code
 323:/home/romar/CodeSourcery/Sourcery_G++_Lite/bin/../lib/gcc/arm-none-linux-gnueabi/4.3.3/../../../../arm-none-linux-gnueabi/include/c++/4.3.3/bits/stl_function.h ****    *  struct IntGreaterThanThree
 324:/home/romar/CodeSourcery/Sourcery_G++_Lite/bin/../lib/gcc/arm-none-linux-gnueabi/4.3.3/../../../../arm-none-linux-gnueabi/include/c++/4.3.3/bits/stl_function.h ****    *    : public std::unary_function<int, bool>
 325:/home/romar/CodeSourcery/Sourcery_G++_Lite/bin/../lib/gcc/arm-none-linux-gnueabi/4.3.3/../../../../arm-none-linux-gnueabi/include/c++/4.3.3/bits/stl_function.h ****    *  {
 326:/home/romar/CodeSourcery/Sourcery_G++_Lite/bin/../lib/gcc/arm-none-linux-gnueabi/4.3.3/../../../../arm-none-linux-gnueabi/include/c++/4.3.3/bits/stl_function.h ****    *      bool operator() (int x) { return x > 3; }
 327:/home/romar/CodeSourcery/Sourcery_G++_Lite/bin/../lib/gcc/arm-none-linux-gnueabi/4.3.3/../../../../arm-none-linux-gnueabi/include/c++/4.3.3/bits/stl_function.h ****    *  };
 328:/home/romar/CodeSourcery/Sourcery_G++_Lite/bin/../lib/gcc/arm-none-linux-gnueabi/4.3.3/../../../../arm-none-linux-gnueabi/include/c++/4.3.3/bits/stl_function.h ****    *
 329:/home/romar/CodeSourcery/Sourcery_G++_Lite/bin/../lib/gcc/arm-none-linux-gnueabi/4.3.3/../../../../arm-none-linux-gnueabi/include/c++/4.3.3/bits/stl_function.h ****    *  std::find_if (v.begin(), v.end(), not1(IntGreaterThanThree()));
 330:/home/romar/CodeSourcery/Sourcery_G++_Lite/bin/../lib/gcc/arm-none-linux-gnueabi/4.3.3/../../../../arm-none-linux-gnueabi/include/c++/4.3.3/bits/stl_function.h ****    *  \endcode
 331:/home/romar/CodeSourcery/Sourcery_G++_Lite/bin/../lib/gcc/arm-none-linux-gnueabi/4.3.3/../../../../arm-none-linux-gnueabi/include/c++/4.3.3/bits/stl_function.h ****    *  The call to @c find_if will locate the first index (i) of @c v for which
 332:/home/romar/CodeSourcery/Sourcery_G++_Lite/bin/../lib/gcc/arm-none-linux-gnueabi/4.3.3/../../../../arm-none-linux-gnueabi/include/c++/4.3.3/bits/stl_function.h ****    *  "!(v[i] > 3)" is true.
 333:/home/romar/CodeSourcery/Sourcery_G++_Lite/bin/../lib/gcc/arm-none-linux-gnueabi/4.3.3/../../../../arm-none-linux-gnueabi/include/c++/4.3.3/bits/stl_function.h ****    *
 334:/home/romar/CodeSourcery/Sourcery_G++_Lite/bin/../lib/gcc/arm-none-linux-gnueabi/4.3.3/../../../../arm-none-linux-gnueabi/include/c++/4.3.3/bits/stl_function.h ****    *  The not1/unary_negate combination works on predicates taking a single
 335:/home/romar/CodeSourcery/Sourcery_G++_Lite/bin/../lib/gcc/arm-none-linux-gnueabi/4.3.3/../../../../arm-none-linux-gnueabi/include/c++/4.3.3/bits/stl_function.h ****    *  argument.  The not2/binary_negate combination works on predicates which
 336:/home/romar/CodeSourcery/Sourcery_G++_Lite/bin/../lib/gcc/arm-none-linux-gnueabi/4.3.3/../../../../arm-none-linux-gnueabi/include/c++/4.3.3/bits/stl_function.h ****    *  take two arguments.
 337:/home/romar/CodeSourcery/Sourcery_G++_Lite/bin/../lib/gcc/arm-none-linux-gnueabi/4.3.3/../../../../arm-none-linux-gnueabi/include/c++/4.3.3/bits/stl_function.h ****    *
 338:/home/romar/CodeSourcery/Sourcery_G++_Lite/bin/../lib/gcc/arm-none-linux-gnueabi/4.3.3/../../../../arm-none-linux-gnueabi/include/c++/4.3.3/bits/stl_function.h ****    *  @{
 339:/home/romar/CodeSourcery/Sourcery_G++_Lite/bin/../lib/gcc/arm-none-linux-gnueabi/4.3.3/../../../../arm-none-linux-gnueabi/include/c++/4.3.3/bits/stl_function.h ****    */
 340:/home/romar/CodeSourcery/Sourcery_G++_Lite/bin/../lib/gcc/arm-none-linux-gnueabi/4.3.3/../../../../arm-none-linux-gnueabi/include/c++/4.3.3/bits/stl_function.h ****   /// One of the @link s20_3_5_negators negation functors@endlink.
 341:/home/romar/CodeSourcery/Sourcery_G++_Lite/bin/../lib/gcc/arm-none-linux-gnueabi/4.3.3/../../../../arm-none-linux-gnueabi/include/c++/4.3.3/bits/stl_function.h ****   template<typename _Predicate>
 342:/home/romar/CodeSourcery/Sourcery_G++_Lite/bin/../lib/gcc/arm-none-linux-gnueabi/4.3.3/../../../../arm-none-linux-gnueabi/include/c++/4.3.3/bits/stl_function.h ****     class unary_negate
 343:/home/romar/CodeSourcery/Sourcery_G++_Lite/bin/../lib/gcc/arm-none-linux-gnueabi/4.3.3/../../../../arm-none-linux-gnueabi/include/c++/4.3.3/bits/stl_function.h ****     : public unary_function<typename _Predicate::argument_type, bool>
 344:/home/romar/CodeSourcery/Sourcery_G++_Lite/bin/../lib/gcc/arm-none-linux-gnueabi/4.3.3/../../../../arm-none-linux-gnueabi/include/c++/4.3.3/bits/stl_function.h ****     {
 345:/home/romar/CodeSourcery/Sourcery_G++_Lite/bin/../lib/gcc/arm-none-linux-gnueabi/4.3.3/../../../../arm-none-linux-gnueabi/include/c++/4.3.3/bits/stl_function.h ****     protected:
 346:/home/romar/CodeSourcery/Sourcery_G++_Lite/bin/../lib/gcc/arm-none-linux-gnueabi/4.3.3/../../../../arm-none-linux-gnueabi/include/c++/4.3.3/bits/stl_function.h ****       _Predicate _M_pred;
 347:/home/romar/CodeSourcery/Sourcery_G++_Lite/bin/../lib/gcc/arm-none-linux-gnueabi/4.3.3/../../../../arm-none-linux-gnueabi/include/c++/4.3.3/bits/stl_function.h **** 
 348:/home/romar/CodeSourcery/Sourcery_G++_Lite/bin/../lib/gcc/arm-none-linux-gnueabi/4.3.3/../../../../arm-none-linux-gnueabi/include/c++/4.3.3/bits/stl_function.h ****     public:
 349:/home/romar/CodeSourcery/Sourcery_G++_Lite/bin/../lib/gcc/arm-none-linux-gnueabi/4.3.3/../../../../arm-none-linux-gnueabi/include/c++/4.3.3/bits/stl_function.h ****       explicit
 350:/home/romar/CodeSourcery/Sourcery_G++_Lite/bin/../lib/gcc/arm-none-linux-gnueabi/4.3.3/../../../../arm-none-linux-gnueabi/include/c++/4.3.3/bits/stl_function.h ****       unary_negate(const _Predicate& __x) : _M_pred(__x) { }
 351:/home/romar/CodeSourcery/Sourcery_G++_Lite/bin/../lib/gcc/arm-none-linux-gnueabi/4.3.3/../../../../arm-none-linux-gnueabi/include/c++/4.3.3/bits/stl_function.h **** 
 352:/home/romar/CodeSourcery/Sourcery_G++_Lite/bin/../lib/gcc/arm-none-linux-gnueabi/4.3.3/../../../../arm-none-linux-gnueabi/include/c++/4.3.3/bits/stl_function.h ****       bool
 353:/home/romar/CodeSourcery/Sourcery_G++_Lite/bin/../lib/gcc/arm-none-linux-gnueabi/4.3.3/../../../../arm-none-linux-gnueabi/include/c++/4.3.3/bits/stl_function.h ****       operator()(const typename _Predicate::argument_type& __x) const
 354:/home/romar/CodeSourcery/Sourcery_G++_Lite/bin/../lib/gcc/arm-none-linux-gnueabi/4.3.3/../../../../arm-none-linux-gnueabi/include/c++/4.3.3/bits/stl_function.h ****       { return !_M_pred(__x); }
 355:/home/romar/CodeSourcery/Sourcery_G++_Lite/bin/../lib/gcc/arm-none-linux-gnueabi/4.3.3/../../../../arm-none-linux-gnueabi/include/c++/4.3.3/bits/stl_function.h ****     };
 356:/home/romar/CodeSourcery/Sourcery_G++_Lite/bin/../lib/gcc/arm-none-linux-gnueabi/4.3.3/../../../../arm-none-linux-gnueabi/include/c++/4.3.3/bits/stl_function.h **** 
 357:/home/romar/CodeSourcery/Sourcery_G++_Lite/bin/../lib/gcc/arm-none-linux-gnueabi/4.3.3/../../../../arm-none-linux-gnueabi/include/c++/4.3.3/bits/stl_function.h ****   /// One of the @link s20_3_5_negators negation functors@endlink.
 358:/home/romar/CodeSourcery/Sourcery_G++_Lite/bin/../lib/gcc/arm-none-linux-gnueabi/4.3.3/../../../../arm-none-linux-gnueabi/include/c++/4.3.3/bits/stl_function.h ****   template<typename _Predicate>
 359:/home/romar/CodeSourcery/Sourcery_G++_Lite/bin/../lib/gcc/arm-none-linux-gnueabi/4.3.3/../../../../arm-none-linux-gnueabi/include/c++/4.3.3/bits/stl_function.h ****     inline unary_negate<_Predicate>
 360:/home/romar/CodeSourcery/Sourcery_G++_Lite/bin/../lib/gcc/arm-none-linux-gnueabi/4.3.3/../../../../arm-none-linux-gnueabi/include/c++/4.3.3/bits/stl_function.h ****     not1(const _Predicate& __pred)
 361:/home/romar/CodeSourcery/Sourcery_G++_Lite/bin/../lib/gcc/arm-none-linux-gnueabi/4.3.3/../../../../arm-none-linux-gnueabi/include/c++/4.3.3/bits/stl_function.h ****     { return unary_negate<_Predicate>(__pred); }
 362:/home/romar/CodeSourcery/Sourcery_G++_Lite/bin/../lib/gcc/arm-none-linux-gnueabi/4.3.3/../../../../arm-none-linux-gnueabi/include/c++/4.3.3/bits/stl_function.h **** 
 363:/home/romar/CodeSourcery/Sourcery_G++_Lite/bin/../lib/gcc/arm-none-linux-gnueabi/4.3.3/../../../../arm-none-linux-gnueabi/include/c++/4.3.3/bits/stl_function.h ****   /// One of the @link s20_3_5_negators negation functors@endlink.
 364:/home/romar/CodeSourcery/Sourcery_G++_Lite/bin/../lib/gcc/arm-none-linux-gnueabi/4.3.3/../../../../arm-none-linux-gnueabi/include/c++/4.3.3/bits/stl_function.h ****   template<typename _Predicate>
 365:/home/romar/CodeSourcery/Sourcery_G++_Lite/bin/../lib/gcc/arm-none-linux-gnueabi/4.3.3/../../../../arm-none-linux-gnueabi/include/c++/4.3.3/bits/stl_function.h ****     class binary_negate
 366:/home/romar/CodeSourcery/Sourcery_G++_Lite/bin/../lib/gcc/arm-none-linux-gnueabi/4.3.3/../../../../arm-none-linux-gnueabi/include/c++/4.3.3/bits/stl_function.h ****     : public binary_function<typename _Predicate::first_argument_type,
 367:/home/romar/CodeSourcery/Sourcery_G++_Lite/bin/../lib/gcc/arm-none-linux-gnueabi/4.3.3/../../../../arm-none-linux-gnueabi/include/c++/4.3.3/bits/stl_function.h **** 			     typename _Predicate::second_argument_type, bool>
 368:/home/romar/CodeSourcery/Sourcery_G++_Lite/bin/../lib/gcc/arm-none-linux-gnueabi/4.3.3/../../../../arm-none-linux-gnueabi/include/c++/4.3.3/bits/stl_function.h ****     {
 369:/home/romar/CodeSourcery/Sourcery_G++_Lite/bin/../lib/gcc/arm-none-linux-gnueabi/4.3.3/../../../../arm-none-linux-gnueabi/include/c++/4.3.3/bits/stl_function.h ****     protected:
 370:/home/romar/CodeSourcery/Sourcery_G++_Lite/bin/../lib/gcc/arm-none-linux-gnueabi/4.3.3/../../../../arm-none-linux-gnueabi/include/c++/4.3.3/bits/stl_function.h ****       _Predicate _M_pred;
 371:/home/romar/CodeSourcery/Sourcery_G++_Lite/bin/../lib/gcc/arm-none-linux-gnueabi/4.3.3/../../../../arm-none-linux-gnueabi/include/c++/4.3.3/bits/stl_function.h **** 
 372:/home/romar/CodeSourcery/Sourcery_G++_Lite/bin/../lib/gcc/arm-none-linux-gnueabi/4.3.3/../../../../arm-none-linux-gnueabi/include/c++/4.3.3/bits/stl_function.h ****     public:
 373:/home/romar/CodeSourcery/Sourcery_G++_Lite/bin/../lib/gcc/arm-none-linux-gnueabi/4.3.3/../../../../arm-none-linux-gnueabi/include/c++/4.3.3/bits/stl_function.h ****       explicit
 374:/home/romar/CodeSourcery/Sourcery_G++_Lite/bin/../lib/gcc/arm-none-linux-gnueabi/4.3.3/../../../../arm-none-linux-gnueabi/include/c++/4.3.3/bits/stl_function.h ****       binary_negate(const _Predicate& __x) : _M_pred(__x) { }
 375:/home/romar/CodeSourcery/Sourcery_G++_Lite/bin/../lib/gcc/arm-none-linux-gnueabi/4.3.3/../../../../arm-none-linux-gnueabi/include/c++/4.3.3/bits/stl_function.h **** 
 376:/home/romar/CodeSourcery/Sourcery_G++_Lite/bin/../lib/gcc/arm-none-linux-gnueabi/4.3.3/../../../../arm-none-linux-gnueabi/include/c++/4.3.3/bits/stl_function.h ****       bool
 377:/home/romar/CodeSourcery/Sourcery_G++_Lite/bin/../lib/gcc/arm-none-linux-gnueabi/4.3.3/../../../../arm-none-linux-gnueabi/include/c++/4.3.3/bits/stl_function.h ****       operator()(const typename _Predicate::first_argument_type& __x,
 378:/home/romar/CodeSourcery/Sourcery_G++_Lite/bin/../lib/gcc/arm-none-linux-gnueabi/4.3.3/../../../../arm-none-linux-gnueabi/include/c++/4.3.3/bits/stl_function.h **** 		 const typename _Predicate::second_argument_type& __y) const
 379:/home/romar/CodeSourcery/Sourcery_G++_Lite/bin/../lib/gcc/arm-none-linux-gnueabi/4.3.3/../../../../arm-none-linux-gnueabi/include/c++/4.3.3/bits/stl_function.h ****       { return !_M_pred(__x, __y); }
 380:/home/romar/CodeSourcery/Sourcery_G++_Lite/bin/../lib/gcc/arm-none-linux-gnueabi/4.3.3/../../../../arm-none-linux-gnueabi/include/c++/4.3.3/bits/stl_function.h ****     };
 381:/home/romar/CodeSourcery/Sourcery_G++_Lite/bin/../lib/gcc/arm-none-linux-gnueabi/4.3.3/../../../../arm-none-linux-gnueabi/include/c++/4.3.3/bits/stl_function.h **** 
 382:/home/romar/CodeSourcery/Sourcery_G++_Lite/bin/../lib/gcc/arm-none-linux-gnueabi/4.3.3/../../../../arm-none-linux-gnueabi/include/c++/4.3.3/bits/stl_function.h ****   /// One of the @link s20_3_5_negators negation functors@endlink.
 383:/home/romar/CodeSourcery/Sourcery_G++_Lite/bin/../lib/gcc/arm-none-linux-gnueabi/4.3.3/../../../../arm-none-linux-gnueabi/include/c++/4.3.3/bits/stl_function.h ****   template<typename _Predicate>
 384:/home/romar/CodeSourcery/Sourcery_G++_Lite/bin/../lib/gcc/arm-none-linux-gnueabi/4.3.3/../../../../arm-none-linux-gnueabi/include/c++/4.3.3/bits/stl_function.h ****     inline binary_negate<_Predicate>
 385:/home/romar/CodeSourcery/Sourcery_G++_Lite/bin/../lib/gcc/arm-none-linux-gnueabi/4.3.3/../../../../arm-none-linux-gnueabi/include/c++/4.3.3/bits/stl_function.h ****     not2(const _Predicate& __pred)
 386:/home/romar/CodeSourcery/Sourcery_G++_Lite/bin/../lib/gcc/arm-none-linux-gnueabi/4.3.3/../../../../arm-none-linux-gnueabi/include/c++/4.3.3/bits/stl_function.h ****     { return binary_negate<_Predicate>(__pred); }
 387:/home/romar/CodeSourcery/Sourcery_G++_Lite/bin/../lib/gcc/arm-none-linux-gnueabi/4.3.3/../../../../arm-none-linux-gnueabi/include/c++/4.3.3/bits/stl_function.h ****   /** @}  */
 388:/home/romar/CodeSourcery/Sourcery_G++_Lite/bin/../lib/gcc/arm-none-linux-gnueabi/4.3.3/../../../../arm-none-linux-gnueabi/include/c++/4.3.3/bits/stl_function.h **** 
 389:/home/romar/CodeSourcery/Sourcery_G++_Lite/bin/../lib/gcc/arm-none-linux-gnueabi/4.3.3/../../../../arm-none-linux-gnueabi/include/c++/4.3.3/bits/stl_function.h ****   // 20.3.7 adaptors pointers functions
 390:/home/romar/CodeSourcery/Sourcery_G++_Lite/bin/../lib/gcc/arm-none-linux-gnueabi/4.3.3/../../../../arm-none-linux-gnueabi/include/c++/4.3.3/bits/stl_function.h ****   /** @defgroup s20_3_7_adaptors Adaptors for pointers to functions
 391:/home/romar/CodeSourcery/Sourcery_G++_Lite/bin/../lib/gcc/arm-none-linux-gnueabi/4.3.3/../../../../arm-none-linux-gnueabi/include/c++/4.3.3/bits/stl_function.h ****    *  The advantage of function objects over pointers to functions is that
 392:/home/romar/CodeSourcery/Sourcery_G++_Lite/bin/../lib/gcc/arm-none-linux-gnueabi/4.3.3/../../../../arm-none-linux-gnueabi/include/c++/4.3.3/bits/stl_function.h ****    *  the objects in the standard library declare nested typedefs describing
 393:/home/romar/CodeSourcery/Sourcery_G++_Lite/bin/../lib/gcc/arm-none-linux-gnueabi/4.3.3/../../../../arm-none-linux-gnueabi/include/c++/4.3.3/bits/stl_function.h ****    *  their argument and result types with uniform names (e.g., @c result_type
 394:/home/romar/CodeSourcery/Sourcery_G++_Lite/bin/../lib/gcc/arm-none-linux-gnueabi/4.3.3/../../../../arm-none-linux-gnueabi/include/c++/4.3.3/bits/stl_function.h ****    *  from the base classes @c unary_function and @c binary_function).
 395:/home/romar/CodeSourcery/Sourcery_G++_Lite/bin/../lib/gcc/arm-none-linux-gnueabi/4.3.3/../../../../arm-none-linux-gnueabi/include/c++/4.3.3/bits/stl_function.h ****    *  Sometimes those typedefs are required, not just optional.
 396:/home/romar/CodeSourcery/Sourcery_G++_Lite/bin/../lib/gcc/arm-none-linux-gnueabi/4.3.3/../../../../arm-none-linux-gnueabi/include/c++/4.3.3/bits/stl_function.h ****    *
 397:/home/romar/CodeSourcery/Sourcery_G++_Lite/bin/../lib/gcc/arm-none-linux-gnueabi/4.3.3/../../../../arm-none-linux-gnueabi/include/c++/4.3.3/bits/stl_function.h ****    *  Adaptors are provided to turn pointers to unary (single-argument) and
 398:/home/romar/CodeSourcery/Sourcery_G++_Lite/bin/../lib/gcc/arm-none-linux-gnueabi/4.3.3/../../../../arm-none-linux-gnueabi/include/c++/4.3.3/bits/stl_function.h ****    *  binary (double-argument) functions into function objects.  The
 399:/home/romar/CodeSourcery/Sourcery_G++_Lite/bin/../lib/gcc/arm-none-linux-gnueabi/4.3.3/../../../../arm-none-linux-gnueabi/include/c++/4.3.3/bits/stl_function.h ****    *  long-winded functor @c pointer_to_unary_function is constructed with a
 400:/home/romar/CodeSourcery/Sourcery_G++_Lite/bin/../lib/gcc/arm-none-linux-gnueabi/4.3.3/../../../../arm-none-linux-gnueabi/include/c++/4.3.3/bits/stl_function.h ****    *  function pointer @c f, and its @c operator() called with argument @c x
 401:/home/romar/CodeSourcery/Sourcery_G++_Lite/bin/../lib/gcc/arm-none-linux-gnueabi/4.3.3/../../../../arm-none-linux-gnueabi/include/c++/4.3.3/bits/stl_function.h ****    *  returns @c f(x).  The functor @c pointer_to_binary_function does the same
 402:/home/romar/CodeSourcery/Sourcery_G++_Lite/bin/../lib/gcc/arm-none-linux-gnueabi/4.3.3/../../../../arm-none-linux-gnueabi/include/c++/4.3.3/bits/stl_function.h ****    *  thing, but with a double-argument @c f and @c operator().
 403:/home/romar/CodeSourcery/Sourcery_G++_Lite/bin/../lib/gcc/arm-none-linux-gnueabi/4.3.3/../../../../arm-none-linux-gnueabi/include/c++/4.3.3/bits/stl_function.h ****    *
 404:/home/romar/CodeSourcery/Sourcery_G++_Lite/bin/../lib/gcc/arm-none-linux-gnueabi/4.3.3/../../../../arm-none-linux-gnueabi/include/c++/4.3.3/bits/stl_function.h ****    *  The function @c ptr_fun takes a pointer-to-function @c f and constructs
 405:/home/romar/CodeSourcery/Sourcery_G++_Lite/bin/../lib/gcc/arm-none-linux-gnueabi/4.3.3/../../../../arm-none-linux-gnueabi/include/c++/4.3.3/bits/stl_function.h ****    *  an instance of the appropriate functor.
 406:/home/romar/CodeSourcery/Sourcery_G++_Lite/bin/../lib/gcc/arm-none-linux-gnueabi/4.3.3/../../../../arm-none-linux-gnueabi/include/c++/4.3.3/bits/stl_function.h ****    *
 407:/home/romar/CodeSourcery/Sourcery_G++_Lite/bin/../lib/gcc/arm-none-linux-gnueabi/4.3.3/../../../../arm-none-linux-gnueabi/include/c++/4.3.3/bits/stl_function.h ****    *  @{
 408:/home/romar/CodeSourcery/Sourcery_G++_Lite/bin/../lib/gcc/arm-none-linux-gnueabi/4.3.3/../../../../arm-none-linux-gnueabi/include/c++/4.3.3/bits/stl_function.h ****    */
 409:/home/romar/CodeSourcery/Sourcery_G++_Lite/bin/../lib/gcc/arm-none-linux-gnueabi/4.3.3/../../../../arm-none-linux-gnueabi/include/c++/4.3.3/bits/stl_function.h ****   /// One of the @link s20_3_7_adaptors adaptors for function pointers@endlink.
 410:/home/romar/CodeSourcery/Sourcery_G++_Lite/bin/../lib/gcc/arm-none-linux-gnueabi/4.3.3/../../../../arm-none-linux-gnueabi/include/c++/4.3.3/bits/stl_function.h ****   template<typename _Arg, typename _Result>
 411:/home/romar/CodeSourcery/Sourcery_G++_Lite/bin/../lib/gcc/arm-none-linux-gnueabi/4.3.3/../../../../arm-none-linux-gnueabi/include/c++/4.3.3/bits/stl_function.h ****     class pointer_to_unary_function : public unary_function<_Arg, _Result>
 412:/home/romar/CodeSourcery/Sourcery_G++_Lite/bin/../lib/gcc/arm-none-linux-gnueabi/4.3.3/../../../../arm-none-linux-gnueabi/include/c++/4.3.3/bits/stl_function.h ****     {
 413:/home/romar/CodeSourcery/Sourcery_G++_Lite/bin/../lib/gcc/arm-none-linux-gnueabi/4.3.3/../../../../arm-none-linux-gnueabi/include/c++/4.3.3/bits/stl_function.h ****     protected:
 414:/home/romar/CodeSourcery/Sourcery_G++_Lite/bin/../lib/gcc/arm-none-linux-gnueabi/4.3.3/../../../../arm-none-linux-gnueabi/include/c++/4.3.3/bits/stl_function.h ****       _Result (*_M_ptr)(_Arg);
 415:/home/romar/CodeSourcery/Sourcery_G++_Lite/bin/../lib/gcc/arm-none-linux-gnueabi/4.3.3/../../../../arm-none-linux-gnueabi/include/c++/4.3.3/bits/stl_function.h **** 
 416:/home/romar/CodeSourcery/Sourcery_G++_Lite/bin/../lib/gcc/arm-none-linux-gnueabi/4.3.3/../../../../arm-none-linux-gnueabi/include/c++/4.3.3/bits/stl_function.h ****     public:
 417:/home/romar/CodeSourcery/Sourcery_G++_Lite/bin/../lib/gcc/arm-none-linux-gnueabi/4.3.3/../../../../arm-none-linux-gnueabi/include/c++/4.3.3/bits/stl_function.h ****       pointer_to_unary_function() { }
 418:/home/romar/CodeSourcery/Sourcery_G++_Lite/bin/../lib/gcc/arm-none-linux-gnueabi/4.3.3/../../../../arm-none-linux-gnueabi/include/c++/4.3.3/bits/stl_function.h **** 
 419:/home/romar/CodeSourcery/Sourcery_G++_Lite/bin/../lib/gcc/arm-none-linux-gnueabi/4.3.3/../../../../arm-none-linux-gnueabi/include/c++/4.3.3/bits/stl_function.h ****       explicit
 420:/home/romar/CodeSourcery/Sourcery_G++_Lite/bin/../lib/gcc/arm-none-linux-gnueabi/4.3.3/../../../../arm-none-linux-gnueabi/include/c++/4.3.3/bits/stl_function.h ****       pointer_to_unary_function(_Result (*__x)(_Arg))
 14919              		.loc 61 420 0
 14920              		.save	{r7, lr}
 14921 0000 80B5     		push	{r7, lr}
 14922              	.LCFI3:
 14923              		.pad #8
 14924 0002 82B0     		sub	sp, sp, #8
 14925              	.LCFI4:
 14926              		.setfp r7, sp, #0
 14927 0004 00AF     		add	r7, sp, #0
 14928              	.LCFI5:
 14929 0006 7860     		str	r0, [r7, #4]
 14930 0008 3960     		str	r1, [r7]
 421:/home/romar/CodeSourcery/Sourcery_G++_Lite/bin/../lib/gcc/arm-none-linux-gnueabi/4.3.3/../../../../arm-none-linux-gnueabi/include/c++/4.3.3/bits/stl_function.h ****       : _M_ptr(__x) { }
 14931              		.loc 61 421 0
 14932 000a 7B68     		ldr	r3, [r7, #4]
 14933 000c 181C     		mov	r0, r3
 14934 000e FFF7FEFF 		bl	_ZNSt14unary_functionIiiEC2Ev
 14935 0012 7A68     		ldr	r2, [r7, #4]
 14936 0014 3B68     		ldr	r3, [r7]
 14937 0016 1360     		str	r3, [r2]
 14938 0018 7B68     		ldr	r3, [r7, #4]
 14939 001a 181C     		mov	r0, r3
 14940 001c BD46     		mov	sp, r7
 14941 001e 02B0     		add	sp, sp, #8
 14942              		@ sp needed for prologue
 14943 0020 80BD     		pop	{r7, pc}
 14944              	.LFE1361:
 14945              		.fnend
 14947 0022 C046     		.section	.text._ZSt7ptr_funIiiESt25pointer_to_unary_functionIT_T0_EPFS2_S1_E,"axG",%progbits,_ZSt7
 14948              		.align	2
 14949              		.weak	_ZSt7ptr_funIiiESt25pointer_to_unary_functionIT_T0_EPFS2_S1_E
 14950              		.code	16
 14951              		.thumb_func
 14953              	_ZSt7ptr_funIiiESt25pointer_to_unary_functionIT_T0_EPFS2_S1_E:
 14954              		.fnstart
 14955              	.LFB1309:
 422:/home/romar/CodeSourcery/Sourcery_G++_Lite/bin/../lib/gcc/arm-none-linux-gnueabi/4.3.3/../../../../arm-none-linux-gnueabi/include/c++/4.3.3/bits/stl_function.h **** 
 423:/home/romar/CodeSourcery/Sourcery_G++_Lite/bin/../lib/gcc/arm-none-linux-gnueabi/4.3.3/../../../../arm-none-linux-gnueabi/include/c++/4.3.3/bits/stl_function.h ****       _Result
 424:/home/romar/CodeSourcery/Sourcery_G++_Lite/bin/../lib/gcc/arm-none-linux-gnueabi/4.3.3/../../../../arm-none-linux-gnueabi/include/c++/4.3.3/bits/stl_function.h ****       operator()(_Arg __x) const
 425:/home/romar/CodeSourcery/Sourcery_G++_Lite/bin/../lib/gcc/arm-none-linux-gnueabi/4.3.3/../../../../arm-none-linux-gnueabi/include/c++/4.3.3/bits/stl_function.h ****       { return _M_ptr(__x); }
 426:/home/romar/CodeSourcery/Sourcery_G++_Lite/bin/../lib/gcc/arm-none-linux-gnueabi/4.3.3/../../../../arm-none-linux-gnueabi/include/c++/4.3.3/bits/stl_function.h ****     };
 427:/home/romar/CodeSourcery/Sourcery_G++_Lite/bin/../lib/gcc/arm-none-linux-gnueabi/4.3.3/../../../../arm-none-linux-gnueabi/include/c++/4.3.3/bits/stl_function.h **** 
 428:/home/romar/CodeSourcery/Sourcery_G++_Lite/bin/../lib/gcc/arm-none-linux-gnueabi/4.3.3/../../../../arm-none-linux-gnueabi/include/c++/4.3.3/bits/stl_function.h ****   /// One of the @link s20_3_7_adaptors adaptors for function pointers@endlink.
 429:/home/romar/CodeSourcery/Sourcery_G++_Lite/bin/../lib/gcc/arm-none-linux-gnueabi/4.3.3/../../../../arm-none-linux-gnueabi/include/c++/4.3.3/bits/stl_function.h ****   template<typename _Arg, typename _Result>
 430:/home/romar/CodeSourcery/Sourcery_G++_Lite/bin/../lib/gcc/arm-none-linux-gnueabi/4.3.3/../../../../arm-none-linux-gnueabi/include/c++/4.3.3/bits/stl_function.h ****     inline pointer_to_unary_function<_Arg, _Result>
 431:/home/romar/CodeSourcery/Sourcery_G++_Lite/bin/../lib/gcc/arm-none-linux-gnueabi/4.3.3/../../../../arm-none-linux-gnueabi/include/c++/4.3.3/bits/stl_function.h ****     ptr_fun(_Result (*__x)(_Arg))
 14956              		.loc 61 431 0
 14957              		.save	{r7, lr}
 14958 0000 80B5     		push	{r7, lr}
 14959              	.LCFI6:
 14960              		.pad #16
 14961 0002 84B0     		sub	sp, sp, #16
 14962              	.LCFI7:
 14963              		.setfp r7, sp, #0
 14964 0004 00AF     		add	r7, sp, #0
 14965              	.LCFI8:
 14966 0006 7860     		str	r0, [r7, #4]
 432:/home/romar/CodeSourcery/Sourcery_G++_Lite/bin/../lib/gcc/arm-none-linux-gnueabi/4.3.3/../../../../arm-none-linux-gnueabi/include/c++/4.3.3/bits/stl_function.h ****     { return pointer_to_unary_function<_Arg, _Result>(__x); }
 14967              		.loc 61 432 0
 14968 0008 3B1C     		mov	r3, r7
 14969 000a 0C33     		add	r3, r3, #12
 14970 000c 7A68     		ldr	r2, [r7, #4]
 14971 000e 181C     		mov	r0, r3
 14972 0010 111C     		mov	r1, r2
 14973 0012 FFF7FEFF 		bl	_ZNSt25pointer_to_unary_functionIiiEC1EPFiiE
 14974 0016 FB68     		ldr	r3, [r7, #12]
 14975 0018 181C     		mov	r0, r3
 14976 001a BD46     		mov	sp, r7
 14977 001c 04B0     		add	sp, sp, #16
 14978              		@ sp needed for prologue
 14979 001e 80BD     		pop	{r7, pc}
 14980              	.LFE1309:
 14981              		.fnend
 14983              		.section	.text._ZNSt14unary_functionIibEC2Ev,"axG",%progbits,_ZNSt14unary_functionIibEC2Ev,comdat
 14984              		.align	2
 14985              		.weak	_ZNSt14unary_functionIibEC2Ev
 14986              		.code	16
 14987              		.thumb_func
 14989              	_ZNSt14unary_functionIibEC2Ev:
 14990              		.fnstart
 14991              	.LFB1364:
 14992              		.loc 61 104 0
 14993              		.save	{r7, lr}
 14994 0000 80B5     		push	{r7, lr}
 14995              	.LCFI9:
 14996              		.pad #8
 14997 0002 82B0     		sub	sp, sp, #8
 14998              	.LCFI10:
 14999              		.setfp r7, sp, #0
 15000 0004 00AF     		add	r7, sp, #0
 15001              	.LCFI11:
 15002 0006 7860     		str	r0, [r7, #4]
 15003              		.loc 61 104 0
 15004 0008 7B68     		ldr	r3, [r7, #4]
 15005 000a 181C     		mov	r0, r3
 15006 000c BD46     		mov	sp, r7
 15007 000e 02B0     		add	sp, sp, #8
 15008              		@ sp needed for prologue
 15009 0010 80BD     		pop	{r7, pc}
 15010              	.LFE1364:
 15011              		.fnend
 15013 0012 C046     		.section	.text._ZNSt12unary_negateISt25pointer_to_unary_functionIiiEEC1ERKS1_,"axG",%progbits,_ZNS
 15014              		.align	2
 15015              		.weak	_ZNSt12unary_negateISt25pointer_to_unary_functionIiiEEC1ERKS1_
 15016              		.code	16
 15017              		.thumb_func
 15019              	_ZNSt12unary_negateISt25pointer_to_unary_functionIiiEEC1ERKS1_:
 15020              		.fnstart
 15021              	.LFB1367:
 15022              		.loc 61 350 0
 15023              		.save	{r7, lr}
 15024 0000 80B5     		push	{r7, lr}
 15025              	.LCFI12:
 15026              		.pad #8
 15027 0002 82B0     		sub	sp, sp, #8
 15028              	.LCFI13:
 15029              		.setfp r7, sp, #0
 15030 0004 00AF     		add	r7, sp, #0
 15031              	.LCFI14:
 15032 0006 7860     		str	r0, [r7, #4]
 15033 0008 3960     		str	r1, [r7]
 15034              		.loc 61 350 0
 15035 000a 7B68     		ldr	r3, [r7, #4]
 15036 000c 181C     		mov	r0, r3
 15037 000e FFF7FEFF 		bl	_ZNSt14unary_functionIibEC2Ev
 15038 0012 3B68     		ldr	r3, [r7]
 15039 0014 1A68     		ldr	r2, [r3]
 15040 0016 7B68     		ldr	r3, [r7, #4]
 15041 0018 1A60     		str	r2, [r3]
 15042 001a 7B68     		ldr	r3, [r7, #4]
 15043 001c 181C     		mov	r0, r3
 15044 001e BD46     		mov	sp, r7
 15045 0020 02B0     		add	sp, sp, #8
 15046              		@ sp needed for prologue
 15047 0022 80BD     		pop	{r7, pc}
 15048              	.LFE1367:
 15049              		.fnend
 15051              		.section	.text._ZSt4not1ISt25pointer_to_unary_functionIiiEESt12unary_negateIT_ERKS3_,"axG",%progbi
 15052              		.align	2
 15053              		.weak	_ZSt4not1ISt25pointer_to_unary_functionIiiEESt12unary_negateIT_ERKS3_
 15054              		.code	16
 15055              		.thumb_func
 15057              	_ZSt4not1ISt25pointer_to_unary_functionIiiEESt12unary_negateIT_ERKS3_:
 15058              		.fnstart
 15059              	.LFB1310:
 15060              		.loc 61 360 0
 15061              		.save	{r7, lr}
 15062 0000 80B5     		push	{r7, lr}
 15063              	.LCFI15:
 15064              		.pad #16
 15065 0002 84B0     		sub	sp, sp, #16
 15066              	.LCFI16:
 15067              		.setfp r7, sp, #0
 15068 0004 00AF     		add	r7, sp, #0
 15069              	.LCFI17:
 15070 0006 7860     		str	r0, [r7, #4]
 15071              		.loc 61 361 0
 15072 0008 3B1C     		mov	r3, r7
 15073 000a 0C33     		add	r3, r3, #12
 15074 000c 7A68     		ldr	r2, [r7, #4]
 15075 000e 181C     		mov	r0, r3
 15076 0010 111C     		mov	r1, r2
 15077 0012 FFF7FEFF 		bl	_ZNSt12unary_negateISt25pointer_to_unary_functionIiiEEC1ERKS1_
 15078 0016 FB68     		ldr	r3, [r7, #12]
 15079 0018 181C     		mov	r0, r3
 15080 001a BD46     		mov	sp, r7
 15081 001c 04B0     		add	sp, sp, #16
 15082              		@ sp needed for prologue
 15083 001e 80BD     		pop	{r7, pc}
 15084              	.LFE1310:
 15085              		.fnend
 15087              		.section	.text._ZN9__gnu_cxx17__normal_iteratorIPcSsEppEv,"axG",%progbits,_ZN9__gnu_cxx17__normal_
 15088              		.align	2
 15089              		.weak	_ZN9__gnu_cxx17__normal_iteratorIPcSsEppEv
 15090              		.code	16
 15091              		.thumb_func
 15093              	_ZN9__gnu_cxx17__normal_iteratorIPcSsEppEv:
 15094              		.fnstart
 15095              	.LFB1370:
   1:/home/romar/CodeSourcery/Sourcery_G++_Lite/bin/../lib/gcc/arm-none-linux-gnueabi/4.3.3/../../../../arm-none-linux-gnueabi/include/c++/4.3.3/bits/stl_iterator.h **** // Iterators -*- C++ -*-
   2:/home/romar/CodeSourcery/Sourcery_G++_Lite/bin/../lib/gcc/arm-none-linux-gnueabi/4.3.3/../../../../arm-none-linux-gnueabi/include/c++/4.3.3/bits/stl_iterator.h **** 
   3:/home/romar/CodeSourcery/Sourcery_G++_Lite/bin/../lib/gcc/arm-none-linux-gnueabi/4.3.3/../../../../arm-none-linux-gnueabi/include/c++/4.3.3/bits/stl_iterator.h **** // Copyright (C) 2001, 2002, 2003, 2004, 2005, 2006, 2007, 2008
   4:/home/romar/CodeSourcery/Sourcery_G++_Lite/bin/../lib/gcc/arm-none-linux-gnueabi/4.3.3/../../../../arm-none-linux-gnueabi/include/c++/4.3.3/bits/stl_iterator.h **** // Free Software Foundation, Inc.
   5:/home/romar/CodeSourcery/Sourcery_G++_Lite/bin/../lib/gcc/arm-none-linux-gnueabi/4.3.3/../../../../arm-none-linux-gnueabi/include/c++/4.3.3/bits/stl_iterator.h **** //
   6:/home/romar/CodeSourcery/Sourcery_G++_Lite/bin/../lib/gcc/arm-none-linux-gnueabi/4.3.3/../../../../arm-none-linux-gnueabi/include/c++/4.3.3/bits/stl_iterator.h **** // This file is part of the GNU ISO C++ Library.  This library is free
   7:/home/romar/CodeSourcery/Sourcery_G++_Lite/bin/../lib/gcc/arm-none-linux-gnueabi/4.3.3/../../../../arm-none-linux-gnueabi/include/c++/4.3.3/bits/stl_iterator.h **** // software; you can redistribute it and/or modify it under the
   8:/home/romar/CodeSourcery/Sourcery_G++_Lite/bin/../lib/gcc/arm-none-linux-gnueabi/4.3.3/../../../../arm-none-linux-gnueabi/include/c++/4.3.3/bits/stl_iterator.h **** // terms of the GNU General Public License as published by the
   9:/home/romar/CodeSourcery/Sourcery_G++_Lite/bin/../lib/gcc/arm-none-linux-gnueabi/4.3.3/../../../../arm-none-linux-gnueabi/include/c++/4.3.3/bits/stl_iterator.h **** // Free Software Foundation; either version 2, or (at your option)
  10:/home/romar/CodeSourcery/Sourcery_G++_Lite/bin/../lib/gcc/arm-none-linux-gnueabi/4.3.3/../../../../arm-none-linux-gnueabi/include/c++/4.3.3/bits/stl_iterator.h **** // any later version.
  11:/home/romar/CodeSourcery/Sourcery_G++_Lite/bin/../lib/gcc/arm-none-linux-gnueabi/4.3.3/../../../../arm-none-linux-gnueabi/include/c++/4.3.3/bits/stl_iterator.h **** 
  12:/home/romar/CodeSourcery/Sourcery_G++_Lite/bin/../lib/gcc/arm-none-linux-gnueabi/4.3.3/../../../../arm-none-linux-gnueabi/include/c++/4.3.3/bits/stl_iterator.h **** // This library is distributed in the hope that it will be useful,
  13:/home/romar/CodeSourcery/Sourcery_G++_Lite/bin/../lib/gcc/arm-none-linux-gnueabi/4.3.3/../../../../arm-none-linux-gnueabi/include/c++/4.3.3/bits/stl_iterator.h **** // but WITHOUT ANY WARRANTY; without even the implied warranty of
  14:/home/romar/CodeSourcery/Sourcery_G++_Lite/bin/../lib/gcc/arm-none-linux-gnueabi/4.3.3/../../../../arm-none-linux-gnueabi/include/c++/4.3.3/bits/stl_iterator.h **** // MERCHANTABILITY or FITNESS FOR A PARTICULAR PURPOSE.  See the
  15:/home/romar/CodeSourcery/Sourcery_G++_Lite/bin/../lib/gcc/arm-none-linux-gnueabi/4.3.3/../../../../arm-none-linux-gnueabi/include/c++/4.3.3/bits/stl_iterator.h **** // GNU General Public License for more details.
  16:/home/romar/CodeSourcery/Sourcery_G++_Lite/bin/../lib/gcc/arm-none-linux-gnueabi/4.3.3/../../../../arm-none-linux-gnueabi/include/c++/4.3.3/bits/stl_iterator.h **** 
  17:/home/romar/CodeSourcery/Sourcery_G++_Lite/bin/../lib/gcc/arm-none-linux-gnueabi/4.3.3/../../../../arm-none-linux-gnueabi/include/c++/4.3.3/bits/stl_iterator.h **** // You should have received a copy of the GNU General Public License along
  18:/home/romar/CodeSourcery/Sourcery_G++_Lite/bin/../lib/gcc/arm-none-linux-gnueabi/4.3.3/../../../../arm-none-linux-gnueabi/include/c++/4.3.3/bits/stl_iterator.h **** // with this library; see the file COPYING.  If not, write to the Free
  19:/home/romar/CodeSourcery/Sourcery_G++_Lite/bin/../lib/gcc/arm-none-linux-gnueabi/4.3.3/../../../../arm-none-linux-gnueabi/include/c++/4.3.3/bits/stl_iterator.h **** // Software Foundation, 51 Franklin Street, Fifth Floor, Boston, MA 02110-1301,
  20:/home/romar/CodeSourcery/Sourcery_G++_Lite/bin/../lib/gcc/arm-none-linux-gnueabi/4.3.3/../../../../arm-none-linux-gnueabi/include/c++/4.3.3/bits/stl_iterator.h **** // USA.
  21:/home/romar/CodeSourcery/Sourcery_G++_Lite/bin/../lib/gcc/arm-none-linux-gnueabi/4.3.3/../../../../arm-none-linux-gnueabi/include/c++/4.3.3/bits/stl_iterator.h **** 
  22:/home/romar/CodeSourcery/Sourcery_G++_Lite/bin/../lib/gcc/arm-none-linux-gnueabi/4.3.3/../../../../arm-none-linux-gnueabi/include/c++/4.3.3/bits/stl_iterator.h **** // As a special exception, you may use this file as part of a free software
  23:/home/romar/CodeSourcery/Sourcery_G++_Lite/bin/../lib/gcc/arm-none-linux-gnueabi/4.3.3/../../../../arm-none-linux-gnueabi/include/c++/4.3.3/bits/stl_iterator.h **** // library without restriction.  Specifically, if other files instantiate
  24:/home/romar/CodeSourcery/Sourcery_G++_Lite/bin/../lib/gcc/arm-none-linux-gnueabi/4.3.3/../../../../arm-none-linux-gnueabi/include/c++/4.3.3/bits/stl_iterator.h **** // templates or use macros or inline functions from this file, or you compile
  25:/home/romar/CodeSourcery/Sourcery_G++_Lite/bin/../lib/gcc/arm-none-linux-gnueabi/4.3.3/../../../../arm-none-linux-gnueabi/include/c++/4.3.3/bits/stl_iterator.h **** // this file and link it with other files to produce an executable, this
  26:/home/romar/CodeSourcery/Sourcery_G++_Lite/bin/../lib/gcc/arm-none-linux-gnueabi/4.3.3/../../../../arm-none-linux-gnueabi/include/c++/4.3.3/bits/stl_iterator.h **** // file does not by itself cause the resulting executable to be covered by
  27:/home/romar/CodeSourcery/Sourcery_G++_Lite/bin/../lib/gcc/arm-none-linux-gnueabi/4.3.3/../../../../arm-none-linux-gnueabi/include/c++/4.3.3/bits/stl_iterator.h **** // the GNU General Public License.  This exception does not however
  28:/home/romar/CodeSourcery/Sourcery_G++_Lite/bin/../lib/gcc/arm-none-linux-gnueabi/4.3.3/../../../../arm-none-linux-gnueabi/include/c++/4.3.3/bits/stl_iterator.h **** // invalidate any other reasons why the executable file might be covered by
  29:/home/romar/CodeSourcery/Sourcery_G++_Lite/bin/../lib/gcc/arm-none-linux-gnueabi/4.3.3/../../../../arm-none-linux-gnueabi/include/c++/4.3.3/bits/stl_iterator.h **** // the GNU General Public License.
  30:/home/romar/CodeSourcery/Sourcery_G++_Lite/bin/../lib/gcc/arm-none-linux-gnueabi/4.3.3/../../../../arm-none-linux-gnueabi/include/c++/4.3.3/bits/stl_iterator.h **** 
  31:/home/romar/CodeSourcery/Sourcery_G++_Lite/bin/../lib/gcc/arm-none-linux-gnueabi/4.3.3/../../../../arm-none-linux-gnueabi/include/c++/4.3.3/bits/stl_iterator.h **** /*
  32:/home/romar/CodeSourcery/Sourcery_G++_Lite/bin/../lib/gcc/arm-none-linux-gnueabi/4.3.3/../../../../arm-none-linux-gnueabi/include/c++/4.3.3/bits/stl_iterator.h ****  *
  33:/home/romar/CodeSourcery/Sourcery_G++_Lite/bin/../lib/gcc/arm-none-linux-gnueabi/4.3.3/../../../../arm-none-linux-gnueabi/include/c++/4.3.3/bits/stl_iterator.h ****  * Copyright (c) 1994
  34:/home/romar/CodeSourcery/Sourcery_G++_Lite/bin/../lib/gcc/arm-none-linux-gnueabi/4.3.3/../../../../arm-none-linux-gnueabi/include/c++/4.3.3/bits/stl_iterator.h ****  * Hewlett-Packard Company
  35:/home/romar/CodeSourcery/Sourcery_G++_Lite/bin/../lib/gcc/arm-none-linux-gnueabi/4.3.3/../../../../arm-none-linux-gnueabi/include/c++/4.3.3/bits/stl_iterator.h ****  *
  36:/home/romar/CodeSourcery/Sourcery_G++_Lite/bin/../lib/gcc/arm-none-linux-gnueabi/4.3.3/../../../../arm-none-linux-gnueabi/include/c++/4.3.3/bits/stl_iterator.h ****  * Permission to use, copy, modify, distribute and sell this software
  37:/home/romar/CodeSourcery/Sourcery_G++_Lite/bin/../lib/gcc/arm-none-linux-gnueabi/4.3.3/../../../../arm-none-linux-gnueabi/include/c++/4.3.3/bits/stl_iterator.h ****  * and its documentation for any purpose is hereby granted without fee,
  38:/home/romar/CodeSourcery/Sourcery_G++_Lite/bin/../lib/gcc/arm-none-linux-gnueabi/4.3.3/../../../../arm-none-linux-gnueabi/include/c++/4.3.3/bits/stl_iterator.h ****  * provided that the above copyright notice appear in all copies and
  39:/home/romar/CodeSourcery/Sourcery_G++_Lite/bin/../lib/gcc/arm-none-linux-gnueabi/4.3.3/../../../../arm-none-linux-gnueabi/include/c++/4.3.3/bits/stl_iterator.h ****  * that both that copyright notice and this permission notice appear
  40:/home/romar/CodeSourcery/Sourcery_G++_Lite/bin/../lib/gcc/arm-none-linux-gnueabi/4.3.3/../../../../arm-none-linux-gnueabi/include/c++/4.3.3/bits/stl_iterator.h ****  * in supporting documentation.  Hewlett-Packard Company makes no
  41:/home/romar/CodeSourcery/Sourcery_G++_Lite/bin/../lib/gcc/arm-none-linux-gnueabi/4.3.3/../../../../arm-none-linux-gnueabi/include/c++/4.3.3/bits/stl_iterator.h ****  * representations about the suitability of this software for any
  42:/home/romar/CodeSourcery/Sourcery_G++_Lite/bin/../lib/gcc/arm-none-linux-gnueabi/4.3.3/../../../../arm-none-linux-gnueabi/include/c++/4.3.3/bits/stl_iterator.h ****  * purpose.  It is provided "as is" without express or implied warranty.
  43:/home/romar/CodeSourcery/Sourcery_G++_Lite/bin/../lib/gcc/arm-none-linux-gnueabi/4.3.3/../../../../arm-none-linux-gnueabi/include/c++/4.3.3/bits/stl_iterator.h ****  *
  44:/home/romar/CodeSourcery/Sourcery_G++_Lite/bin/../lib/gcc/arm-none-linux-gnueabi/4.3.3/../../../../arm-none-linux-gnueabi/include/c++/4.3.3/bits/stl_iterator.h ****  *
  45:/home/romar/CodeSourcery/Sourcery_G++_Lite/bin/../lib/gcc/arm-none-linux-gnueabi/4.3.3/../../../../arm-none-linux-gnueabi/include/c++/4.3.3/bits/stl_iterator.h ****  * Copyright (c) 1996-1998
  46:/home/romar/CodeSourcery/Sourcery_G++_Lite/bin/../lib/gcc/arm-none-linux-gnueabi/4.3.3/../../../../arm-none-linux-gnueabi/include/c++/4.3.3/bits/stl_iterator.h ****  * Silicon Graphics Computer Systems, Inc.
  47:/home/romar/CodeSourcery/Sourcery_G++_Lite/bin/../lib/gcc/arm-none-linux-gnueabi/4.3.3/../../../../arm-none-linux-gnueabi/include/c++/4.3.3/bits/stl_iterator.h ****  *
  48:/home/romar/CodeSourcery/Sourcery_G++_Lite/bin/../lib/gcc/arm-none-linux-gnueabi/4.3.3/../../../../arm-none-linux-gnueabi/include/c++/4.3.3/bits/stl_iterator.h ****  * Permission to use, copy, modify, distribute and sell this software
  49:/home/romar/CodeSourcery/Sourcery_G++_Lite/bin/../lib/gcc/arm-none-linux-gnueabi/4.3.3/../../../../arm-none-linux-gnueabi/include/c++/4.3.3/bits/stl_iterator.h ****  * and its documentation for any purpose is hereby granted without fee,
  50:/home/romar/CodeSourcery/Sourcery_G++_Lite/bin/../lib/gcc/arm-none-linux-gnueabi/4.3.3/../../../../arm-none-linux-gnueabi/include/c++/4.3.3/bits/stl_iterator.h ****  * provided that the above copyright notice appear in all copies and
  51:/home/romar/CodeSourcery/Sourcery_G++_Lite/bin/../lib/gcc/arm-none-linux-gnueabi/4.3.3/../../../../arm-none-linux-gnueabi/include/c++/4.3.3/bits/stl_iterator.h ****  * that both that copyright notice and this permission notice appear
  52:/home/romar/CodeSourcery/Sourcery_G++_Lite/bin/../lib/gcc/arm-none-linux-gnueabi/4.3.3/../../../../arm-none-linux-gnueabi/include/c++/4.3.3/bits/stl_iterator.h ****  * in supporting documentation.  Silicon Graphics makes no
  53:/home/romar/CodeSourcery/Sourcery_G++_Lite/bin/../lib/gcc/arm-none-linux-gnueabi/4.3.3/../../../../arm-none-linux-gnueabi/include/c++/4.3.3/bits/stl_iterator.h ****  * representations about the suitability of this software for any
  54:/home/romar/CodeSourcery/Sourcery_G++_Lite/bin/../lib/gcc/arm-none-linux-gnueabi/4.3.3/../../../../arm-none-linux-gnueabi/include/c++/4.3.3/bits/stl_iterator.h ****  * purpose.  It is provided "as is" without express or implied warranty.
  55:/home/romar/CodeSourcery/Sourcery_G++_Lite/bin/../lib/gcc/arm-none-linux-gnueabi/4.3.3/../../../../arm-none-linux-gnueabi/include/c++/4.3.3/bits/stl_iterator.h ****  */
  56:/home/romar/CodeSourcery/Sourcery_G++_Lite/bin/../lib/gcc/arm-none-linux-gnueabi/4.3.3/../../../../arm-none-linux-gnueabi/include/c++/4.3.3/bits/stl_iterator.h **** 
  57:/home/romar/CodeSourcery/Sourcery_G++_Lite/bin/../lib/gcc/arm-none-linux-gnueabi/4.3.3/../../../../arm-none-linux-gnueabi/include/c++/4.3.3/bits/stl_iterator.h **** /** @file stl_iterator.h
  58:/home/romar/CodeSourcery/Sourcery_G++_Lite/bin/../lib/gcc/arm-none-linux-gnueabi/4.3.3/../../../../arm-none-linux-gnueabi/include/c++/4.3.3/bits/stl_iterator.h ****  *  This is an internal header file, included by other library headers.
  59:/home/romar/CodeSourcery/Sourcery_G++_Lite/bin/../lib/gcc/arm-none-linux-gnueabi/4.3.3/../../../../arm-none-linux-gnueabi/include/c++/4.3.3/bits/stl_iterator.h ****  *  You should not attempt to use it directly.
  60:/home/romar/CodeSourcery/Sourcery_G++_Lite/bin/../lib/gcc/arm-none-linux-gnueabi/4.3.3/../../../../arm-none-linux-gnueabi/include/c++/4.3.3/bits/stl_iterator.h ****  *
  61:/home/romar/CodeSourcery/Sourcery_G++_Lite/bin/../lib/gcc/arm-none-linux-gnueabi/4.3.3/../../../../arm-none-linux-gnueabi/include/c++/4.3.3/bits/stl_iterator.h ****  *  This file implements reverse_iterator, back_insert_iterator,
  62:/home/romar/CodeSourcery/Sourcery_G++_Lite/bin/../lib/gcc/arm-none-linux-gnueabi/4.3.3/../../../../arm-none-linux-gnueabi/include/c++/4.3.3/bits/stl_iterator.h ****  *  front_insert_iterator, insert_iterator, __normal_iterator, and their
  63:/home/romar/CodeSourcery/Sourcery_G++_Lite/bin/../lib/gcc/arm-none-linux-gnueabi/4.3.3/../../../../arm-none-linux-gnueabi/include/c++/4.3.3/bits/stl_iterator.h ****  *  supporting functions and overloaded operators.
  64:/home/romar/CodeSourcery/Sourcery_G++_Lite/bin/../lib/gcc/arm-none-linux-gnueabi/4.3.3/../../../../arm-none-linux-gnueabi/include/c++/4.3.3/bits/stl_iterator.h ****  */
  65:/home/romar/CodeSourcery/Sourcery_G++_Lite/bin/../lib/gcc/arm-none-linux-gnueabi/4.3.3/../../../../arm-none-linux-gnueabi/include/c++/4.3.3/bits/stl_iterator.h **** 
  66:/home/romar/CodeSourcery/Sourcery_G++_Lite/bin/../lib/gcc/arm-none-linux-gnueabi/4.3.3/../../../../arm-none-linux-gnueabi/include/c++/4.3.3/bits/stl_iterator.h **** #ifndef _STL_ITERATOR_H
  67:/home/romar/CodeSourcery/Sourcery_G++_Lite/bin/../lib/gcc/arm-none-linux-gnueabi/4.3.3/../../../../arm-none-linux-gnueabi/include/c++/4.3.3/bits/stl_iterator.h **** #define _STL_ITERATOR_H 1
  68:/home/romar/CodeSourcery/Sourcery_G++_Lite/bin/../lib/gcc/arm-none-linux-gnueabi/4.3.3/../../../../arm-none-linux-gnueabi/include/c++/4.3.3/bits/stl_iterator.h **** 
  69:/home/romar/CodeSourcery/Sourcery_G++_Lite/bin/../lib/gcc/arm-none-linux-gnueabi/4.3.3/../../../../arm-none-linux-gnueabi/include/c++/4.3.3/bits/stl_iterator.h **** #include <bits/cpp_type_traits.h>
  70:/home/romar/CodeSourcery/Sourcery_G++_Lite/bin/../lib/gcc/arm-none-linux-gnueabi/4.3.3/../../../../arm-none-linux-gnueabi/include/c++/4.3.3/bits/stl_iterator.h **** #include <ext/type_traits.h>
  71:/home/romar/CodeSourcery/Sourcery_G++_Lite/bin/../lib/gcc/arm-none-linux-gnueabi/4.3.3/../../../../arm-none-linux-gnueabi/include/c++/4.3.3/bits/stl_iterator.h **** #include <bits/stl_move.h>
  72:/home/romar/CodeSourcery/Sourcery_G++_Lite/bin/../lib/gcc/arm-none-linux-gnueabi/4.3.3/../../../../arm-none-linux-gnueabi/include/c++/4.3.3/bits/stl_iterator.h **** 
  73:/home/romar/CodeSourcery/Sourcery_G++_Lite/bin/../lib/gcc/arm-none-linux-gnueabi/4.3.3/../../../../arm-none-linux-gnueabi/include/c++/4.3.3/bits/stl_iterator.h **** _GLIBCXX_BEGIN_NAMESPACE(std)
  74:/home/romar/CodeSourcery/Sourcery_G++_Lite/bin/../lib/gcc/arm-none-linux-gnueabi/4.3.3/../../../../arm-none-linux-gnueabi/include/c++/4.3.3/bits/stl_iterator.h **** 
  75:/home/romar/CodeSourcery/Sourcery_G++_Lite/bin/../lib/gcc/arm-none-linux-gnueabi/4.3.3/../../../../arm-none-linux-gnueabi/include/c++/4.3.3/bits/stl_iterator.h ****   // 24.4.1 Reverse iterators
  76:/home/romar/CodeSourcery/Sourcery_G++_Lite/bin/../lib/gcc/arm-none-linux-gnueabi/4.3.3/../../../../arm-none-linux-gnueabi/include/c++/4.3.3/bits/stl_iterator.h ****   /**
  77:/home/romar/CodeSourcery/Sourcery_G++_Lite/bin/../lib/gcc/arm-none-linux-gnueabi/4.3.3/../../../../arm-none-linux-gnueabi/include/c++/4.3.3/bits/stl_iterator.h ****    *  "Bidirectional and random access iterators have corresponding reverse
  78:/home/romar/CodeSourcery/Sourcery_G++_Lite/bin/../lib/gcc/arm-none-linux-gnueabi/4.3.3/../../../../arm-none-linux-gnueabi/include/c++/4.3.3/bits/stl_iterator.h ****    *  %iterator adaptors that iterate through the data structure in the
  79:/home/romar/CodeSourcery/Sourcery_G++_Lite/bin/../lib/gcc/arm-none-linux-gnueabi/4.3.3/../../../../arm-none-linux-gnueabi/include/c++/4.3.3/bits/stl_iterator.h ****    *  opposite direction.  They have the same signatures as the corresponding
  80:/home/romar/CodeSourcery/Sourcery_G++_Lite/bin/../lib/gcc/arm-none-linux-gnueabi/4.3.3/../../../../arm-none-linux-gnueabi/include/c++/4.3.3/bits/stl_iterator.h ****    *  iterators.  The fundamental relation between a reverse %iterator and its
  81:/home/romar/CodeSourcery/Sourcery_G++_Lite/bin/../lib/gcc/arm-none-linux-gnueabi/4.3.3/../../../../arm-none-linux-gnueabi/include/c++/4.3.3/bits/stl_iterator.h ****    *  corresponding %iterator @c i is established by the identity:
  82:/home/romar/CodeSourcery/Sourcery_G++_Lite/bin/../lib/gcc/arm-none-linux-gnueabi/4.3.3/../../../../arm-none-linux-gnueabi/include/c++/4.3.3/bits/stl_iterator.h ****    *  @code
  83:/home/romar/CodeSourcery/Sourcery_G++_Lite/bin/../lib/gcc/arm-none-linux-gnueabi/4.3.3/../../../../arm-none-linux-gnueabi/include/c++/4.3.3/bits/stl_iterator.h ****    *      &*(reverse_iterator(i)) == &*(i - 1)
  84:/home/romar/CodeSourcery/Sourcery_G++_Lite/bin/../lib/gcc/arm-none-linux-gnueabi/4.3.3/../../../../arm-none-linux-gnueabi/include/c++/4.3.3/bits/stl_iterator.h ****    *  @endcode
  85:/home/romar/CodeSourcery/Sourcery_G++_Lite/bin/../lib/gcc/arm-none-linux-gnueabi/4.3.3/../../../../arm-none-linux-gnueabi/include/c++/4.3.3/bits/stl_iterator.h ****    *
  86:/home/romar/CodeSourcery/Sourcery_G++_Lite/bin/../lib/gcc/arm-none-linux-gnueabi/4.3.3/../../../../arm-none-linux-gnueabi/include/c++/4.3.3/bits/stl_iterator.h ****    *  This mapping is dictated by the fact that while there is always a
  87:/home/romar/CodeSourcery/Sourcery_G++_Lite/bin/../lib/gcc/arm-none-linux-gnueabi/4.3.3/../../../../arm-none-linux-gnueabi/include/c++/4.3.3/bits/stl_iterator.h ****    *  pointer past the end of an array, there might not be a valid pointer
  88:/home/romar/CodeSourcery/Sourcery_G++_Lite/bin/../lib/gcc/arm-none-linux-gnueabi/4.3.3/../../../../arm-none-linux-gnueabi/include/c++/4.3.3/bits/stl_iterator.h ****    *  before the beginning of an array." [24.4.1]/1,2
  89:/home/romar/CodeSourcery/Sourcery_G++_Lite/bin/../lib/gcc/arm-none-linux-gnueabi/4.3.3/../../../../arm-none-linux-gnueabi/include/c++/4.3.3/bits/stl_iterator.h ****    *
  90:/home/romar/CodeSourcery/Sourcery_G++_Lite/bin/../lib/gcc/arm-none-linux-gnueabi/4.3.3/../../../../arm-none-linux-gnueabi/include/c++/4.3.3/bits/stl_iterator.h ****    *  Reverse iterators can be tricky and surprising at first.  Their
  91:/home/romar/CodeSourcery/Sourcery_G++_Lite/bin/../lib/gcc/arm-none-linux-gnueabi/4.3.3/../../../../arm-none-linux-gnueabi/include/c++/4.3.3/bits/stl_iterator.h ****    *  semantics make sense, however, and the trickiness is a side effect of
  92:/home/romar/CodeSourcery/Sourcery_G++_Lite/bin/../lib/gcc/arm-none-linux-gnueabi/4.3.3/../../../../arm-none-linux-gnueabi/include/c++/4.3.3/bits/stl_iterator.h ****    *  the requirement that the iterators must be safe.
  93:/home/romar/CodeSourcery/Sourcery_G++_Lite/bin/../lib/gcc/arm-none-linux-gnueabi/4.3.3/../../../../arm-none-linux-gnueabi/include/c++/4.3.3/bits/stl_iterator.h ****   */
  94:/home/romar/CodeSourcery/Sourcery_G++_Lite/bin/../lib/gcc/arm-none-linux-gnueabi/4.3.3/../../../../arm-none-linux-gnueabi/include/c++/4.3.3/bits/stl_iterator.h ****   template<typename _Iterator>
  95:/home/romar/CodeSourcery/Sourcery_G++_Lite/bin/../lib/gcc/arm-none-linux-gnueabi/4.3.3/../../../../arm-none-linux-gnueabi/include/c++/4.3.3/bits/stl_iterator.h ****     class reverse_iterator
  96:/home/romar/CodeSourcery/Sourcery_G++_Lite/bin/../lib/gcc/arm-none-linux-gnueabi/4.3.3/../../../../arm-none-linux-gnueabi/include/c++/4.3.3/bits/stl_iterator.h ****     : public iterator<typename iterator_traits<_Iterator>::iterator_category,
  97:/home/romar/CodeSourcery/Sourcery_G++_Lite/bin/../lib/gcc/arm-none-linux-gnueabi/4.3.3/../../../../arm-none-linux-gnueabi/include/c++/4.3.3/bits/stl_iterator.h **** 		      typename iterator_traits<_Iterator>::value_type,
  98:/home/romar/CodeSourcery/Sourcery_G++_Lite/bin/../lib/gcc/arm-none-linux-gnueabi/4.3.3/../../../../arm-none-linux-gnueabi/include/c++/4.3.3/bits/stl_iterator.h **** 		      typename iterator_traits<_Iterator>::difference_type,
  99:/home/romar/CodeSourcery/Sourcery_G++_Lite/bin/../lib/gcc/arm-none-linux-gnueabi/4.3.3/../../../../arm-none-linux-gnueabi/include/c++/4.3.3/bits/stl_iterator.h **** 		      typename iterator_traits<_Iterator>::pointer,
 100:/home/romar/CodeSourcery/Sourcery_G++_Lite/bin/../lib/gcc/arm-none-linux-gnueabi/4.3.3/../../../../arm-none-linux-gnueabi/include/c++/4.3.3/bits/stl_iterator.h ****                       typename iterator_traits<_Iterator>::reference>
 101:/home/romar/CodeSourcery/Sourcery_G++_Lite/bin/../lib/gcc/arm-none-linux-gnueabi/4.3.3/../../../../arm-none-linux-gnueabi/include/c++/4.3.3/bits/stl_iterator.h ****     {
 102:/home/romar/CodeSourcery/Sourcery_G++_Lite/bin/../lib/gcc/arm-none-linux-gnueabi/4.3.3/../../../../arm-none-linux-gnueabi/include/c++/4.3.3/bits/stl_iterator.h ****     protected:
 103:/home/romar/CodeSourcery/Sourcery_G++_Lite/bin/../lib/gcc/arm-none-linux-gnueabi/4.3.3/../../../../arm-none-linux-gnueabi/include/c++/4.3.3/bits/stl_iterator.h ****       _Iterator current;
 104:/home/romar/CodeSourcery/Sourcery_G++_Lite/bin/../lib/gcc/arm-none-linux-gnueabi/4.3.3/../../../../arm-none-linux-gnueabi/include/c++/4.3.3/bits/stl_iterator.h **** 
 105:/home/romar/CodeSourcery/Sourcery_G++_Lite/bin/../lib/gcc/arm-none-linux-gnueabi/4.3.3/../../../../arm-none-linux-gnueabi/include/c++/4.3.3/bits/stl_iterator.h ****     public:
 106:/home/romar/CodeSourcery/Sourcery_G++_Lite/bin/../lib/gcc/arm-none-linux-gnueabi/4.3.3/../../../../arm-none-linux-gnueabi/include/c++/4.3.3/bits/stl_iterator.h ****       typedef _Iterator					       iterator_type;
 107:/home/romar/CodeSourcery/Sourcery_G++_Lite/bin/../lib/gcc/arm-none-linux-gnueabi/4.3.3/../../../../arm-none-linux-gnueabi/include/c++/4.3.3/bits/stl_iterator.h ****       typedef typename iterator_traits<_Iterator>::difference_type
 108:/home/romar/CodeSourcery/Sourcery_G++_Lite/bin/../lib/gcc/arm-none-linux-gnueabi/4.3.3/../../../../arm-none-linux-gnueabi/include/c++/4.3.3/bits/stl_iterator.h **** 							       difference_type;
 109:/home/romar/CodeSourcery/Sourcery_G++_Lite/bin/../lib/gcc/arm-none-linux-gnueabi/4.3.3/../../../../arm-none-linux-gnueabi/include/c++/4.3.3/bits/stl_iterator.h ****       typedef typename iterator_traits<_Iterator>::reference   reference;
 110:/home/romar/CodeSourcery/Sourcery_G++_Lite/bin/../lib/gcc/arm-none-linux-gnueabi/4.3.3/../../../../arm-none-linux-gnueabi/include/c++/4.3.3/bits/stl_iterator.h ****       typedef typename iterator_traits<_Iterator>::pointer     pointer;
 111:/home/romar/CodeSourcery/Sourcery_G++_Lite/bin/../lib/gcc/arm-none-linux-gnueabi/4.3.3/../../../../arm-none-linux-gnueabi/include/c++/4.3.3/bits/stl_iterator.h **** 
 112:/home/romar/CodeSourcery/Sourcery_G++_Lite/bin/../lib/gcc/arm-none-linux-gnueabi/4.3.3/../../../../arm-none-linux-gnueabi/include/c++/4.3.3/bits/stl_iterator.h ****     public:
 113:/home/romar/CodeSourcery/Sourcery_G++_Lite/bin/../lib/gcc/arm-none-linux-gnueabi/4.3.3/../../../../arm-none-linux-gnueabi/include/c++/4.3.3/bits/stl_iterator.h ****       /**
 114:/home/romar/CodeSourcery/Sourcery_G++_Lite/bin/../lib/gcc/arm-none-linux-gnueabi/4.3.3/../../../../arm-none-linux-gnueabi/include/c++/4.3.3/bits/stl_iterator.h ****        *  The default constructor default-initializes member @p current.
 115:/home/romar/CodeSourcery/Sourcery_G++_Lite/bin/../lib/gcc/arm-none-linux-gnueabi/4.3.3/../../../../arm-none-linux-gnueabi/include/c++/4.3.3/bits/stl_iterator.h ****        *  If it is a pointer, that means it is zero-initialized.
 116:/home/romar/CodeSourcery/Sourcery_G++_Lite/bin/../lib/gcc/arm-none-linux-gnueabi/4.3.3/../../../../arm-none-linux-gnueabi/include/c++/4.3.3/bits/stl_iterator.h ****       */
 117:/home/romar/CodeSourcery/Sourcery_G++_Lite/bin/../lib/gcc/arm-none-linux-gnueabi/4.3.3/../../../../arm-none-linux-gnueabi/include/c++/4.3.3/bits/stl_iterator.h ****       // _GLIBCXX_RESOLVE_LIB_DEFECTS
 118:/home/romar/CodeSourcery/Sourcery_G++_Lite/bin/../lib/gcc/arm-none-linux-gnueabi/4.3.3/../../../../arm-none-linux-gnueabi/include/c++/4.3.3/bits/stl_iterator.h ****       // 235 No specification of default ctor for reverse_iterator
 119:/home/romar/CodeSourcery/Sourcery_G++_Lite/bin/../lib/gcc/arm-none-linux-gnueabi/4.3.3/../../../../arm-none-linux-gnueabi/include/c++/4.3.3/bits/stl_iterator.h ****       reverse_iterator() : current() { }
 120:/home/romar/CodeSourcery/Sourcery_G++_Lite/bin/../lib/gcc/arm-none-linux-gnueabi/4.3.3/../../../../arm-none-linux-gnueabi/include/c++/4.3.3/bits/stl_iterator.h **** 
 121:/home/romar/CodeSourcery/Sourcery_G++_Lite/bin/../lib/gcc/arm-none-linux-gnueabi/4.3.3/../../../../arm-none-linux-gnueabi/include/c++/4.3.3/bits/stl_iterator.h ****       /**
 122:/home/romar/CodeSourcery/Sourcery_G++_Lite/bin/../lib/gcc/arm-none-linux-gnueabi/4.3.3/../../../../arm-none-linux-gnueabi/include/c++/4.3.3/bits/stl_iterator.h ****        *  This %iterator will move in the opposite direction that @p x does.
 123:/home/romar/CodeSourcery/Sourcery_G++_Lite/bin/../lib/gcc/arm-none-linux-gnueabi/4.3.3/../../../../arm-none-linux-gnueabi/include/c++/4.3.3/bits/stl_iterator.h ****       */
 124:/home/romar/CodeSourcery/Sourcery_G++_Lite/bin/../lib/gcc/arm-none-linux-gnueabi/4.3.3/../../../../arm-none-linux-gnueabi/include/c++/4.3.3/bits/stl_iterator.h ****       explicit
 125:/home/romar/CodeSourcery/Sourcery_G++_Lite/bin/../lib/gcc/arm-none-linux-gnueabi/4.3.3/../../../../arm-none-linux-gnueabi/include/c++/4.3.3/bits/stl_iterator.h ****       reverse_iterator(iterator_type __x) : current(__x) { }
 126:/home/romar/CodeSourcery/Sourcery_G++_Lite/bin/../lib/gcc/arm-none-linux-gnueabi/4.3.3/../../../../arm-none-linux-gnueabi/include/c++/4.3.3/bits/stl_iterator.h **** 
 127:/home/romar/CodeSourcery/Sourcery_G++_Lite/bin/../lib/gcc/arm-none-linux-gnueabi/4.3.3/../../../../arm-none-linux-gnueabi/include/c++/4.3.3/bits/stl_iterator.h ****       /**
 128:/home/romar/CodeSourcery/Sourcery_G++_Lite/bin/../lib/gcc/arm-none-linux-gnueabi/4.3.3/../../../../arm-none-linux-gnueabi/include/c++/4.3.3/bits/stl_iterator.h ****        *  The copy constructor is normal.
 129:/home/romar/CodeSourcery/Sourcery_G++_Lite/bin/../lib/gcc/arm-none-linux-gnueabi/4.3.3/../../../../arm-none-linux-gnueabi/include/c++/4.3.3/bits/stl_iterator.h ****       */
 130:/home/romar/CodeSourcery/Sourcery_G++_Lite/bin/../lib/gcc/arm-none-linux-gnueabi/4.3.3/../../../../arm-none-linux-gnueabi/include/c++/4.3.3/bits/stl_iterator.h ****       reverse_iterator(const reverse_iterator& __x)
 131:/home/romar/CodeSourcery/Sourcery_G++_Lite/bin/../lib/gcc/arm-none-linux-gnueabi/4.3.3/../../../../arm-none-linux-gnueabi/include/c++/4.3.3/bits/stl_iterator.h ****       : current(__x.current) { }
 132:/home/romar/CodeSourcery/Sourcery_G++_Lite/bin/../lib/gcc/arm-none-linux-gnueabi/4.3.3/../../../../arm-none-linux-gnueabi/include/c++/4.3.3/bits/stl_iterator.h **** 
 133:/home/romar/CodeSourcery/Sourcery_G++_Lite/bin/../lib/gcc/arm-none-linux-gnueabi/4.3.3/../../../../arm-none-linux-gnueabi/include/c++/4.3.3/bits/stl_iterator.h ****       /**
 134:/home/romar/CodeSourcery/Sourcery_G++_Lite/bin/../lib/gcc/arm-none-linux-gnueabi/4.3.3/../../../../arm-none-linux-gnueabi/include/c++/4.3.3/bits/stl_iterator.h ****        *  A reverse_iterator across other types can be copied in the normal
 135:/home/romar/CodeSourcery/Sourcery_G++_Lite/bin/../lib/gcc/arm-none-linux-gnueabi/4.3.3/../../../../arm-none-linux-gnueabi/include/c++/4.3.3/bits/stl_iterator.h ****        *  fashion.
 136:/home/romar/CodeSourcery/Sourcery_G++_Lite/bin/../lib/gcc/arm-none-linux-gnueabi/4.3.3/../../../../arm-none-linux-gnueabi/include/c++/4.3.3/bits/stl_iterator.h ****       */
 137:/home/romar/CodeSourcery/Sourcery_G++_Lite/bin/../lib/gcc/arm-none-linux-gnueabi/4.3.3/../../../../arm-none-linux-gnueabi/include/c++/4.3.3/bits/stl_iterator.h ****       template<typename _Iter>
 138:/home/romar/CodeSourcery/Sourcery_G++_Lite/bin/../lib/gcc/arm-none-linux-gnueabi/4.3.3/../../../../arm-none-linux-gnueabi/include/c++/4.3.3/bits/stl_iterator.h ****         reverse_iterator(const reverse_iterator<_Iter>& __x)
 139:/home/romar/CodeSourcery/Sourcery_G++_Lite/bin/../lib/gcc/arm-none-linux-gnueabi/4.3.3/../../../../arm-none-linux-gnueabi/include/c++/4.3.3/bits/stl_iterator.h **** 	: current(__x.base()) { }
 140:/home/romar/CodeSourcery/Sourcery_G++_Lite/bin/../lib/gcc/arm-none-linux-gnueabi/4.3.3/../../../../arm-none-linux-gnueabi/include/c++/4.3.3/bits/stl_iterator.h **** 
 141:/home/romar/CodeSourcery/Sourcery_G++_Lite/bin/../lib/gcc/arm-none-linux-gnueabi/4.3.3/../../../../arm-none-linux-gnueabi/include/c++/4.3.3/bits/stl_iterator.h ****       /**
 142:/home/romar/CodeSourcery/Sourcery_G++_Lite/bin/../lib/gcc/arm-none-linux-gnueabi/4.3.3/../../../../arm-none-linux-gnueabi/include/c++/4.3.3/bits/stl_iterator.h ****        *  @return  @c current, the %iterator used for underlying work.
 143:/home/romar/CodeSourcery/Sourcery_G++_Lite/bin/../lib/gcc/arm-none-linux-gnueabi/4.3.3/../../../../arm-none-linux-gnueabi/include/c++/4.3.3/bits/stl_iterator.h ****       */
 144:/home/romar/CodeSourcery/Sourcery_G++_Lite/bin/../lib/gcc/arm-none-linux-gnueabi/4.3.3/../../../../arm-none-linux-gnueabi/include/c++/4.3.3/bits/stl_iterator.h ****       iterator_type
 145:/home/romar/CodeSourcery/Sourcery_G++_Lite/bin/../lib/gcc/arm-none-linux-gnueabi/4.3.3/../../../../arm-none-linux-gnueabi/include/c++/4.3.3/bits/stl_iterator.h ****       base() const
 146:/home/romar/CodeSourcery/Sourcery_G++_Lite/bin/../lib/gcc/arm-none-linux-gnueabi/4.3.3/../../../../arm-none-linux-gnueabi/include/c++/4.3.3/bits/stl_iterator.h ****       { return current; }
 147:/home/romar/CodeSourcery/Sourcery_G++_Lite/bin/../lib/gcc/arm-none-linux-gnueabi/4.3.3/../../../../arm-none-linux-gnueabi/include/c++/4.3.3/bits/stl_iterator.h **** 
 148:/home/romar/CodeSourcery/Sourcery_G++_Lite/bin/../lib/gcc/arm-none-linux-gnueabi/4.3.3/../../../../arm-none-linux-gnueabi/include/c++/4.3.3/bits/stl_iterator.h ****       /**
 149:/home/romar/CodeSourcery/Sourcery_G++_Lite/bin/../lib/gcc/arm-none-linux-gnueabi/4.3.3/../../../../arm-none-linux-gnueabi/include/c++/4.3.3/bits/stl_iterator.h ****        *  @return  TODO
 150:/home/romar/CodeSourcery/Sourcery_G++_Lite/bin/../lib/gcc/arm-none-linux-gnueabi/4.3.3/../../../../arm-none-linux-gnueabi/include/c++/4.3.3/bits/stl_iterator.h ****        *
 151:/home/romar/CodeSourcery/Sourcery_G++_Lite/bin/../lib/gcc/arm-none-linux-gnueabi/4.3.3/../../../../arm-none-linux-gnueabi/include/c++/4.3.3/bits/stl_iterator.h ****        *  @doctodo
 152:/home/romar/CodeSourcery/Sourcery_G++_Lite/bin/../lib/gcc/arm-none-linux-gnueabi/4.3.3/../../../../arm-none-linux-gnueabi/include/c++/4.3.3/bits/stl_iterator.h ****       */
 153:/home/romar/CodeSourcery/Sourcery_G++_Lite/bin/../lib/gcc/arm-none-linux-gnueabi/4.3.3/../../../../arm-none-linux-gnueabi/include/c++/4.3.3/bits/stl_iterator.h ****       reference
 154:/home/romar/CodeSourcery/Sourcery_G++_Lite/bin/../lib/gcc/arm-none-linux-gnueabi/4.3.3/../../../../arm-none-linux-gnueabi/include/c++/4.3.3/bits/stl_iterator.h ****       operator*() const
 155:/home/romar/CodeSourcery/Sourcery_G++_Lite/bin/../lib/gcc/arm-none-linux-gnueabi/4.3.3/../../../../arm-none-linux-gnueabi/include/c++/4.3.3/bits/stl_iterator.h ****       {
 156:/home/romar/CodeSourcery/Sourcery_G++_Lite/bin/../lib/gcc/arm-none-linux-gnueabi/4.3.3/../../../../arm-none-linux-gnueabi/include/c++/4.3.3/bits/stl_iterator.h **** 	_Iterator __tmp = current;
 157:/home/romar/CodeSourcery/Sourcery_G++_Lite/bin/../lib/gcc/arm-none-linux-gnueabi/4.3.3/../../../../arm-none-linux-gnueabi/include/c++/4.3.3/bits/stl_iterator.h **** 	return *--__tmp;
 158:/home/romar/CodeSourcery/Sourcery_G++_Lite/bin/../lib/gcc/arm-none-linux-gnueabi/4.3.3/../../../../arm-none-linux-gnueabi/include/c++/4.3.3/bits/stl_iterator.h ****       }
 159:/home/romar/CodeSourcery/Sourcery_G++_Lite/bin/../lib/gcc/arm-none-linux-gnueabi/4.3.3/../../../../arm-none-linux-gnueabi/include/c++/4.3.3/bits/stl_iterator.h **** 
 160:/home/romar/CodeSourcery/Sourcery_G++_Lite/bin/../lib/gcc/arm-none-linux-gnueabi/4.3.3/../../../../arm-none-linux-gnueabi/include/c++/4.3.3/bits/stl_iterator.h ****       /**
 161:/home/romar/CodeSourcery/Sourcery_G++_Lite/bin/../lib/gcc/arm-none-linux-gnueabi/4.3.3/../../../../arm-none-linux-gnueabi/include/c++/4.3.3/bits/stl_iterator.h ****        *  @return  TODO
 162:/home/romar/CodeSourcery/Sourcery_G++_Lite/bin/../lib/gcc/arm-none-linux-gnueabi/4.3.3/../../../../arm-none-linux-gnueabi/include/c++/4.3.3/bits/stl_iterator.h ****        *
 163:/home/romar/CodeSourcery/Sourcery_G++_Lite/bin/../lib/gcc/arm-none-linux-gnueabi/4.3.3/../../../../arm-none-linux-gnueabi/include/c++/4.3.3/bits/stl_iterator.h ****        *  @doctodo
 164:/home/romar/CodeSourcery/Sourcery_G++_Lite/bin/../lib/gcc/arm-none-linux-gnueabi/4.3.3/../../../../arm-none-linux-gnueabi/include/c++/4.3.3/bits/stl_iterator.h ****       */
 165:/home/romar/CodeSourcery/Sourcery_G++_Lite/bin/../lib/gcc/arm-none-linux-gnueabi/4.3.3/../../../../arm-none-linux-gnueabi/include/c++/4.3.3/bits/stl_iterator.h ****       pointer
 166:/home/romar/CodeSourcery/Sourcery_G++_Lite/bin/../lib/gcc/arm-none-linux-gnueabi/4.3.3/../../../../arm-none-linux-gnueabi/include/c++/4.3.3/bits/stl_iterator.h ****       operator->() const
 167:/home/romar/CodeSourcery/Sourcery_G++_Lite/bin/../lib/gcc/arm-none-linux-gnueabi/4.3.3/../../../../arm-none-linux-gnueabi/include/c++/4.3.3/bits/stl_iterator.h ****       { return &(operator*()); }
 168:/home/romar/CodeSourcery/Sourcery_G++_Lite/bin/../lib/gcc/arm-none-linux-gnueabi/4.3.3/../../../../arm-none-linux-gnueabi/include/c++/4.3.3/bits/stl_iterator.h **** 
 169:/home/romar/CodeSourcery/Sourcery_G++_Lite/bin/../lib/gcc/arm-none-linux-gnueabi/4.3.3/../../../../arm-none-linux-gnueabi/include/c++/4.3.3/bits/stl_iterator.h ****       /**
 170:/home/romar/CodeSourcery/Sourcery_G++_Lite/bin/../lib/gcc/arm-none-linux-gnueabi/4.3.3/../../../../arm-none-linux-gnueabi/include/c++/4.3.3/bits/stl_iterator.h ****        *  @return  TODO
 171:/home/romar/CodeSourcery/Sourcery_G++_Lite/bin/../lib/gcc/arm-none-linux-gnueabi/4.3.3/../../../../arm-none-linux-gnueabi/include/c++/4.3.3/bits/stl_iterator.h ****        *
 172:/home/romar/CodeSourcery/Sourcery_G++_Lite/bin/../lib/gcc/arm-none-linux-gnueabi/4.3.3/../../../../arm-none-linux-gnueabi/include/c++/4.3.3/bits/stl_iterator.h ****        *  @doctodo
 173:/home/romar/CodeSourcery/Sourcery_G++_Lite/bin/../lib/gcc/arm-none-linux-gnueabi/4.3.3/../../../../arm-none-linux-gnueabi/include/c++/4.3.3/bits/stl_iterator.h ****       */
 174:/home/romar/CodeSourcery/Sourcery_G++_Lite/bin/../lib/gcc/arm-none-linux-gnueabi/4.3.3/../../../../arm-none-linux-gnueabi/include/c++/4.3.3/bits/stl_iterator.h ****       reverse_iterator&
 175:/home/romar/CodeSourcery/Sourcery_G++_Lite/bin/../lib/gcc/arm-none-linux-gnueabi/4.3.3/../../../../arm-none-linux-gnueabi/include/c++/4.3.3/bits/stl_iterator.h ****       operator++()
 176:/home/romar/CodeSourcery/Sourcery_G++_Lite/bin/../lib/gcc/arm-none-linux-gnueabi/4.3.3/../../../../arm-none-linux-gnueabi/include/c++/4.3.3/bits/stl_iterator.h ****       {
 177:/home/romar/CodeSourcery/Sourcery_G++_Lite/bin/../lib/gcc/arm-none-linux-gnueabi/4.3.3/../../../../arm-none-linux-gnueabi/include/c++/4.3.3/bits/stl_iterator.h **** 	--current;
 178:/home/romar/CodeSourcery/Sourcery_G++_Lite/bin/../lib/gcc/arm-none-linux-gnueabi/4.3.3/../../../../arm-none-linux-gnueabi/include/c++/4.3.3/bits/stl_iterator.h **** 	return *this;
 179:/home/romar/CodeSourcery/Sourcery_G++_Lite/bin/../lib/gcc/arm-none-linux-gnueabi/4.3.3/../../../../arm-none-linux-gnueabi/include/c++/4.3.3/bits/stl_iterator.h ****       }
 180:/home/romar/CodeSourcery/Sourcery_G++_Lite/bin/../lib/gcc/arm-none-linux-gnueabi/4.3.3/../../../../arm-none-linux-gnueabi/include/c++/4.3.3/bits/stl_iterator.h **** 
 181:/home/romar/CodeSourcery/Sourcery_G++_Lite/bin/../lib/gcc/arm-none-linux-gnueabi/4.3.3/../../../../arm-none-linux-gnueabi/include/c++/4.3.3/bits/stl_iterator.h ****       /**
 182:/home/romar/CodeSourcery/Sourcery_G++_Lite/bin/../lib/gcc/arm-none-linux-gnueabi/4.3.3/../../../../arm-none-linux-gnueabi/include/c++/4.3.3/bits/stl_iterator.h ****        *  @return  TODO
 183:/home/romar/CodeSourcery/Sourcery_G++_Lite/bin/../lib/gcc/arm-none-linux-gnueabi/4.3.3/../../../../arm-none-linux-gnueabi/include/c++/4.3.3/bits/stl_iterator.h ****        *
 184:/home/romar/CodeSourcery/Sourcery_G++_Lite/bin/../lib/gcc/arm-none-linux-gnueabi/4.3.3/../../../../arm-none-linux-gnueabi/include/c++/4.3.3/bits/stl_iterator.h ****        *  @doctodo
 185:/home/romar/CodeSourcery/Sourcery_G++_Lite/bin/../lib/gcc/arm-none-linux-gnueabi/4.3.3/../../../../arm-none-linux-gnueabi/include/c++/4.3.3/bits/stl_iterator.h ****       */
 186:/home/romar/CodeSourcery/Sourcery_G++_Lite/bin/../lib/gcc/arm-none-linux-gnueabi/4.3.3/../../../../arm-none-linux-gnueabi/include/c++/4.3.3/bits/stl_iterator.h ****       reverse_iterator
 187:/home/romar/CodeSourcery/Sourcery_G++_Lite/bin/../lib/gcc/arm-none-linux-gnueabi/4.3.3/../../../../arm-none-linux-gnueabi/include/c++/4.3.3/bits/stl_iterator.h ****       operator++(int)
 188:/home/romar/CodeSourcery/Sourcery_G++_Lite/bin/../lib/gcc/arm-none-linux-gnueabi/4.3.3/../../../../arm-none-linux-gnueabi/include/c++/4.3.3/bits/stl_iterator.h ****       {
 189:/home/romar/CodeSourcery/Sourcery_G++_Lite/bin/../lib/gcc/arm-none-linux-gnueabi/4.3.3/../../../../arm-none-linux-gnueabi/include/c++/4.3.3/bits/stl_iterator.h **** 	reverse_iterator __tmp = *this;
 190:/home/romar/CodeSourcery/Sourcery_G++_Lite/bin/../lib/gcc/arm-none-linux-gnueabi/4.3.3/../../../../arm-none-linux-gnueabi/include/c++/4.3.3/bits/stl_iterator.h **** 	--current;
 191:/home/romar/CodeSourcery/Sourcery_G++_Lite/bin/../lib/gcc/arm-none-linux-gnueabi/4.3.3/../../../../arm-none-linux-gnueabi/include/c++/4.3.3/bits/stl_iterator.h **** 	return __tmp;
 192:/home/romar/CodeSourcery/Sourcery_G++_Lite/bin/../lib/gcc/arm-none-linux-gnueabi/4.3.3/../../../../arm-none-linux-gnueabi/include/c++/4.3.3/bits/stl_iterator.h ****       }
 193:/home/romar/CodeSourcery/Sourcery_G++_Lite/bin/../lib/gcc/arm-none-linux-gnueabi/4.3.3/../../../../arm-none-linux-gnueabi/include/c++/4.3.3/bits/stl_iterator.h **** 
 194:/home/romar/CodeSourcery/Sourcery_G++_Lite/bin/../lib/gcc/arm-none-linux-gnueabi/4.3.3/../../../../arm-none-linux-gnueabi/include/c++/4.3.3/bits/stl_iterator.h ****       /**
 195:/home/romar/CodeSourcery/Sourcery_G++_Lite/bin/../lib/gcc/arm-none-linux-gnueabi/4.3.3/../../../../arm-none-linux-gnueabi/include/c++/4.3.3/bits/stl_iterator.h ****        *  @return  TODO
 196:/home/romar/CodeSourcery/Sourcery_G++_Lite/bin/../lib/gcc/arm-none-linux-gnueabi/4.3.3/../../../../arm-none-linux-gnueabi/include/c++/4.3.3/bits/stl_iterator.h ****        *
 197:/home/romar/CodeSourcery/Sourcery_G++_Lite/bin/../lib/gcc/arm-none-linux-gnueabi/4.3.3/../../../../arm-none-linux-gnueabi/include/c++/4.3.3/bits/stl_iterator.h ****        *  @doctodo
 198:/home/romar/CodeSourcery/Sourcery_G++_Lite/bin/../lib/gcc/arm-none-linux-gnueabi/4.3.3/../../../../arm-none-linux-gnueabi/include/c++/4.3.3/bits/stl_iterator.h ****       */
 199:/home/romar/CodeSourcery/Sourcery_G++_Lite/bin/../lib/gcc/arm-none-linux-gnueabi/4.3.3/../../../../arm-none-linux-gnueabi/include/c++/4.3.3/bits/stl_iterator.h ****       reverse_iterator&
 200:/home/romar/CodeSourcery/Sourcery_G++_Lite/bin/../lib/gcc/arm-none-linux-gnueabi/4.3.3/../../../../arm-none-linux-gnueabi/include/c++/4.3.3/bits/stl_iterator.h ****       operator--()
 201:/home/romar/CodeSourcery/Sourcery_G++_Lite/bin/../lib/gcc/arm-none-linux-gnueabi/4.3.3/../../../../arm-none-linux-gnueabi/include/c++/4.3.3/bits/stl_iterator.h ****       {
 202:/home/romar/CodeSourcery/Sourcery_G++_Lite/bin/../lib/gcc/arm-none-linux-gnueabi/4.3.3/../../../../arm-none-linux-gnueabi/include/c++/4.3.3/bits/stl_iterator.h **** 	++current;
 203:/home/romar/CodeSourcery/Sourcery_G++_Lite/bin/../lib/gcc/arm-none-linux-gnueabi/4.3.3/../../../../arm-none-linux-gnueabi/include/c++/4.3.3/bits/stl_iterator.h **** 	return *this;
 204:/home/romar/CodeSourcery/Sourcery_G++_Lite/bin/../lib/gcc/arm-none-linux-gnueabi/4.3.3/../../../../arm-none-linux-gnueabi/include/c++/4.3.3/bits/stl_iterator.h ****       }
 205:/home/romar/CodeSourcery/Sourcery_G++_Lite/bin/../lib/gcc/arm-none-linux-gnueabi/4.3.3/../../../../arm-none-linux-gnueabi/include/c++/4.3.3/bits/stl_iterator.h **** 
 206:/home/romar/CodeSourcery/Sourcery_G++_Lite/bin/../lib/gcc/arm-none-linux-gnueabi/4.3.3/../../../../arm-none-linux-gnueabi/include/c++/4.3.3/bits/stl_iterator.h ****       /**
 207:/home/romar/CodeSourcery/Sourcery_G++_Lite/bin/../lib/gcc/arm-none-linux-gnueabi/4.3.3/../../../../arm-none-linux-gnueabi/include/c++/4.3.3/bits/stl_iterator.h ****        *  @return  TODO
 208:/home/romar/CodeSourcery/Sourcery_G++_Lite/bin/../lib/gcc/arm-none-linux-gnueabi/4.3.3/../../../../arm-none-linux-gnueabi/include/c++/4.3.3/bits/stl_iterator.h ****        *
 209:/home/romar/CodeSourcery/Sourcery_G++_Lite/bin/../lib/gcc/arm-none-linux-gnueabi/4.3.3/../../../../arm-none-linux-gnueabi/include/c++/4.3.3/bits/stl_iterator.h ****        *  @doctodo
 210:/home/romar/CodeSourcery/Sourcery_G++_Lite/bin/../lib/gcc/arm-none-linux-gnueabi/4.3.3/../../../../arm-none-linux-gnueabi/include/c++/4.3.3/bits/stl_iterator.h ****       */
 211:/home/romar/CodeSourcery/Sourcery_G++_Lite/bin/../lib/gcc/arm-none-linux-gnueabi/4.3.3/../../../../arm-none-linux-gnueabi/include/c++/4.3.3/bits/stl_iterator.h ****       reverse_iterator
 212:/home/romar/CodeSourcery/Sourcery_G++_Lite/bin/../lib/gcc/arm-none-linux-gnueabi/4.3.3/../../../../arm-none-linux-gnueabi/include/c++/4.3.3/bits/stl_iterator.h ****       operator--(int)
 213:/home/romar/CodeSourcery/Sourcery_G++_Lite/bin/../lib/gcc/arm-none-linux-gnueabi/4.3.3/../../../../arm-none-linux-gnueabi/include/c++/4.3.3/bits/stl_iterator.h ****       {
 214:/home/romar/CodeSourcery/Sourcery_G++_Lite/bin/../lib/gcc/arm-none-linux-gnueabi/4.3.3/../../../../arm-none-linux-gnueabi/include/c++/4.3.3/bits/stl_iterator.h **** 	reverse_iterator __tmp = *this;
 215:/home/romar/CodeSourcery/Sourcery_G++_Lite/bin/../lib/gcc/arm-none-linux-gnueabi/4.3.3/../../../../arm-none-linux-gnueabi/include/c++/4.3.3/bits/stl_iterator.h **** 	++current;
 216:/home/romar/CodeSourcery/Sourcery_G++_Lite/bin/../lib/gcc/arm-none-linux-gnueabi/4.3.3/../../../../arm-none-linux-gnueabi/include/c++/4.3.3/bits/stl_iterator.h **** 	return __tmp;
 217:/home/romar/CodeSourcery/Sourcery_G++_Lite/bin/../lib/gcc/arm-none-linux-gnueabi/4.3.3/../../../../arm-none-linux-gnueabi/include/c++/4.3.3/bits/stl_iterator.h ****       }
 218:/home/romar/CodeSourcery/Sourcery_G++_Lite/bin/../lib/gcc/arm-none-linux-gnueabi/4.3.3/../../../../arm-none-linux-gnueabi/include/c++/4.3.3/bits/stl_iterator.h **** 
 219:/home/romar/CodeSourcery/Sourcery_G++_Lite/bin/../lib/gcc/arm-none-linux-gnueabi/4.3.3/../../../../arm-none-linux-gnueabi/include/c++/4.3.3/bits/stl_iterator.h ****       /**
 220:/home/romar/CodeSourcery/Sourcery_G++_Lite/bin/../lib/gcc/arm-none-linux-gnueabi/4.3.3/../../../../arm-none-linux-gnueabi/include/c++/4.3.3/bits/stl_iterator.h ****        *  @return  TODO
 221:/home/romar/CodeSourcery/Sourcery_G++_Lite/bin/../lib/gcc/arm-none-linux-gnueabi/4.3.3/../../../../arm-none-linux-gnueabi/include/c++/4.3.3/bits/stl_iterator.h ****        *
 222:/home/romar/CodeSourcery/Sourcery_G++_Lite/bin/../lib/gcc/arm-none-linux-gnueabi/4.3.3/../../../../arm-none-linux-gnueabi/include/c++/4.3.3/bits/stl_iterator.h ****        *  @doctodo
 223:/home/romar/CodeSourcery/Sourcery_G++_Lite/bin/../lib/gcc/arm-none-linux-gnueabi/4.3.3/../../../../arm-none-linux-gnueabi/include/c++/4.3.3/bits/stl_iterator.h ****       */
 224:/home/romar/CodeSourcery/Sourcery_G++_Lite/bin/../lib/gcc/arm-none-linux-gnueabi/4.3.3/../../../../arm-none-linux-gnueabi/include/c++/4.3.3/bits/stl_iterator.h ****       reverse_iterator
 225:/home/romar/CodeSourcery/Sourcery_G++_Lite/bin/../lib/gcc/arm-none-linux-gnueabi/4.3.3/../../../../arm-none-linux-gnueabi/include/c++/4.3.3/bits/stl_iterator.h ****       operator+(difference_type __n) const
 226:/home/romar/CodeSourcery/Sourcery_G++_Lite/bin/../lib/gcc/arm-none-linux-gnueabi/4.3.3/../../../../arm-none-linux-gnueabi/include/c++/4.3.3/bits/stl_iterator.h ****       { return reverse_iterator(current - __n); }
 227:/home/romar/CodeSourcery/Sourcery_G++_Lite/bin/../lib/gcc/arm-none-linux-gnueabi/4.3.3/../../../../arm-none-linux-gnueabi/include/c++/4.3.3/bits/stl_iterator.h **** 
 228:/home/romar/CodeSourcery/Sourcery_G++_Lite/bin/../lib/gcc/arm-none-linux-gnueabi/4.3.3/../../../../arm-none-linux-gnueabi/include/c++/4.3.3/bits/stl_iterator.h ****       /**
 229:/home/romar/CodeSourcery/Sourcery_G++_Lite/bin/../lib/gcc/arm-none-linux-gnueabi/4.3.3/../../../../arm-none-linux-gnueabi/include/c++/4.3.3/bits/stl_iterator.h ****        *  @return  TODO
 230:/home/romar/CodeSourcery/Sourcery_G++_Lite/bin/../lib/gcc/arm-none-linux-gnueabi/4.3.3/../../../../arm-none-linux-gnueabi/include/c++/4.3.3/bits/stl_iterator.h ****        *
 231:/home/romar/CodeSourcery/Sourcery_G++_Lite/bin/../lib/gcc/arm-none-linux-gnueabi/4.3.3/../../../../arm-none-linux-gnueabi/include/c++/4.3.3/bits/stl_iterator.h ****        *  @doctodo
 232:/home/romar/CodeSourcery/Sourcery_G++_Lite/bin/../lib/gcc/arm-none-linux-gnueabi/4.3.3/../../../../arm-none-linux-gnueabi/include/c++/4.3.3/bits/stl_iterator.h ****       */
 233:/home/romar/CodeSourcery/Sourcery_G++_Lite/bin/../lib/gcc/arm-none-linux-gnueabi/4.3.3/../../../../arm-none-linux-gnueabi/include/c++/4.3.3/bits/stl_iterator.h ****       reverse_iterator&
 234:/home/romar/CodeSourcery/Sourcery_G++_Lite/bin/../lib/gcc/arm-none-linux-gnueabi/4.3.3/../../../../arm-none-linux-gnueabi/include/c++/4.3.3/bits/stl_iterator.h ****       operator+=(difference_type __n)
 235:/home/romar/CodeSourcery/Sourcery_G++_Lite/bin/../lib/gcc/arm-none-linux-gnueabi/4.3.3/../../../../arm-none-linux-gnueabi/include/c++/4.3.3/bits/stl_iterator.h ****       {
 236:/home/romar/CodeSourcery/Sourcery_G++_Lite/bin/../lib/gcc/arm-none-linux-gnueabi/4.3.3/../../../../arm-none-linux-gnueabi/include/c++/4.3.3/bits/stl_iterator.h **** 	current -= __n;
 237:/home/romar/CodeSourcery/Sourcery_G++_Lite/bin/../lib/gcc/arm-none-linux-gnueabi/4.3.3/../../../../arm-none-linux-gnueabi/include/c++/4.3.3/bits/stl_iterator.h **** 	return *this;
 238:/home/romar/CodeSourcery/Sourcery_G++_Lite/bin/../lib/gcc/arm-none-linux-gnueabi/4.3.3/../../../../arm-none-linux-gnueabi/include/c++/4.3.3/bits/stl_iterator.h ****       }
 239:/home/romar/CodeSourcery/Sourcery_G++_Lite/bin/../lib/gcc/arm-none-linux-gnueabi/4.3.3/../../../../arm-none-linux-gnueabi/include/c++/4.3.3/bits/stl_iterator.h **** 
 240:/home/romar/CodeSourcery/Sourcery_G++_Lite/bin/../lib/gcc/arm-none-linux-gnueabi/4.3.3/../../../../arm-none-linux-gnueabi/include/c++/4.3.3/bits/stl_iterator.h ****       /**
 241:/home/romar/CodeSourcery/Sourcery_G++_Lite/bin/../lib/gcc/arm-none-linux-gnueabi/4.3.3/../../../../arm-none-linux-gnueabi/include/c++/4.3.3/bits/stl_iterator.h ****        *  @return  TODO
 242:/home/romar/CodeSourcery/Sourcery_G++_Lite/bin/../lib/gcc/arm-none-linux-gnueabi/4.3.3/../../../../arm-none-linux-gnueabi/include/c++/4.3.3/bits/stl_iterator.h ****        *
 243:/home/romar/CodeSourcery/Sourcery_G++_Lite/bin/../lib/gcc/arm-none-linux-gnueabi/4.3.3/../../../../arm-none-linux-gnueabi/include/c++/4.3.3/bits/stl_iterator.h ****        *  @doctodo
 244:/home/romar/CodeSourcery/Sourcery_G++_Lite/bin/../lib/gcc/arm-none-linux-gnueabi/4.3.3/../../../../arm-none-linux-gnueabi/include/c++/4.3.3/bits/stl_iterator.h ****       */
 245:/home/romar/CodeSourcery/Sourcery_G++_Lite/bin/../lib/gcc/arm-none-linux-gnueabi/4.3.3/../../../../arm-none-linux-gnueabi/include/c++/4.3.3/bits/stl_iterator.h ****       reverse_iterator
 246:/home/romar/CodeSourcery/Sourcery_G++_Lite/bin/../lib/gcc/arm-none-linux-gnueabi/4.3.3/../../../../arm-none-linux-gnueabi/include/c++/4.3.3/bits/stl_iterator.h ****       operator-(difference_type __n) const
 247:/home/romar/CodeSourcery/Sourcery_G++_Lite/bin/../lib/gcc/arm-none-linux-gnueabi/4.3.3/../../../../arm-none-linux-gnueabi/include/c++/4.3.3/bits/stl_iterator.h ****       { return reverse_iterator(current + __n); }
 248:/home/romar/CodeSourcery/Sourcery_G++_Lite/bin/../lib/gcc/arm-none-linux-gnueabi/4.3.3/../../../../arm-none-linux-gnueabi/include/c++/4.3.3/bits/stl_iterator.h **** 
 249:/home/romar/CodeSourcery/Sourcery_G++_Lite/bin/../lib/gcc/arm-none-linux-gnueabi/4.3.3/../../../../arm-none-linux-gnueabi/include/c++/4.3.3/bits/stl_iterator.h ****       /**
 250:/home/romar/CodeSourcery/Sourcery_G++_Lite/bin/../lib/gcc/arm-none-linux-gnueabi/4.3.3/../../../../arm-none-linux-gnueabi/include/c++/4.3.3/bits/stl_iterator.h ****        *  @return  TODO
 251:/home/romar/CodeSourcery/Sourcery_G++_Lite/bin/../lib/gcc/arm-none-linux-gnueabi/4.3.3/../../../../arm-none-linux-gnueabi/include/c++/4.3.3/bits/stl_iterator.h ****        *
 252:/home/romar/CodeSourcery/Sourcery_G++_Lite/bin/../lib/gcc/arm-none-linux-gnueabi/4.3.3/../../../../arm-none-linux-gnueabi/include/c++/4.3.3/bits/stl_iterator.h ****        *  @doctodo
 253:/home/romar/CodeSourcery/Sourcery_G++_Lite/bin/../lib/gcc/arm-none-linux-gnueabi/4.3.3/../../../../arm-none-linux-gnueabi/include/c++/4.3.3/bits/stl_iterator.h ****       */
 254:/home/romar/CodeSourcery/Sourcery_G++_Lite/bin/../lib/gcc/arm-none-linux-gnueabi/4.3.3/../../../../arm-none-linux-gnueabi/include/c++/4.3.3/bits/stl_iterator.h ****       reverse_iterator&
 255:/home/romar/CodeSourcery/Sourcery_G++_Lite/bin/../lib/gcc/arm-none-linux-gnueabi/4.3.3/../../../../arm-none-linux-gnueabi/include/c++/4.3.3/bits/stl_iterator.h ****       operator-=(difference_type __n)
 256:/home/romar/CodeSourcery/Sourcery_G++_Lite/bin/../lib/gcc/arm-none-linux-gnueabi/4.3.3/../../../../arm-none-linux-gnueabi/include/c++/4.3.3/bits/stl_iterator.h ****       {
 257:/home/romar/CodeSourcery/Sourcery_G++_Lite/bin/../lib/gcc/arm-none-linux-gnueabi/4.3.3/../../../../arm-none-linux-gnueabi/include/c++/4.3.3/bits/stl_iterator.h **** 	current += __n;
 258:/home/romar/CodeSourcery/Sourcery_G++_Lite/bin/../lib/gcc/arm-none-linux-gnueabi/4.3.3/../../../../arm-none-linux-gnueabi/include/c++/4.3.3/bits/stl_iterator.h **** 	return *this;
 259:/home/romar/CodeSourcery/Sourcery_G++_Lite/bin/../lib/gcc/arm-none-linux-gnueabi/4.3.3/../../../../arm-none-linux-gnueabi/include/c++/4.3.3/bits/stl_iterator.h ****       }
 260:/home/romar/CodeSourcery/Sourcery_G++_Lite/bin/../lib/gcc/arm-none-linux-gnueabi/4.3.3/../../../../arm-none-linux-gnueabi/include/c++/4.3.3/bits/stl_iterator.h **** 
 261:/home/romar/CodeSourcery/Sourcery_G++_Lite/bin/../lib/gcc/arm-none-linux-gnueabi/4.3.3/../../../../arm-none-linux-gnueabi/include/c++/4.3.3/bits/stl_iterator.h ****       /**
 262:/home/romar/CodeSourcery/Sourcery_G++_Lite/bin/../lib/gcc/arm-none-linux-gnueabi/4.3.3/../../../../arm-none-linux-gnueabi/include/c++/4.3.3/bits/stl_iterator.h ****        *  @return  TODO
 263:/home/romar/CodeSourcery/Sourcery_G++_Lite/bin/../lib/gcc/arm-none-linux-gnueabi/4.3.3/../../../../arm-none-linux-gnueabi/include/c++/4.3.3/bits/stl_iterator.h ****        *
 264:/home/romar/CodeSourcery/Sourcery_G++_Lite/bin/../lib/gcc/arm-none-linux-gnueabi/4.3.3/../../../../arm-none-linux-gnueabi/include/c++/4.3.3/bits/stl_iterator.h ****        *  @doctodo
 265:/home/romar/CodeSourcery/Sourcery_G++_Lite/bin/../lib/gcc/arm-none-linux-gnueabi/4.3.3/../../../../arm-none-linux-gnueabi/include/c++/4.3.3/bits/stl_iterator.h ****       */
 266:/home/romar/CodeSourcery/Sourcery_G++_Lite/bin/../lib/gcc/arm-none-linux-gnueabi/4.3.3/../../../../arm-none-linux-gnueabi/include/c++/4.3.3/bits/stl_iterator.h ****       reference
 267:/home/romar/CodeSourcery/Sourcery_G++_Lite/bin/../lib/gcc/arm-none-linux-gnueabi/4.3.3/../../../../arm-none-linux-gnueabi/include/c++/4.3.3/bits/stl_iterator.h ****       operator[](difference_type __n) const
 268:/home/romar/CodeSourcery/Sourcery_G++_Lite/bin/../lib/gcc/arm-none-linux-gnueabi/4.3.3/../../../../arm-none-linux-gnueabi/include/c++/4.3.3/bits/stl_iterator.h ****       { return *(*this + __n); }
 269:/home/romar/CodeSourcery/Sourcery_G++_Lite/bin/../lib/gcc/arm-none-linux-gnueabi/4.3.3/../../../../arm-none-linux-gnueabi/include/c++/4.3.3/bits/stl_iterator.h ****     };
 270:/home/romar/CodeSourcery/Sourcery_G++_Lite/bin/../lib/gcc/arm-none-linux-gnueabi/4.3.3/../../../../arm-none-linux-gnueabi/include/c++/4.3.3/bits/stl_iterator.h **** 
 271:/home/romar/CodeSourcery/Sourcery_G++_Lite/bin/../lib/gcc/arm-none-linux-gnueabi/4.3.3/../../../../arm-none-linux-gnueabi/include/c++/4.3.3/bits/stl_iterator.h ****   //@{
 272:/home/romar/CodeSourcery/Sourcery_G++_Lite/bin/../lib/gcc/arm-none-linux-gnueabi/4.3.3/../../../../arm-none-linux-gnueabi/include/c++/4.3.3/bits/stl_iterator.h ****   /**
 273:/home/romar/CodeSourcery/Sourcery_G++_Lite/bin/../lib/gcc/arm-none-linux-gnueabi/4.3.3/../../../../arm-none-linux-gnueabi/include/c++/4.3.3/bits/stl_iterator.h ****    *  @param  x  A %reverse_iterator.
 274:/home/romar/CodeSourcery/Sourcery_G++_Lite/bin/../lib/gcc/arm-none-linux-gnueabi/4.3.3/../../../../arm-none-linux-gnueabi/include/c++/4.3.3/bits/stl_iterator.h ****    *  @param  y  A %reverse_iterator.
 275:/home/romar/CodeSourcery/Sourcery_G++_Lite/bin/../lib/gcc/arm-none-linux-gnueabi/4.3.3/../../../../arm-none-linux-gnueabi/include/c++/4.3.3/bits/stl_iterator.h ****    *  @return  A simple bool.
 276:/home/romar/CodeSourcery/Sourcery_G++_Lite/bin/../lib/gcc/arm-none-linux-gnueabi/4.3.3/../../../../arm-none-linux-gnueabi/include/c++/4.3.3/bits/stl_iterator.h ****    *
 277:/home/romar/CodeSourcery/Sourcery_G++_Lite/bin/../lib/gcc/arm-none-linux-gnueabi/4.3.3/../../../../arm-none-linux-gnueabi/include/c++/4.3.3/bits/stl_iterator.h ****    *  Reverse iterators forward many operations to their underlying base()
 278:/home/romar/CodeSourcery/Sourcery_G++_Lite/bin/../lib/gcc/arm-none-linux-gnueabi/4.3.3/../../../../arm-none-linux-gnueabi/include/c++/4.3.3/bits/stl_iterator.h ****    *  iterators.  Others are implemented in terms of one another.
 279:/home/romar/CodeSourcery/Sourcery_G++_Lite/bin/../lib/gcc/arm-none-linux-gnueabi/4.3.3/../../../../arm-none-linux-gnueabi/include/c++/4.3.3/bits/stl_iterator.h ****    *
 280:/home/romar/CodeSourcery/Sourcery_G++_Lite/bin/../lib/gcc/arm-none-linux-gnueabi/4.3.3/../../../../arm-none-linux-gnueabi/include/c++/4.3.3/bits/stl_iterator.h ****   */
 281:/home/romar/CodeSourcery/Sourcery_G++_Lite/bin/../lib/gcc/arm-none-linux-gnueabi/4.3.3/../../../../arm-none-linux-gnueabi/include/c++/4.3.3/bits/stl_iterator.h ****   template<typename _Iterator>
 282:/home/romar/CodeSourcery/Sourcery_G++_Lite/bin/../lib/gcc/arm-none-linux-gnueabi/4.3.3/../../../../arm-none-linux-gnueabi/include/c++/4.3.3/bits/stl_iterator.h ****     inline bool
 283:/home/romar/CodeSourcery/Sourcery_G++_Lite/bin/../lib/gcc/arm-none-linux-gnueabi/4.3.3/../../../../arm-none-linux-gnueabi/include/c++/4.3.3/bits/stl_iterator.h ****     operator==(const reverse_iterator<_Iterator>& __x,
 284:/home/romar/CodeSourcery/Sourcery_G++_Lite/bin/../lib/gcc/arm-none-linux-gnueabi/4.3.3/../../../../arm-none-linux-gnueabi/include/c++/4.3.3/bits/stl_iterator.h **** 	       const reverse_iterator<_Iterator>& __y)
 285:/home/romar/CodeSourcery/Sourcery_G++_Lite/bin/../lib/gcc/arm-none-linux-gnueabi/4.3.3/../../../../arm-none-linux-gnueabi/include/c++/4.3.3/bits/stl_iterator.h ****     { return __x.base() == __y.base(); }
 286:/home/romar/CodeSourcery/Sourcery_G++_Lite/bin/../lib/gcc/arm-none-linux-gnueabi/4.3.3/../../../../arm-none-linux-gnueabi/include/c++/4.3.3/bits/stl_iterator.h **** 
 287:/home/romar/CodeSourcery/Sourcery_G++_Lite/bin/../lib/gcc/arm-none-linux-gnueabi/4.3.3/../../../../arm-none-linux-gnueabi/include/c++/4.3.3/bits/stl_iterator.h ****   template<typename _Iterator>
 288:/home/romar/CodeSourcery/Sourcery_G++_Lite/bin/../lib/gcc/arm-none-linux-gnueabi/4.3.3/../../../../arm-none-linux-gnueabi/include/c++/4.3.3/bits/stl_iterator.h ****     inline bool
 289:/home/romar/CodeSourcery/Sourcery_G++_Lite/bin/../lib/gcc/arm-none-linux-gnueabi/4.3.3/../../../../arm-none-linux-gnueabi/include/c++/4.3.3/bits/stl_iterator.h ****     operator<(const reverse_iterator<_Iterator>& __x,
 290:/home/romar/CodeSourcery/Sourcery_G++_Lite/bin/../lib/gcc/arm-none-linux-gnueabi/4.3.3/../../../../arm-none-linux-gnueabi/include/c++/4.3.3/bits/stl_iterator.h **** 	      const reverse_iterator<_Iterator>& __y)
 291:/home/romar/CodeSourcery/Sourcery_G++_Lite/bin/../lib/gcc/arm-none-linux-gnueabi/4.3.3/../../../../arm-none-linux-gnueabi/include/c++/4.3.3/bits/stl_iterator.h ****     { return __y.base() < __x.base(); }
 292:/home/romar/CodeSourcery/Sourcery_G++_Lite/bin/../lib/gcc/arm-none-linux-gnueabi/4.3.3/../../../../arm-none-linux-gnueabi/include/c++/4.3.3/bits/stl_iterator.h **** 
 293:/home/romar/CodeSourcery/Sourcery_G++_Lite/bin/../lib/gcc/arm-none-linux-gnueabi/4.3.3/../../../../arm-none-linux-gnueabi/include/c++/4.3.3/bits/stl_iterator.h ****   template<typename _Iterator>
 294:/home/romar/CodeSourcery/Sourcery_G++_Lite/bin/../lib/gcc/arm-none-linux-gnueabi/4.3.3/../../../../arm-none-linux-gnueabi/include/c++/4.3.3/bits/stl_iterator.h ****     inline bool
 295:/home/romar/CodeSourcery/Sourcery_G++_Lite/bin/../lib/gcc/arm-none-linux-gnueabi/4.3.3/../../../../arm-none-linux-gnueabi/include/c++/4.3.3/bits/stl_iterator.h ****     operator!=(const reverse_iterator<_Iterator>& __x,
 296:/home/romar/CodeSourcery/Sourcery_G++_Lite/bin/../lib/gcc/arm-none-linux-gnueabi/4.3.3/../../../../arm-none-linux-gnueabi/include/c++/4.3.3/bits/stl_iterator.h **** 	       const reverse_iterator<_Iterator>& __y)
 297:/home/romar/CodeSourcery/Sourcery_G++_Lite/bin/../lib/gcc/arm-none-linux-gnueabi/4.3.3/../../../../arm-none-linux-gnueabi/include/c++/4.3.3/bits/stl_iterator.h ****     { return !(__x == __y); }
 298:/home/romar/CodeSourcery/Sourcery_G++_Lite/bin/../lib/gcc/arm-none-linux-gnueabi/4.3.3/../../../../arm-none-linux-gnueabi/include/c++/4.3.3/bits/stl_iterator.h **** 
 299:/home/romar/CodeSourcery/Sourcery_G++_Lite/bin/../lib/gcc/arm-none-linux-gnueabi/4.3.3/../../../../arm-none-linux-gnueabi/include/c++/4.3.3/bits/stl_iterator.h ****   template<typename _Iterator>
 300:/home/romar/CodeSourcery/Sourcery_G++_Lite/bin/../lib/gcc/arm-none-linux-gnueabi/4.3.3/../../../../arm-none-linux-gnueabi/include/c++/4.3.3/bits/stl_iterator.h ****     inline bool
 301:/home/romar/CodeSourcery/Sourcery_G++_Lite/bin/../lib/gcc/arm-none-linux-gnueabi/4.3.3/../../../../arm-none-linux-gnueabi/include/c++/4.3.3/bits/stl_iterator.h ****     operator>(const reverse_iterator<_Iterator>& __x,
 302:/home/romar/CodeSourcery/Sourcery_G++_Lite/bin/../lib/gcc/arm-none-linux-gnueabi/4.3.3/../../../../arm-none-linux-gnueabi/include/c++/4.3.3/bits/stl_iterator.h **** 	      const reverse_iterator<_Iterator>& __y)
 303:/home/romar/CodeSourcery/Sourcery_G++_Lite/bin/../lib/gcc/arm-none-linux-gnueabi/4.3.3/../../../../arm-none-linux-gnueabi/include/c++/4.3.3/bits/stl_iterator.h ****     { return __y < __x; }
 304:/home/romar/CodeSourcery/Sourcery_G++_Lite/bin/../lib/gcc/arm-none-linux-gnueabi/4.3.3/../../../../arm-none-linux-gnueabi/include/c++/4.3.3/bits/stl_iterator.h **** 
 305:/home/romar/CodeSourcery/Sourcery_G++_Lite/bin/../lib/gcc/arm-none-linux-gnueabi/4.3.3/../../../../arm-none-linux-gnueabi/include/c++/4.3.3/bits/stl_iterator.h ****   template<typename _Iterator>
 306:/home/romar/CodeSourcery/Sourcery_G++_Lite/bin/../lib/gcc/arm-none-linux-gnueabi/4.3.3/../../../../arm-none-linux-gnueabi/include/c++/4.3.3/bits/stl_iterator.h ****     inline bool
 307:/home/romar/CodeSourcery/Sourcery_G++_Lite/bin/../lib/gcc/arm-none-linux-gnueabi/4.3.3/../../../../arm-none-linux-gnueabi/include/c++/4.3.3/bits/stl_iterator.h ****     operator<=(const reverse_iterator<_Iterator>& __x,
 308:/home/romar/CodeSourcery/Sourcery_G++_Lite/bin/../lib/gcc/arm-none-linux-gnueabi/4.3.3/../../../../arm-none-linux-gnueabi/include/c++/4.3.3/bits/stl_iterator.h **** 	       const reverse_iterator<_Iterator>& __y)
 309:/home/romar/CodeSourcery/Sourcery_G++_Lite/bin/../lib/gcc/arm-none-linux-gnueabi/4.3.3/../../../../arm-none-linux-gnueabi/include/c++/4.3.3/bits/stl_iterator.h ****     { return !(__y < __x); }
 310:/home/romar/CodeSourcery/Sourcery_G++_Lite/bin/../lib/gcc/arm-none-linux-gnueabi/4.3.3/../../../../arm-none-linux-gnueabi/include/c++/4.3.3/bits/stl_iterator.h **** 
 311:/home/romar/CodeSourcery/Sourcery_G++_Lite/bin/../lib/gcc/arm-none-linux-gnueabi/4.3.3/../../../../arm-none-linux-gnueabi/include/c++/4.3.3/bits/stl_iterator.h ****   template<typename _Iterator>
 312:/home/romar/CodeSourcery/Sourcery_G++_Lite/bin/../lib/gcc/arm-none-linux-gnueabi/4.3.3/../../../../arm-none-linux-gnueabi/include/c++/4.3.3/bits/stl_iterator.h ****     inline bool
 313:/home/romar/CodeSourcery/Sourcery_G++_Lite/bin/../lib/gcc/arm-none-linux-gnueabi/4.3.3/../../../../arm-none-linux-gnueabi/include/c++/4.3.3/bits/stl_iterator.h ****     operator>=(const reverse_iterator<_Iterator>& __x,
 314:/home/romar/CodeSourcery/Sourcery_G++_Lite/bin/../lib/gcc/arm-none-linux-gnueabi/4.3.3/../../../../arm-none-linux-gnueabi/include/c++/4.3.3/bits/stl_iterator.h **** 	       const reverse_iterator<_Iterator>& __y)
 315:/home/romar/CodeSourcery/Sourcery_G++_Lite/bin/../lib/gcc/arm-none-linux-gnueabi/4.3.3/../../../../arm-none-linux-gnueabi/include/c++/4.3.3/bits/stl_iterator.h ****     { return !(__x < __y); }
 316:/home/romar/CodeSourcery/Sourcery_G++_Lite/bin/../lib/gcc/arm-none-linux-gnueabi/4.3.3/../../../../arm-none-linux-gnueabi/include/c++/4.3.3/bits/stl_iterator.h **** 
 317:/home/romar/CodeSourcery/Sourcery_G++_Lite/bin/../lib/gcc/arm-none-linux-gnueabi/4.3.3/../../../../arm-none-linux-gnueabi/include/c++/4.3.3/bits/stl_iterator.h ****   template<typename _Iterator>
 318:/home/romar/CodeSourcery/Sourcery_G++_Lite/bin/../lib/gcc/arm-none-linux-gnueabi/4.3.3/../../../../arm-none-linux-gnueabi/include/c++/4.3.3/bits/stl_iterator.h ****     inline typename reverse_iterator<_Iterator>::difference_type
 319:/home/romar/CodeSourcery/Sourcery_G++_Lite/bin/../lib/gcc/arm-none-linux-gnueabi/4.3.3/../../../../arm-none-linux-gnueabi/include/c++/4.3.3/bits/stl_iterator.h ****     operator-(const reverse_iterator<_Iterator>& __x,
 320:/home/romar/CodeSourcery/Sourcery_G++_Lite/bin/../lib/gcc/arm-none-linux-gnueabi/4.3.3/../../../../arm-none-linux-gnueabi/include/c++/4.3.3/bits/stl_iterator.h **** 	      const reverse_iterator<_Iterator>& __y)
 321:/home/romar/CodeSourcery/Sourcery_G++_Lite/bin/../lib/gcc/arm-none-linux-gnueabi/4.3.3/../../../../arm-none-linux-gnueabi/include/c++/4.3.3/bits/stl_iterator.h ****     { return __y.base() - __x.base(); }
 322:/home/romar/CodeSourcery/Sourcery_G++_Lite/bin/../lib/gcc/arm-none-linux-gnueabi/4.3.3/../../../../arm-none-linux-gnueabi/include/c++/4.3.3/bits/stl_iterator.h **** 
 323:/home/romar/CodeSourcery/Sourcery_G++_Lite/bin/../lib/gcc/arm-none-linux-gnueabi/4.3.3/../../../../arm-none-linux-gnueabi/include/c++/4.3.3/bits/stl_iterator.h ****   template<typename _Iterator>
 324:/home/romar/CodeSourcery/Sourcery_G++_Lite/bin/../lib/gcc/arm-none-linux-gnueabi/4.3.3/../../../../arm-none-linux-gnueabi/include/c++/4.3.3/bits/stl_iterator.h ****     inline reverse_iterator<_Iterator>
 325:/home/romar/CodeSourcery/Sourcery_G++_Lite/bin/../lib/gcc/arm-none-linux-gnueabi/4.3.3/../../../../arm-none-linux-gnueabi/include/c++/4.3.3/bits/stl_iterator.h ****     operator+(typename reverse_iterator<_Iterator>::difference_type __n,
 326:/home/romar/CodeSourcery/Sourcery_G++_Lite/bin/../lib/gcc/arm-none-linux-gnueabi/4.3.3/../../../../arm-none-linux-gnueabi/include/c++/4.3.3/bits/stl_iterator.h **** 	      const reverse_iterator<_Iterator>& __x)
 327:/home/romar/CodeSourcery/Sourcery_G++_Lite/bin/../lib/gcc/arm-none-linux-gnueabi/4.3.3/../../../../arm-none-linux-gnueabi/include/c++/4.3.3/bits/stl_iterator.h ****     { return reverse_iterator<_Iterator>(__x.base() - __n); }
 328:/home/romar/CodeSourcery/Sourcery_G++_Lite/bin/../lib/gcc/arm-none-linux-gnueabi/4.3.3/../../../../arm-none-linux-gnueabi/include/c++/4.3.3/bits/stl_iterator.h **** 
 329:/home/romar/CodeSourcery/Sourcery_G++_Lite/bin/../lib/gcc/arm-none-linux-gnueabi/4.3.3/../../../../arm-none-linux-gnueabi/include/c++/4.3.3/bits/stl_iterator.h ****   // _GLIBCXX_RESOLVE_LIB_DEFECTS
 330:/home/romar/CodeSourcery/Sourcery_G++_Lite/bin/../lib/gcc/arm-none-linux-gnueabi/4.3.3/../../../../arm-none-linux-gnueabi/include/c++/4.3.3/bits/stl_iterator.h ****   // DR 280. Comparison of reverse_iterator to const reverse_iterator.
 331:/home/romar/CodeSourcery/Sourcery_G++_Lite/bin/../lib/gcc/arm-none-linux-gnueabi/4.3.3/../../../../arm-none-linux-gnueabi/include/c++/4.3.3/bits/stl_iterator.h ****   template<typename _IteratorL, typename _IteratorR>
 332:/home/romar/CodeSourcery/Sourcery_G++_Lite/bin/../lib/gcc/arm-none-linux-gnueabi/4.3.3/../../../../arm-none-linux-gnueabi/include/c++/4.3.3/bits/stl_iterator.h ****     inline bool
 333:/home/romar/CodeSourcery/Sourcery_G++_Lite/bin/../lib/gcc/arm-none-linux-gnueabi/4.3.3/../../../../arm-none-linux-gnueabi/include/c++/4.3.3/bits/stl_iterator.h ****     operator==(const reverse_iterator<_IteratorL>& __x,
 334:/home/romar/CodeSourcery/Sourcery_G++_Lite/bin/../lib/gcc/arm-none-linux-gnueabi/4.3.3/../../../../arm-none-linux-gnueabi/include/c++/4.3.3/bits/stl_iterator.h **** 	       const reverse_iterator<_IteratorR>& __y)
 335:/home/romar/CodeSourcery/Sourcery_G++_Lite/bin/../lib/gcc/arm-none-linux-gnueabi/4.3.3/../../../../arm-none-linux-gnueabi/include/c++/4.3.3/bits/stl_iterator.h ****     { return __x.base() == __y.base(); }
 336:/home/romar/CodeSourcery/Sourcery_G++_Lite/bin/../lib/gcc/arm-none-linux-gnueabi/4.3.3/../../../../arm-none-linux-gnueabi/include/c++/4.3.3/bits/stl_iterator.h **** 
 337:/home/romar/CodeSourcery/Sourcery_G++_Lite/bin/../lib/gcc/arm-none-linux-gnueabi/4.3.3/../../../../arm-none-linux-gnueabi/include/c++/4.3.3/bits/stl_iterator.h ****   template<typename _IteratorL, typename _IteratorR>
 338:/home/romar/CodeSourcery/Sourcery_G++_Lite/bin/../lib/gcc/arm-none-linux-gnueabi/4.3.3/../../../../arm-none-linux-gnueabi/include/c++/4.3.3/bits/stl_iterator.h ****     inline bool
 339:/home/romar/CodeSourcery/Sourcery_G++_Lite/bin/../lib/gcc/arm-none-linux-gnueabi/4.3.3/../../../../arm-none-linux-gnueabi/include/c++/4.3.3/bits/stl_iterator.h ****     operator<(const reverse_iterator<_IteratorL>& __x,
 340:/home/romar/CodeSourcery/Sourcery_G++_Lite/bin/../lib/gcc/arm-none-linux-gnueabi/4.3.3/../../../../arm-none-linux-gnueabi/include/c++/4.3.3/bits/stl_iterator.h **** 	      const reverse_iterator<_IteratorR>& __y)
 341:/home/romar/CodeSourcery/Sourcery_G++_Lite/bin/../lib/gcc/arm-none-linux-gnueabi/4.3.3/../../../../arm-none-linux-gnueabi/include/c++/4.3.3/bits/stl_iterator.h ****     { return __y.base() < __x.base(); }
 342:/home/romar/CodeSourcery/Sourcery_G++_Lite/bin/../lib/gcc/arm-none-linux-gnueabi/4.3.3/../../../../arm-none-linux-gnueabi/include/c++/4.3.3/bits/stl_iterator.h **** 
 343:/home/romar/CodeSourcery/Sourcery_G++_Lite/bin/../lib/gcc/arm-none-linux-gnueabi/4.3.3/../../../../arm-none-linux-gnueabi/include/c++/4.3.3/bits/stl_iterator.h ****   template<typename _IteratorL, typename _IteratorR>
 344:/home/romar/CodeSourcery/Sourcery_G++_Lite/bin/../lib/gcc/arm-none-linux-gnueabi/4.3.3/../../../../arm-none-linux-gnueabi/include/c++/4.3.3/bits/stl_iterator.h ****     inline bool
 345:/home/romar/CodeSourcery/Sourcery_G++_Lite/bin/../lib/gcc/arm-none-linux-gnueabi/4.3.3/../../../../arm-none-linux-gnueabi/include/c++/4.3.3/bits/stl_iterator.h ****     operator!=(const reverse_iterator<_IteratorL>& __x,
 346:/home/romar/CodeSourcery/Sourcery_G++_Lite/bin/../lib/gcc/arm-none-linux-gnueabi/4.3.3/../../../../arm-none-linux-gnueabi/include/c++/4.3.3/bits/stl_iterator.h **** 	       const reverse_iterator<_IteratorR>& __y)
 347:/home/romar/CodeSourcery/Sourcery_G++_Lite/bin/../lib/gcc/arm-none-linux-gnueabi/4.3.3/../../../../arm-none-linux-gnueabi/include/c++/4.3.3/bits/stl_iterator.h ****     { return !(__x == __y); }
 348:/home/romar/CodeSourcery/Sourcery_G++_Lite/bin/../lib/gcc/arm-none-linux-gnueabi/4.3.3/../../../../arm-none-linux-gnueabi/include/c++/4.3.3/bits/stl_iterator.h **** 
 349:/home/romar/CodeSourcery/Sourcery_G++_Lite/bin/../lib/gcc/arm-none-linux-gnueabi/4.3.3/../../../../arm-none-linux-gnueabi/include/c++/4.3.3/bits/stl_iterator.h ****   template<typename _IteratorL, typename _IteratorR>
 350:/home/romar/CodeSourcery/Sourcery_G++_Lite/bin/../lib/gcc/arm-none-linux-gnueabi/4.3.3/../../../../arm-none-linux-gnueabi/include/c++/4.3.3/bits/stl_iterator.h ****     inline bool
 351:/home/romar/CodeSourcery/Sourcery_G++_Lite/bin/../lib/gcc/arm-none-linux-gnueabi/4.3.3/../../../../arm-none-linux-gnueabi/include/c++/4.3.3/bits/stl_iterator.h ****     operator>(const reverse_iterator<_IteratorL>& __x,
 352:/home/romar/CodeSourcery/Sourcery_G++_Lite/bin/../lib/gcc/arm-none-linux-gnueabi/4.3.3/../../../../arm-none-linux-gnueabi/include/c++/4.3.3/bits/stl_iterator.h **** 	      const reverse_iterator<_IteratorR>& __y)
 353:/home/romar/CodeSourcery/Sourcery_G++_Lite/bin/../lib/gcc/arm-none-linux-gnueabi/4.3.3/../../../../arm-none-linux-gnueabi/include/c++/4.3.3/bits/stl_iterator.h ****     { return __y < __x; }
 354:/home/romar/CodeSourcery/Sourcery_G++_Lite/bin/../lib/gcc/arm-none-linux-gnueabi/4.3.3/../../../../arm-none-linux-gnueabi/include/c++/4.3.3/bits/stl_iterator.h **** 
 355:/home/romar/CodeSourcery/Sourcery_G++_Lite/bin/../lib/gcc/arm-none-linux-gnueabi/4.3.3/../../../../arm-none-linux-gnueabi/include/c++/4.3.3/bits/stl_iterator.h ****   template<typename _IteratorL, typename _IteratorR>
 356:/home/romar/CodeSourcery/Sourcery_G++_Lite/bin/../lib/gcc/arm-none-linux-gnueabi/4.3.3/../../../../arm-none-linux-gnueabi/include/c++/4.3.3/bits/stl_iterator.h ****     inline bool
 357:/home/romar/CodeSourcery/Sourcery_G++_Lite/bin/../lib/gcc/arm-none-linux-gnueabi/4.3.3/../../../../arm-none-linux-gnueabi/include/c++/4.3.3/bits/stl_iterator.h ****     operator<=(const reverse_iterator<_IteratorL>& __x,
 358:/home/romar/CodeSourcery/Sourcery_G++_Lite/bin/../lib/gcc/arm-none-linux-gnueabi/4.3.3/../../../../arm-none-linux-gnueabi/include/c++/4.3.3/bits/stl_iterator.h **** 	       const reverse_iterator<_IteratorR>& __y)
 359:/home/romar/CodeSourcery/Sourcery_G++_Lite/bin/../lib/gcc/arm-none-linux-gnueabi/4.3.3/../../../../arm-none-linux-gnueabi/include/c++/4.3.3/bits/stl_iterator.h ****     { return !(__y < __x); }
 360:/home/romar/CodeSourcery/Sourcery_G++_Lite/bin/../lib/gcc/arm-none-linux-gnueabi/4.3.3/../../../../arm-none-linux-gnueabi/include/c++/4.3.3/bits/stl_iterator.h **** 
 361:/home/romar/CodeSourcery/Sourcery_G++_Lite/bin/../lib/gcc/arm-none-linux-gnueabi/4.3.3/../../../../arm-none-linux-gnueabi/include/c++/4.3.3/bits/stl_iterator.h ****   template<typename _IteratorL, typename _IteratorR>
 362:/home/romar/CodeSourcery/Sourcery_G++_Lite/bin/../lib/gcc/arm-none-linux-gnueabi/4.3.3/../../../../arm-none-linux-gnueabi/include/c++/4.3.3/bits/stl_iterator.h ****     inline bool
 363:/home/romar/CodeSourcery/Sourcery_G++_Lite/bin/../lib/gcc/arm-none-linux-gnueabi/4.3.3/../../../../arm-none-linux-gnueabi/include/c++/4.3.3/bits/stl_iterator.h ****     operator>=(const reverse_iterator<_IteratorL>& __x,
 364:/home/romar/CodeSourcery/Sourcery_G++_Lite/bin/../lib/gcc/arm-none-linux-gnueabi/4.3.3/../../../../arm-none-linux-gnueabi/include/c++/4.3.3/bits/stl_iterator.h **** 	       const reverse_iterator<_IteratorR>& __y)
 365:/home/romar/CodeSourcery/Sourcery_G++_Lite/bin/../lib/gcc/arm-none-linux-gnueabi/4.3.3/../../../../arm-none-linux-gnueabi/include/c++/4.3.3/bits/stl_iterator.h ****     { return !(__x < __y); }
 366:/home/romar/CodeSourcery/Sourcery_G++_Lite/bin/../lib/gcc/arm-none-linux-gnueabi/4.3.3/../../../../arm-none-linux-gnueabi/include/c++/4.3.3/bits/stl_iterator.h **** 
 367:/home/romar/CodeSourcery/Sourcery_G++_Lite/bin/../lib/gcc/arm-none-linux-gnueabi/4.3.3/../../../../arm-none-linux-gnueabi/include/c++/4.3.3/bits/stl_iterator.h ****   template<typename _IteratorL, typename _IteratorR>
 368:/home/romar/CodeSourcery/Sourcery_G++_Lite/bin/../lib/gcc/arm-none-linux-gnueabi/4.3.3/../../../../arm-none-linux-gnueabi/include/c++/4.3.3/bits/stl_iterator.h ****     inline typename reverse_iterator<_IteratorL>::difference_type
 369:/home/romar/CodeSourcery/Sourcery_G++_Lite/bin/../lib/gcc/arm-none-linux-gnueabi/4.3.3/../../../../arm-none-linux-gnueabi/include/c++/4.3.3/bits/stl_iterator.h ****     operator-(const reverse_iterator<_IteratorL>& __x,
 370:/home/romar/CodeSourcery/Sourcery_G++_Lite/bin/../lib/gcc/arm-none-linux-gnueabi/4.3.3/../../../../arm-none-linux-gnueabi/include/c++/4.3.3/bits/stl_iterator.h **** 	      const reverse_iterator<_IteratorR>& __y)
 371:/home/romar/CodeSourcery/Sourcery_G++_Lite/bin/../lib/gcc/arm-none-linux-gnueabi/4.3.3/../../../../arm-none-linux-gnueabi/include/c++/4.3.3/bits/stl_iterator.h ****     { return __y.base() - __x.base(); }
 372:/home/romar/CodeSourcery/Sourcery_G++_Lite/bin/../lib/gcc/arm-none-linux-gnueabi/4.3.3/../../../../arm-none-linux-gnueabi/include/c++/4.3.3/bits/stl_iterator.h ****   //@}
 373:/home/romar/CodeSourcery/Sourcery_G++_Lite/bin/../lib/gcc/arm-none-linux-gnueabi/4.3.3/../../../../arm-none-linux-gnueabi/include/c++/4.3.3/bits/stl_iterator.h **** 
 374:/home/romar/CodeSourcery/Sourcery_G++_Lite/bin/../lib/gcc/arm-none-linux-gnueabi/4.3.3/../../../../arm-none-linux-gnueabi/include/c++/4.3.3/bits/stl_iterator.h ****   // 24.4.2.2.1 back_insert_iterator
 375:/home/romar/CodeSourcery/Sourcery_G++_Lite/bin/../lib/gcc/arm-none-linux-gnueabi/4.3.3/../../../../arm-none-linux-gnueabi/include/c++/4.3.3/bits/stl_iterator.h ****   /**
 376:/home/romar/CodeSourcery/Sourcery_G++_Lite/bin/../lib/gcc/arm-none-linux-gnueabi/4.3.3/../../../../arm-none-linux-gnueabi/include/c++/4.3.3/bits/stl_iterator.h ****    *  @brief  Turns assignment into insertion.
 377:/home/romar/CodeSourcery/Sourcery_G++_Lite/bin/../lib/gcc/arm-none-linux-gnueabi/4.3.3/../../../../arm-none-linux-gnueabi/include/c++/4.3.3/bits/stl_iterator.h ****    *
 378:/home/romar/CodeSourcery/Sourcery_G++_Lite/bin/../lib/gcc/arm-none-linux-gnueabi/4.3.3/../../../../arm-none-linux-gnueabi/include/c++/4.3.3/bits/stl_iterator.h ****    *  These are output iterators, constructed from a container-of-T.
 379:/home/romar/CodeSourcery/Sourcery_G++_Lite/bin/../lib/gcc/arm-none-linux-gnueabi/4.3.3/../../../../arm-none-linux-gnueabi/include/c++/4.3.3/bits/stl_iterator.h ****    *  Assigning a T to the iterator appends it to the container using
 380:/home/romar/CodeSourcery/Sourcery_G++_Lite/bin/../lib/gcc/arm-none-linux-gnueabi/4.3.3/../../../../arm-none-linux-gnueabi/include/c++/4.3.3/bits/stl_iterator.h ****    *  push_back.
 381:/home/romar/CodeSourcery/Sourcery_G++_Lite/bin/../lib/gcc/arm-none-linux-gnueabi/4.3.3/../../../../arm-none-linux-gnueabi/include/c++/4.3.3/bits/stl_iterator.h ****    *
 382:/home/romar/CodeSourcery/Sourcery_G++_Lite/bin/../lib/gcc/arm-none-linux-gnueabi/4.3.3/../../../../arm-none-linux-gnueabi/include/c++/4.3.3/bits/stl_iterator.h ****    *  Tip:  Using the back_inserter function to create these iterators can
 383:/home/romar/CodeSourcery/Sourcery_G++_Lite/bin/../lib/gcc/arm-none-linux-gnueabi/4.3.3/../../../../arm-none-linux-gnueabi/include/c++/4.3.3/bits/stl_iterator.h ****    *  save typing.
 384:/home/romar/CodeSourcery/Sourcery_G++_Lite/bin/../lib/gcc/arm-none-linux-gnueabi/4.3.3/../../../../arm-none-linux-gnueabi/include/c++/4.3.3/bits/stl_iterator.h ****   */
 385:/home/romar/CodeSourcery/Sourcery_G++_Lite/bin/../lib/gcc/arm-none-linux-gnueabi/4.3.3/../../../../arm-none-linux-gnueabi/include/c++/4.3.3/bits/stl_iterator.h ****   template<typename _Container>
 386:/home/romar/CodeSourcery/Sourcery_G++_Lite/bin/../lib/gcc/arm-none-linux-gnueabi/4.3.3/../../../../arm-none-linux-gnueabi/include/c++/4.3.3/bits/stl_iterator.h ****     class back_insert_iterator
 387:/home/romar/CodeSourcery/Sourcery_G++_Lite/bin/../lib/gcc/arm-none-linux-gnueabi/4.3.3/../../../../arm-none-linux-gnueabi/include/c++/4.3.3/bits/stl_iterator.h ****     : public iterator<output_iterator_tag, void, void, void, void>
 388:/home/romar/CodeSourcery/Sourcery_G++_Lite/bin/../lib/gcc/arm-none-linux-gnueabi/4.3.3/../../../../arm-none-linux-gnueabi/include/c++/4.3.3/bits/stl_iterator.h ****     {
 389:/home/romar/CodeSourcery/Sourcery_G++_Lite/bin/../lib/gcc/arm-none-linux-gnueabi/4.3.3/../../../../arm-none-linux-gnueabi/include/c++/4.3.3/bits/stl_iterator.h ****     protected:
 390:/home/romar/CodeSourcery/Sourcery_G++_Lite/bin/../lib/gcc/arm-none-linux-gnueabi/4.3.3/../../../../arm-none-linux-gnueabi/include/c++/4.3.3/bits/stl_iterator.h ****       _Container* container;
 391:/home/romar/CodeSourcery/Sourcery_G++_Lite/bin/../lib/gcc/arm-none-linux-gnueabi/4.3.3/../../../../arm-none-linux-gnueabi/include/c++/4.3.3/bits/stl_iterator.h **** 
 392:/home/romar/CodeSourcery/Sourcery_G++_Lite/bin/../lib/gcc/arm-none-linux-gnueabi/4.3.3/../../../../arm-none-linux-gnueabi/include/c++/4.3.3/bits/stl_iterator.h ****     public:
 393:/home/romar/CodeSourcery/Sourcery_G++_Lite/bin/../lib/gcc/arm-none-linux-gnueabi/4.3.3/../../../../arm-none-linux-gnueabi/include/c++/4.3.3/bits/stl_iterator.h ****       /// A nested typedef for the type of whatever container you used.
 394:/home/romar/CodeSourcery/Sourcery_G++_Lite/bin/../lib/gcc/arm-none-linux-gnueabi/4.3.3/../../../../arm-none-linux-gnueabi/include/c++/4.3.3/bits/stl_iterator.h ****       typedef _Container          container_type;
 395:/home/romar/CodeSourcery/Sourcery_G++_Lite/bin/../lib/gcc/arm-none-linux-gnueabi/4.3.3/../../../../arm-none-linux-gnueabi/include/c++/4.3.3/bits/stl_iterator.h **** 
 396:/home/romar/CodeSourcery/Sourcery_G++_Lite/bin/../lib/gcc/arm-none-linux-gnueabi/4.3.3/../../../../arm-none-linux-gnueabi/include/c++/4.3.3/bits/stl_iterator.h ****       /// The only way to create this %iterator is with a container.
 397:/home/romar/CodeSourcery/Sourcery_G++_Lite/bin/../lib/gcc/arm-none-linux-gnueabi/4.3.3/../../../../arm-none-linux-gnueabi/include/c++/4.3.3/bits/stl_iterator.h ****       explicit
 398:/home/romar/CodeSourcery/Sourcery_G++_Lite/bin/../lib/gcc/arm-none-linux-gnueabi/4.3.3/../../../../arm-none-linux-gnueabi/include/c++/4.3.3/bits/stl_iterator.h ****       back_insert_iterator(_Container& __x) : container(&__x) { }
 399:/home/romar/CodeSourcery/Sourcery_G++_Lite/bin/../lib/gcc/arm-none-linux-gnueabi/4.3.3/../../../../arm-none-linux-gnueabi/include/c++/4.3.3/bits/stl_iterator.h **** 
 400:/home/romar/CodeSourcery/Sourcery_G++_Lite/bin/../lib/gcc/arm-none-linux-gnueabi/4.3.3/../../../../arm-none-linux-gnueabi/include/c++/4.3.3/bits/stl_iterator.h ****       /**
 401:/home/romar/CodeSourcery/Sourcery_G++_Lite/bin/../lib/gcc/arm-none-linux-gnueabi/4.3.3/../../../../arm-none-linux-gnueabi/include/c++/4.3.3/bits/stl_iterator.h ****        *  @param  value  An instance of whatever type
 402:/home/romar/CodeSourcery/Sourcery_G++_Lite/bin/../lib/gcc/arm-none-linux-gnueabi/4.3.3/../../../../arm-none-linux-gnueabi/include/c++/4.3.3/bits/stl_iterator.h ****        *                 container_type::const_reference is; presumably a
 403:/home/romar/CodeSourcery/Sourcery_G++_Lite/bin/../lib/gcc/arm-none-linux-gnueabi/4.3.3/../../../../arm-none-linux-gnueabi/include/c++/4.3.3/bits/stl_iterator.h ****        *                 reference-to-const T for container<T>.
 404:/home/romar/CodeSourcery/Sourcery_G++_Lite/bin/../lib/gcc/arm-none-linux-gnueabi/4.3.3/../../../../arm-none-linux-gnueabi/include/c++/4.3.3/bits/stl_iterator.h ****        *  @return  This %iterator, for chained operations.
 405:/home/romar/CodeSourcery/Sourcery_G++_Lite/bin/../lib/gcc/arm-none-linux-gnueabi/4.3.3/../../../../arm-none-linux-gnueabi/include/c++/4.3.3/bits/stl_iterator.h ****        *
 406:/home/romar/CodeSourcery/Sourcery_G++_Lite/bin/../lib/gcc/arm-none-linux-gnueabi/4.3.3/../../../../arm-none-linux-gnueabi/include/c++/4.3.3/bits/stl_iterator.h ****        *  This kind of %iterator doesn't really have a "position" in the
 407:/home/romar/CodeSourcery/Sourcery_G++_Lite/bin/../lib/gcc/arm-none-linux-gnueabi/4.3.3/../../../../arm-none-linux-gnueabi/include/c++/4.3.3/bits/stl_iterator.h ****        *  container (you can think of the position as being permanently at
 408:/home/romar/CodeSourcery/Sourcery_G++_Lite/bin/../lib/gcc/arm-none-linux-gnueabi/4.3.3/../../../../arm-none-linux-gnueabi/include/c++/4.3.3/bits/stl_iterator.h ****        *  the end, if you like).  Assigning a value to the %iterator will
 409:/home/romar/CodeSourcery/Sourcery_G++_Lite/bin/../lib/gcc/arm-none-linux-gnueabi/4.3.3/../../../../arm-none-linux-gnueabi/include/c++/4.3.3/bits/stl_iterator.h ****        *  always append the value to the end of the container.
 410:/home/romar/CodeSourcery/Sourcery_G++_Lite/bin/../lib/gcc/arm-none-linux-gnueabi/4.3.3/../../../../arm-none-linux-gnueabi/include/c++/4.3.3/bits/stl_iterator.h ****       */
 411:/home/romar/CodeSourcery/Sourcery_G++_Lite/bin/../lib/gcc/arm-none-linux-gnueabi/4.3.3/../../../../arm-none-linux-gnueabi/include/c++/4.3.3/bits/stl_iterator.h ****       back_insert_iterator&
 412:/home/romar/CodeSourcery/Sourcery_G++_Lite/bin/../lib/gcc/arm-none-linux-gnueabi/4.3.3/../../../../arm-none-linux-gnueabi/include/c++/4.3.3/bits/stl_iterator.h ****       operator=(typename _Container::const_reference __value)
 413:/home/romar/CodeSourcery/Sourcery_G++_Lite/bin/../lib/gcc/arm-none-linux-gnueabi/4.3.3/../../../../arm-none-linux-gnueabi/include/c++/4.3.3/bits/stl_iterator.h ****       {
 414:/home/romar/CodeSourcery/Sourcery_G++_Lite/bin/../lib/gcc/arm-none-linux-gnueabi/4.3.3/../../../../arm-none-linux-gnueabi/include/c++/4.3.3/bits/stl_iterator.h **** 	container->push_back(__value);
 415:/home/romar/CodeSourcery/Sourcery_G++_Lite/bin/../lib/gcc/arm-none-linux-gnueabi/4.3.3/../../../../arm-none-linux-gnueabi/include/c++/4.3.3/bits/stl_iterator.h **** 	return *this;
 416:/home/romar/CodeSourcery/Sourcery_G++_Lite/bin/../lib/gcc/arm-none-linux-gnueabi/4.3.3/../../../../arm-none-linux-gnueabi/include/c++/4.3.3/bits/stl_iterator.h ****       }
 417:/home/romar/CodeSourcery/Sourcery_G++_Lite/bin/../lib/gcc/arm-none-linux-gnueabi/4.3.3/../../../../arm-none-linux-gnueabi/include/c++/4.3.3/bits/stl_iterator.h **** 
 418:/home/romar/CodeSourcery/Sourcery_G++_Lite/bin/../lib/gcc/arm-none-linux-gnueabi/4.3.3/../../../../arm-none-linux-gnueabi/include/c++/4.3.3/bits/stl_iterator.h **** #ifdef __GXX_EXPERIMENTAL_CXX0X__
 419:/home/romar/CodeSourcery/Sourcery_G++_Lite/bin/../lib/gcc/arm-none-linux-gnueabi/4.3.3/../../../../arm-none-linux-gnueabi/include/c++/4.3.3/bits/stl_iterator.h ****       back_insert_iterator&
 420:/home/romar/CodeSourcery/Sourcery_G++_Lite/bin/../lib/gcc/arm-none-linux-gnueabi/4.3.3/../../../../arm-none-linux-gnueabi/include/c++/4.3.3/bits/stl_iterator.h ****       operator=(typename _Container::value_type&& __value)
 421:/home/romar/CodeSourcery/Sourcery_G++_Lite/bin/../lib/gcc/arm-none-linux-gnueabi/4.3.3/../../../../arm-none-linux-gnueabi/include/c++/4.3.3/bits/stl_iterator.h ****       {
 422:/home/romar/CodeSourcery/Sourcery_G++_Lite/bin/../lib/gcc/arm-none-linux-gnueabi/4.3.3/../../../../arm-none-linux-gnueabi/include/c++/4.3.3/bits/stl_iterator.h **** 	container->push_back(std::move(__value));
 423:/home/romar/CodeSourcery/Sourcery_G++_Lite/bin/../lib/gcc/arm-none-linux-gnueabi/4.3.3/../../../../arm-none-linux-gnueabi/include/c++/4.3.3/bits/stl_iterator.h **** 	return *this;
 424:/home/romar/CodeSourcery/Sourcery_G++_Lite/bin/../lib/gcc/arm-none-linux-gnueabi/4.3.3/../../../../arm-none-linux-gnueabi/include/c++/4.3.3/bits/stl_iterator.h ****       }
 425:/home/romar/CodeSourcery/Sourcery_G++_Lite/bin/../lib/gcc/arm-none-linux-gnueabi/4.3.3/../../../../arm-none-linux-gnueabi/include/c++/4.3.3/bits/stl_iterator.h **** #endif
 426:/home/romar/CodeSourcery/Sourcery_G++_Lite/bin/../lib/gcc/arm-none-linux-gnueabi/4.3.3/../../../../arm-none-linux-gnueabi/include/c++/4.3.3/bits/stl_iterator.h **** 
 427:/home/romar/CodeSourcery/Sourcery_G++_Lite/bin/../lib/gcc/arm-none-linux-gnueabi/4.3.3/../../../../arm-none-linux-gnueabi/include/c++/4.3.3/bits/stl_iterator.h ****       /// Simply returns *this.
 428:/home/romar/CodeSourcery/Sourcery_G++_Lite/bin/../lib/gcc/arm-none-linux-gnueabi/4.3.3/../../../../arm-none-linux-gnueabi/include/c++/4.3.3/bits/stl_iterator.h ****       back_insert_iterator&
 429:/home/romar/CodeSourcery/Sourcery_G++_Lite/bin/../lib/gcc/arm-none-linux-gnueabi/4.3.3/../../../../arm-none-linux-gnueabi/include/c++/4.3.3/bits/stl_iterator.h ****       operator*()
 430:/home/romar/CodeSourcery/Sourcery_G++_Lite/bin/../lib/gcc/arm-none-linux-gnueabi/4.3.3/../../../../arm-none-linux-gnueabi/include/c++/4.3.3/bits/stl_iterator.h ****       { return *this; }
 431:/home/romar/CodeSourcery/Sourcery_G++_Lite/bin/../lib/gcc/arm-none-linux-gnueabi/4.3.3/../../../../arm-none-linux-gnueabi/include/c++/4.3.3/bits/stl_iterator.h **** 
 432:/home/romar/CodeSourcery/Sourcery_G++_Lite/bin/../lib/gcc/arm-none-linux-gnueabi/4.3.3/../../../../arm-none-linux-gnueabi/include/c++/4.3.3/bits/stl_iterator.h ****       /// Simply returns *this.  (This %iterator does not "move".)
 433:/home/romar/CodeSourcery/Sourcery_G++_Lite/bin/../lib/gcc/arm-none-linux-gnueabi/4.3.3/../../../../arm-none-linux-gnueabi/include/c++/4.3.3/bits/stl_iterator.h ****       back_insert_iterator&
 434:/home/romar/CodeSourcery/Sourcery_G++_Lite/bin/../lib/gcc/arm-none-linux-gnueabi/4.3.3/../../../../arm-none-linux-gnueabi/include/c++/4.3.3/bits/stl_iterator.h ****       operator++()
 435:/home/romar/CodeSourcery/Sourcery_G++_Lite/bin/../lib/gcc/arm-none-linux-gnueabi/4.3.3/../../../../arm-none-linux-gnueabi/include/c++/4.3.3/bits/stl_iterator.h ****       { return *this; }
 436:/home/romar/CodeSourcery/Sourcery_G++_Lite/bin/../lib/gcc/arm-none-linux-gnueabi/4.3.3/../../../../arm-none-linux-gnueabi/include/c++/4.3.3/bits/stl_iterator.h **** 
 437:/home/romar/CodeSourcery/Sourcery_G++_Lite/bin/../lib/gcc/arm-none-linux-gnueabi/4.3.3/../../../../arm-none-linux-gnueabi/include/c++/4.3.3/bits/stl_iterator.h ****       /// Simply returns *this.  (This %iterator does not "move".)
 438:/home/romar/CodeSourcery/Sourcery_G++_Lite/bin/../lib/gcc/arm-none-linux-gnueabi/4.3.3/../../../../arm-none-linux-gnueabi/include/c++/4.3.3/bits/stl_iterator.h ****       back_insert_iterator
 439:/home/romar/CodeSourcery/Sourcery_G++_Lite/bin/../lib/gcc/arm-none-linux-gnueabi/4.3.3/../../../../arm-none-linux-gnueabi/include/c++/4.3.3/bits/stl_iterator.h ****       operator++(int)
 440:/home/romar/CodeSourcery/Sourcery_G++_Lite/bin/../lib/gcc/arm-none-linux-gnueabi/4.3.3/../../../../arm-none-linux-gnueabi/include/c++/4.3.3/bits/stl_iterator.h ****       { return *this; }
 441:/home/romar/CodeSourcery/Sourcery_G++_Lite/bin/../lib/gcc/arm-none-linux-gnueabi/4.3.3/../../../../arm-none-linux-gnueabi/include/c++/4.3.3/bits/stl_iterator.h ****     };
 442:/home/romar/CodeSourcery/Sourcery_G++_Lite/bin/../lib/gcc/arm-none-linux-gnueabi/4.3.3/../../../../arm-none-linux-gnueabi/include/c++/4.3.3/bits/stl_iterator.h **** 
 443:/home/romar/CodeSourcery/Sourcery_G++_Lite/bin/../lib/gcc/arm-none-linux-gnueabi/4.3.3/../../../../arm-none-linux-gnueabi/include/c++/4.3.3/bits/stl_iterator.h ****   /**
 444:/home/romar/CodeSourcery/Sourcery_G++_Lite/bin/../lib/gcc/arm-none-linux-gnueabi/4.3.3/../../../../arm-none-linux-gnueabi/include/c++/4.3.3/bits/stl_iterator.h ****    *  @param  x  A container of arbitrary type.
 445:/home/romar/CodeSourcery/Sourcery_G++_Lite/bin/../lib/gcc/arm-none-linux-gnueabi/4.3.3/../../../../arm-none-linux-gnueabi/include/c++/4.3.3/bits/stl_iterator.h ****    *  @return  An instance of back_insert_iterator working on @p x.
 446:/home/romar/CodeSourcery/Sourcery_G++_Lite/bin/../lib/gcc/arm-none-linux-gnueabi/4.3.3/../../../../arm-none-linux-gnueabi/include/c++/4.3.3/bits/stl_iterator.h ****    *
 447:/home/romar/CodeSourcery/Sourcery_G++_Lite/bin/../lib/gcc/arm-none-linux-gnueabi/4.3.3/../../../../arm-none-linux-gnueabi/include/c++/4.3.3/bits/stl_iterator.h ****    *  This wrapper function helps in creating back_insert_iterator instances.
 448:/home/romar/CodeSourcery/Sourcery_G++_Lite/bin/../lib/gcc/arm-none-linux-gnueabi/4.3.3/../../../../arm-none-linux-gnueabi/include/c++/4.3.3/bits/stl_iterator.h ****    *  Typing the name of the %iterator requires knowing the precise full
 449:/home/romar/CodeSourcery/Sourcery_G++_Lite/bin/../lib/gcc/arm-none-linux-gnueabi/4.3.3/../../../../arm-none-linux-gnueabi/include/c++/4.3.3/bits/stl_iterator.h ****    *  type of the container, which can be tedious and impedes generic
 450:/home/romar/CodeSourcery/Sourcery_G++_Lite/bin/../lib/gcc/arm-none-linux-gnueabi/4.3.3/../../../../arm-none-linux-gnueabi/include/c++/4.3.3/bits/stl_iterator.h ****    *  programming.  Using this function lets you take advantage of automatic
 451:/home/romar/CodeSourcery/Sourcery_G++_Lite/bin/../lib/gcc/arm-none-linux-gnueabi/4.3.3/../../../../arm-none-linux-gnueabi/include/c++/4.3.3/bits/stl_iterator.h ****    *  template parameter deduction, making the compiler match the correct
 452:/home/romar/CodeSourcery/Sourcery_G++_Lite/bin/../lib/gcc/arm-none-linux-gnueabi/4.3.3/../../../../arm-none-linux-gnueabi/include/c++/4.3.3/bits/stl_iterator.h ****    *  types for you.
 453:/home/romar/CodeSourcery/Sourcery_G++_Lite/bin/../lib/gcc/arm-none-linux-gnueabi/4.3.3/../../../../arm-none-linux-gnueabi/include/c++/4.3.3/bits/stl_iterator.h ****   */
 454:/home/romar/CodeSourcery/Sourcery_G++_Lite/bin/../lib/gcc/arm-none-linux-gnueabi/4.3.3/../../../../arm-none-linux-gnueabi/include/c++/4.3.3/bits/stl_iterator.h ****   template<typename _Container>
 455:/home/romar/CodeSourcery/Sourcery_G++_Lite/bin/../lib/gcc/arm-none-linux-gnueabi/4.3.3/../../../../arm-none-linux-gnueabi/include/c++/4.3.3/bits/stl_iterator.h ****     inline back_insert_iterator<_Container>
 456:/home/romar/CodeSourcery/Sourcery_G++_Lite/bin/../lib/gcc/arm-none-linux-gnueabi/4.3.3/../../../../arm-none-linux-gnueabi/include/c++/4.3.3/bits/stl_iterator.h ****     back_inserter(_Container& __x)
 457:/home/romar/CodeSourcery/Sourcery_G++_Lite/bin/../lib/gcc/arm-none-linux-gnueabi/4.3.3/../../../../arm-none-linux-gnueabi/include/c++/4.3.3/bits/stl_iterator.h ****     { return back_insert_iterator<_Container>(__x); }
 458:/home/romar/CodeSourcery/Sourcery_G++_Lite/bin/../lib/gcc/arm-none-linux-gnueabi/4.3.3/../../../../arm-none-linux-gnueabi/include/c++/4.3.3/bits/stl_iterator.h **** 
 459:/home/romar/CodeSourcery/Sourcery_G++_Lite/bin/../lib/gcc/arm-none-linux-gnueabi/4.3.3/../../../../arm-none-linux-gnueabi/include/c++/4.3.3/bits/stl_iterator.h ****   /**
 460:/home/romar/CodeSourcery/Sourcery_G++_Lite/bin/../lib/gcc/arm-none-linux-gnueabi/4.3.3/../../../../arm-none-linux-gnueabi/include/c++/4.3.3/bits/stl_iterator.h ****    *  @brief  Turns assignment into insertion.
 461:/home/romar/CodeSourcery/Sourcery_G++_Lite/bin/../lib/gcc/arm-none-linux-gnueabi/4.3.3/../../../../arm-none-linux-gnueabi/include/c++/4.3.3/bits/stl_iterator.h ****    *
 462:/home/romar/CodeSourcery/Sourcery_G++_Lite/bin/../lib/gcc/arm-none-linux-gnueabi/4.3.3/../../../../arm-none-linux-gnueabi/include/c++/4.3.3/bits/stl_iterator.h ****    *  These are output iterators, constructed from a container-of-T.
 463:/home/romar/CodeSourcery/Sourcery_G++_Lite/bin/../lib/gcc/arm-none-linux-gnueabi/4.3.3/../../../../arm-none-linux-gnueabi/include/c++/4.3.3/bits/stl_iterator.h ****    *  Assigning a T to the iterator prepends it to the container using
 464:/home/romar/CodeSourcery/Sourcery_G++_Lite/bin/../lib/gcc/arm-none-linux-gnueabi/4.3.3/../../../../arm-none-linux-gnueabi/include/c++/4.3.3/bits/stl_iterator.h ****    *  push_front.
 465:/home/romar/CodeSourcery/Sourcery_G++_Lite/bin/../lib/gcc/arm-none-linux-gnueabi/4.3.3/../../../../arm-none-linux-gnueabi/include/c++/4.3.3/bits/stl_iterator.h ****    *
 466:/home/romar/CodeSourcery/Sourcery_G++_Lite/bin/../lib/gcc/arm-none-linux-gnueabi/4.3.3/../../../../arm-none-linux-gnueabi/include/c++/4.3.3/bits/stl_iterator.h ****    *  Tip:  Using the front_inserter function to create these iterators can
 467:/home/romar/CodeSourcery/Sourcery_G++_Lite/bin/../lib/gcc/arm-none-linux-gnueabi/4.3.3/../../../../arm-none-linux-gnueabi/include/c++/4.3.3/bits/stl_iterator.h ****    *  save typing.
 468:/home/romar/CodeSourcery/Sourcery_G++_Lite/bin/../lib/gcc/arm-none-linux-gnueabi/4.3.3/../../../../arm-none-linux-gnueabi/include/c++/4.3.3/bits/stl_iterator.h ****   */
 469:/home/romar/CodeSourcery/Sourcery_G++_Lite/bin/../lib/gcc/arm-none-linux-gnueabi/4.3.3/../../../../arm-none-linux-gnueabi/include/c++/4.3.3/bits/stl_iterator.h ****   template<typename _Container>
 470:/home/romar/CodeSourcery/Sourcery_G++_Lite/bin/../lib/gcc/arm-none-linux-gnueabi/4.3.3/../../../../arm-none-linux-gnueabi/include/c++/4.3.3/bits/stl_iterator.h ****     class front_insert_iterator
 471:/home/romar/CodeSourcery/Sourcery_G++_Lite/bin/../lib/gcc/arm-none-linux-gnueabi/4.3.3/../../../../arm-none-linux-gnueabi/include/c++/4.3.3/bits/stl_iterator.h ****     : public iterator<output_iterator_tag, void, void, void, void>
 472:/home/romar/CodeSourcery/Sourcery_G++_Lite/bin/../lib/gcc/arm-none-linux-gnueabi/4.3.3/../../../../arm-none-linux-gnueabi/include/c++/4.3.3/bits/stl_iterator.h ****     {
 473:/home/romar/CodeSourcery/Sourcery_G++_Lite/bin/../lib/gcc/arm-none-linux-gnueabi/4.3.3/../../../../arm-none-linux-gnueabi/include/c++/4.3.3/bits/stl_iterator.h ****     protected:
 474:/home/romar/CodeSourcery/Sourcery_G++_Lite/bin/../lib/gcc/arm-none-linux-gnueabi/4.3.3/../../../../arm-none-linux-gnueabi/include/c++/4.3.3/bits/stl_iterator.h ****       _Container* container;
 475:/home/romar/CodeSourcery/Sourcery_G++_Lite/bin/../lib/gcc/arm-none-linux-gnueabi/4.3.3/../../../../arm-none-linux-gnueabi/include/c++/4.3.3/bits/stl_iterator.h **** 
 476:/home/romar/CodeSourcery/Sourcery_G++_Lite/bin/../lib/gcc/arm-none-linux-gnueabi/4.3.3/../../../../arm-none-linux-gnueabi/include/c++/4.3.3/bits/stl_iterator.h ****     public:
 477:/home/romar/CodeSourcery/Sourcery_G++_Lite/bin/../lib/gcc/arm-none-linux-gnueabi/4.3.3/../../../../arm-none-linux-gnueabi/include/c++/4.3.3/bits/stl_iterator.h ****       /// A nested typedef for the type of whatever container you used.
 478:/home/romar/CodeSourcery/Sourcery_G++_Lite/bin/../lib/gcc/arm-none-linux-gnueabi/4.3.3/../../../../arm-none-linux-gnueabi/include/c++/4.3.3/bits/stl_iterator.h ****       typedef _Container          container_type;
 479:/home/romar/CodeSourcery/Sourcery_G++_Lite/bin/../lib/gcc/arm-none-linux-gnueabi/4.3.3/../../../../arm-none-linux-gnueabi/include/c++/4.3.3/bits/stl_iterator.h **** 
 480:/home/romar/CodeSourcery/Sourcery_G++_Lite/bin/../lib/gcc/arm-none-linux-gnueabi/4.3.3/../../../../arm-none-linux-gnueabi/include/c++/4.3.3/bits/stl_iterator.h ****       /// The only way to create this %iterator is with a container.
 481:/home/romar/CodeSourcery/Sourcery_G++_Lite/bin/../lib/gcc/arm-none-linux-gnueabi/4.3.3/../../../../arm-none-linux-gnueabi/include/c++/4.3.3/bits/stl_iterator.h ****       explicit front_insert_iterator(_Container& __x) : container(&__x) { }
 482:/home/romar/CodeSourcery/Sourcery_G++_Lite/bin/../lib/gcc/arm-none-linux-gnueabi/4.3.3/../../../../arm-none-linux-gnueabi/include/c++/4.3.3/bits/stl_iterator.h **** 
 483:/home/romar/CodeSourcery/Sourcery_G++_Lite/bin/../lib/gcc/arm-none-linux-gnueabi/4.3.3/../../../../arm-none-linux-gnueabi/include/c++/4.3.3/bits/stl_iterator.h ****       /**
 484:/home/romar/CodeSourcery/Sourcery_G++_Lite/bin/../lib/gcc/arm-none-linux-gnueabi/4.3.3/../../../../arm-none-linux-gnueabi/include/c++/4.3.3/bits/stl_iterator.h ****        *  @param  value  An instance of whatever type
 485:/home/romar/CodeSourcery/Sourcery_G++_Lite/bin/../lib/gcc/arm-none-linux-gnueabi/4.3.3/../../../../arm-none-linux-gnueabi/include/c++/4.3.3/bits/stl_iterator.h ****        *                 container_type::const_reference is; presumably a
 486:/home/romar/CodeSourcery/Sourcery_G++_Lite/bin/../lib/gcc/arm-none-linux-gnueabi/4.3.3/../../../../arm-none-linux-gnueabi/include/c++/4.3.3/bits/stl_iterator.h ****        *                 reference-to-const T for container<T>.
 487:/home/romar/CodeSourcery/Sourcery_G++_Lite/bin/../lib/gcc/arm-none-linux-gnueabi/4.3.3/../../../../arm-none-linux-gnueabi/include/c++/4.3.3/bits/stl_iterator.h ****        *  @return  This %iterator, for chained operations.
 488:/home/romar/CodeSourcery/Sourcery_G++_Lite/bin/../lib/gcc/arm-none-linux-gnueabi/4.3.3/../../../../arm-none-linux-gnueabi/include/c++/4.3.3/bits/stl_iterator.h ****        *
 489:/home/romar/CodeSourcery/Sourcery_G++_Lite/bin/../lib/gcc/arm-none-linux-gnueabi/4.3.3/../../../../arm-none-linux-gnueabi/include/c++/4.3.3/bits/stl_iterator.h ****        *  This kind of %iterator doesn't really have a "position" in the
 490:/home/romar/CodeSourcery/Sourcery_G++_Lite/bin/../lib/gcc/arm-none-linux-gnueabi/4.3.3/../../../../arm-none-linux-gnueabi/include/c++/4.3.3/bits/stl_iterator.h ****        *  container (you can think of the position as being permanently at
 491:/home/romar/CodeSourcery/Sourcery_G++_Lite/bin/../lib/gcc/arm-none-linux-gnueabi/4.3.3/../../../../arm-none-linux-gnueabi/include/c++/4.3.3/bits/stl_iterator.h ****        *  the front, if you like).  Assigning a value to the %iterator will
 492:/home/romar/CodeSourcery/Sourcery_G++_Lite/bin/../lib/gcc/arm-none-linux-gnueabi/4.3.3/../../../../arm-none-linux-gnueabi/include/c++/4.3.3/bits/stl_iterator.h ****        *  always prepend the value to the front of the container.
 493:/home/romar/CodeSourcery/Sourcery_G++_Lite/bin/../lib/gcc/arm-none-linux-gnueabi/4.3.3/../../../../arm-none-linux-gnueabi/include/c++/4.3.3/bits/stl_iterator.h ****       */
 494:/home/romar/CodeSourcery/Sourcery_G++_Lite/bin/../lib/gcc/arm-none-linux-gnueabi/4.3.3/../../../../arm-none-linux-gnueabi/include/c++/4.3.3/bits/stl_iterator.h ****       front_insert_iterator&
 495:/home/romar/CodeSourcery/Sourcery_G++_Lite/bin/../lib/gcc/arm-none-linux-gnueabi/4.3.3/../../../../arm-none-linux-gnueabi/include/c++/4.3.3/bits/stl_iterator.h ****       operator=(typename _Container::const_reference __value)
 496:/home/romar/CodeSourcery/Sourcery_G++_Lite/bin/../lib/gcc/arm-none-linux-gnueabi/4.3.3/../../../../arm-none-linux-gnueabi/include/c++/4.3.3/bits/stl_iterator.h ****       {
 497:/home/romar/CodeSourcery/Sourcery_G++_Lite/bin/../lib/gcc/arm-none-linux-gnueabi/4.3.3/../../../../arm-none-linux-gnueabi/include/c++/4.3.3/bits/stl_iterator.h **** 	container->push_front(__value);
 498:/home/romar/CodeSourcery/Sourcery_G++_Lite/bin/../lib/gcc/arm-none-linux-gnueabi/4.3.3/../../../../arm-none-linux-gnueabi/include/c++/4.3.3/bits/stl_iterator.h **** 	return *this;
 499:/home/romar/CodeSourcery/Sourcery_G++_Lite/bin/../lib/gcc/arm-none-linux-gnueabi/4.3.3/../../../../arm-none-linux-gnueabi/include/c++/4.3.3/bits/stl_iterator.h ****       }
 500:/home/romar/CodeSourcery/Sourcery_G++_Lite/bin/../lib/gcc/arm-none-linux-gnueabi/4.3.3/../../../../arm-none-linux-gnueabi/include/c++/4.3.3/bits/stl_iterator.h **** 
 501:/home/romar/CodeSourcery/Sourcery_G++_Lite/bin/../lib/gcc/arm-none-linux-gnueabi/4.3.3/../../../../arm-none-linux-gnueabi/include/c++/4.3.3/bits/stl_iterator.h **** #ifdef __GXX_EXPERIMENTAL_CXX0X__
 502:/home/romar/CodeSourcery/Sourcery_G++_Lite/bin/../lib/gcc/arm-none-linux-gnueabi/4.3.3/../../../../arm-none-linux-gnueabi/include/c++/4.3.3/bits/stl_iterator.h ****       front_insert_iterator&
 503:/home/romar/CodeSourcery/Sourcery_G++_Lite/bin/../lib/gcc/arm-none-linux-gnueabi/4.3.3/../../../../arm-none-linux-gnueabi/include/c++/4.3.3/bits/stl_iterator.h ****       operator=(typename _Container::value_type&& __value)
 504:/home/romar/CodeSourcery/Sourcery_G++_Lite/bin/../lib/gcc/arm-none-linux-gnueabi/4.3.3/../../../../arm-none-linux-gnueabi/include/c++/4.3.3/bits/stl_iterator.h ****       {
 505:/home/romar/CodeSourcery/Sourcery_G++_Lite/bin/../lib/gcc/arm-none-linux-gnueabi/4.3.3/../../../../arm-none-linux-gnueabi/include/c++/4.3.3/bits/stl_iterator.h **** 	container->push_front(std::move(__value));
 506:/home/romar/CodeSourcery/Sourcery_G++_Lite/bin/../lib/gcc/arm-none-linux-gnueabi/4.3.3/../../../../arm-none-linux-gnueabi/include/c++/4.3.3/bits/stl_iterator.h **** 	return *this;
 507:/home/romar/CodeSourcery/Sourcery_G++_Lite/bin/../lib/gcc/arm-none-linux-gnueabi/4.3.3/../../../../arm-none-linux-gnueabi/include/c++/4.3.3/bits/stl_iterator.h ****       }
 508:/home/romar/CodeSourcery/Sourcery_G++_Lite/bin/../lib/gcc/arm-none-linux-gnueabi/4.3.3/../../../../arm-none-linux-gnueabi/include/c++/4.3.3/bits/stl_iterator.h **** #endif
 509:/home/romar/CodeSourcery/Sourcery_G++_Lite/bin/../lib/gcc/arm-none-linux-gnueabi/4.3.3/../../../../arm-none-linux-gnueabi/include/c++/4.3.3/bits/stl_iterator.h **** 
 510:/home/romar/CodeSourcery/Sourcery_G++_Lite/bin/../lib/gcc/arm-none-linux-gnueabi/4.3.3/../../../../arm-none-linux-gnueabi/include/c++/4.3.3/bits/stl_iterator.h ****       /// Simply returns *this.
 511:/home/romar/CodeSourcery/Sourcery_G++_Lite/bin/../lib/gcc/arm-none-linux-gnueabi/4.3.3/../../../../arm-none-linux-gnueabi/include/c++/4.3.3/bits/stl_iterator.h ****       front_insert_iterator&
 512:/home/romar/CodeSourcery/Sourcery_G++_Lite/bin/../lib/gcc/arm-none-linux-gnueabi/4.3.3/../../../../arm-none-linux-gnueabi/include/c++/4.3.3/bits/stl_iterator.h ****       operator*()
 513:/home/romar/CodeSourcery/Sourcery_G++_Lite/bin/../lib/gcc/arm-none-linux-gnueabi/4.3.3/../../../../arm-none-linux-gnueabi/include/c++/4.3.3/bits/stl_iterator.h ****       { return *this; }
 514:/home/romar/CodeSourcery/Sourcery_G++_Lite/bin/../lib/gcc/arm-none-linux-gnueabi/4.3.3/../../../../arm-none-linux-gnueabi/include/c++/4.3.3/bits/stl_iterator.h **** 
 515:/home/romar/CodeSourcery/Sourcery_G++_Lite/bin/../lib/gcc/arm-none-linux-gnueabi/4.3.3/../../../../arm-none-linux-gnueabi/include/c++/4.3.3/bits/stl_iterator.h ****       /// Simply returns *this.  (This %iterator does not "move".)
 516:/home/romar/CodeSourcery/Sourcery_G++_Lite/bin/../lib/gcc/arm-none-linux-gnueabi/4.3.3/../../../../arm-none-linux-gnueabi/include/c++/4.3.3/bits/stl_iterator.h ****       front_insert_iterator&
 517:/home/romar/CodeSourcery/Sourcery_G++_Lite/bin/../lib/gcc/arm-none-linux-gnueabi/4.3.3/../../../../arm-none-linux-gnueabi/include/c++/4.3.3/bits/stl_iterator.h ****       operator++()
 518:/home/romar/CodeSourcery/Sourcery_G++_Lite/bin/../lib/gcc/arm-none-linux-gnueabi/4.3.3/../../../../arm-none-linux-gnueabi/include/c++/4.3.3/bits/stl_iterator.h ****       { return *this; }
 519:/home/romar/CodeSourcery/Sourcery_G++_Lite/bin/../lib/gcc/arm-none-linux-gnueabi/4.3.3/../../../../arm-none-linux-gnueabi/include/c++/4.3.3/bits/stl_iterator.h **** 
 520:/home/romar/CodeSourcery/Sourcery_G++_Lite/bin/../lib/gcc/arm-none-linux-gnueabi/4.3.3/../../../../arm-none-linux-gnueabi/include/c++/4.3.3/bits/stl_iterator.h ****       /// Simply returns *this.  (This %iterator does not "move".)
 521:/home/romar/CodeSourcery/Sourcery_G++_Lite/bin/../lib/gcc/arm-none-linux-gnueabi/4.3.3/../../../../arm-none-linux-gnueabi/include/c++/4.3.3/bits/stl_iterator.h ****       front_insert_iterator
 522:/home/romar/CodeSourcery/Sourcery_G++_Lite/bin/../lib/gcc/arm-none-linux-gnueabi/4.3.3/../../../../arm-none-linux-gnueabi/include/c++/4.3.3/bits/stl_iterator.h ****       operator++(int)
 523:/home/romar/CodeSourcery/Sourcery_G++_Lite/bin/../lib/gcc/arm-none-linux-gnueabi/4.3.3/../../../../arm-none-linux-gnueabi/include/c++/4.3.3/bits/stl_iterator.h ****       { return *this; }
 524:/home/romar/CodeSourcery/Sourcery_G++_Lite/bin/../lib/gcc/arm-none-linux-gnueabi/4.3.3/../../../../arm-none-linux-gnueabi/include/c++/4.3.3/bits/stl_iterator.h ****     };
 525:/home/romar/CodeSourcery/Sourcery_G++_Lite/bin/../lib/gcc/arm-none-linux-gnueabi/4.3.3/../../../../arm-none-linux-gnueabi/include/c++/4.3.3/bits/stl_iterator.h **** 
 526:/home/romar/CodeSourcery/Sourcery_G++_Lite/bin/../lib/gcc/arm-none-linux-gnueabi/4.3.3/../../../../arm-none-linux-gnueabi/include/c++/4.3.3/bits/stl_iterator.h ****   /**
 527:/home/romar/CodeSourcery/Sourcery_G++_Lite/bin/../lib/gcc/arm-none-linux-gnueabi/4.3.3/../../../../arm-none-linux-gnueabi/include/c++/4.3.3/bits/stl_iterator.h ****    *  @param  x  A container of arbitrary type.
 528:/home/romar/CodeSourcery/Sourcery_G++_Lite/bin/../lib/gcc/arm-none-linux-gnueabi/4.3.3/../../../../arm-none-linux-gnueabi/include/c++/4.3.3/bits/stl_iterator.h ****    *  @return  An instance of front_insert_iterator working on @p x.
 529:/home/romar/CodeSourcery/Sourcery_G++_Lite/bin/../lib/gcc/arm-none-linux-gnueabi/4.3.3/../../../../arm-none-linux-gnueabi/include/c++/4.3.3/bits/stl_iterator.h ****    *
 530:/home/romar/CodeSourcery/Sourcery_G++_Lite/bin/../lib/gcc/arm-none-linux-gnueabi/4.3.3/../../../../arm-none-linux-gnueabi/include/c++/4.3.3/bits/stl_iterator.h ****    *  This wrapper function helps in creating front_insert_iterator instances.
 531:/home/romar/CodeSourcery/Sourcery_G++_Lite/bin/../lib/gcc/arm-none-linux-gnueabi/4.3.3/../../../../arm-none-linux-gnueabi/include/c++/4.3.3/bits/stl_iterator.h ****    *  Typing the name of the %iterator requires knowing the precise full
 532:/home/romar/CodeSourcery/Sourcery_G++_Lite/bin/../lib/gcc/arm-none-linux-gnueabi/4.3.3/../../../../arm-none-linux-gnueabi/include/c++/4.3.3/bits/stl_iterator.h ****    *  type of the container, which can be tedious and impedes generic
 533:/home/romar/CodeSourcery/Sourcery_G++_Lite/bin/../lib/gcc/arm-none-linux-gnueabi/4.3.3/../../../../arm-none-linux-gnueabi/include/c++/4.3.3/bits/stl_iterator.h ****    *  programming.  Using this function lets you take advantage of automatic
 534:/home/romar/CodeSourcery/Sourcery_G++_Lite/bin/../lib/gcc/arm-none-linux-gnueabi/4.3.3/../../../../arm-none-linux-gnueabi/include/c++/4.3.3/bits/stl_iterator.h ****    *  template parameter deduction, making the compiler match the correct
 535:/home/romar/CodeSourcery/Sourcery_G++_Lite/bin/../lib/gcc/arm-none-linux-gnueabi/4.3.3/../../../../arm-none-linux-gnueabi/include/c++/4.3.3/bits/stl_iterator.h ****    *  types for you.
 536:/home/romar/CodeSourcery/Sourcery_G++_Lite/bin/../lib/gcc/arm-none-linux-gnueabi/4.3.3/../../../../arm-none-linux-gnueabi/include/c++/4.3.3/bits/stl_iterator.h ****   */
 537:/home/romar/CodeSourcery/Sourcery_G++_Lite/bin/../lib/gcc/arm-none-linux-gnueabi/4.3.3/../../../../arm-none-linux-gnueabi/include/c++/4.3.3/bits/stl_iterator.h ****   template<typename _Container>
 538:/home/romar/CodeSourcery/Sourcery_G++_Lite/bin/../lib/gcc/arm-none-linux-gnueabi/4.3.3/../../../../arm-none-linux-gnueabi/include/c++/4.3.3/bits/stl_iterator.h ****     inline front_insert_iterator<_Container>
 539:/home/romar/CodeSourcery/Sourcery_G++_Lite/bin/../lib/gcc/arm-none-linux-gnueabi/4.3.3/../../../../arm-none-linux-gnueabi/include/c++/4.3.3/bits/stl_iterator.h ****     front_inserter(_Container& __x)
 540:/home/romar/CodeSourcery/Sourcery_G++_Lite/bin/../lib/gcc/arm-none-linux-gnueabi/4.3.3/../../../../arm-none-linux-gnueabi/include/c++/4.3.3/bits/stl_iterator.h ****     { return front_insert_iterator<_Container>(__x); }
 541:/home/romar/CodeSourcery/Sourcery_G++_Lite/bin/../lib/gcc/arm-none-linux-gnueabi/4.3.3/../../../../arm-none-linux-gnueabi/include/c++/4.3.3/bits/stl_iterator.h **** 
 542:/home/romar/CodeSourcery/Sourcery_G++_Lite/bin/../lib/gcc/arm-none-linux-gnueabi/4.3.3/../../../../arm-none-linux-gnueabi/include/c++/4.3.3/bits/stl_iterator.h ****   /**
 543:/home/romar/CodeSourcery/Sourcery_G++_Lite/bin/../lib/gcc/arm-none-linux-gnueabi/4.3.3/../../../../arm-none-linux-gnueabi/include/c++/4.3.3/bits/stl_iterator.h ****    *  @brief  Turns assignment into insertion.
 544:/home/romar/CodeSourcery/Sourcery_G++_Lite/bin/../lib/gcc/arm-none-linux-gnueabi/4.3.3/../../../../arm-none-linux-gnueabi/include/c++/4.3.3/bits/stl_iterator.h ****    *
 545:/home/romar/CodeSourcery/Sourcery_G++_Lite/bin/../lib/gcc/arm-none-linux-gnueabi/4.3.3/../../../../arm-none-linux-gnueabi/include/c++/4.3.3/bits/stl_iterator.h ****    *  These are output iterators, constructed from a container-of-T.
 546:/home/romar/CodeSourcery/Sourcery_G++_Lite/bin/../lib/gcc/arm-none-linux-gnueabi/4.3.3/../../../../arm-none-linux-gnueabi/include/c++/4.3.3/bits/stl_iterator.h ****    *  Assigning a T to the iterator inserts it in the container at the
 547:/home/romar/CodeSourcery/Sourcery_G++_Lite/bin/../lib/gcc/arm-none-linux-gnueabi/4.3.3/../../../../arm-none-linux-gnueabi/include/c++/4.3.3/bits/stl_iterator.h ****    *  %iterator's position, rather than overwriting the value at that
 548:/home/romar/CodeSourcery/Sourcery_G++_Lite/bin/../lib/gcc/arm-none-linux-gnueabi/4.3.3/../../../../arm-none-linux-gnueabi/include/c++/4.3.3/bits/stl_iterator.h ****    *  position.
 549:/home/romar/CodeSourcery/Sourcery_G++_Lite/bin/../lib/gcc/arm-none-linux-gnueabi/4.3.3/../../../../arm-none-linux-gnueabi/include/c++/4.3.3/bits/stl_iterator.h ****    *
 550:/home/romar/CodeSourcery/Sourcery_G++_Lite/bin/../lib/gcc/arm-none-linux-gnueabi/4.3.3/../../../../arm-none-linux-gnueabi/include/c++/4.3.3/bits/stl_iterator.h ****    *  (Sequences will actually insert a @e copy of the value before the
 551:/home/romar/CodeSourcery/Sourcery_G++_Lite/bin/../lib/gcc/arm-none-linux-gnueabi/4.3.3/../../../../arm-none-linux-gnueabi/include/c++/4.3.3/bits/stl_iterator.h ****    *  %iterator's position.)
 552:/home/romar/CodeSourcery/Sourcery_G++_Lite/bin/../lib/gcc/arm-none-linux-gnueabi/4.3.3/../../../../arm-none-linux-gnueabi/include/c++/4.3.3/bits/stl_iterator.h ****    *
 553:/home/romar/CodeSourcery/Sourcery_G++_Lite/bin/../lib/gcc/arm-none-linux-gnueabi/4.3.3/../../../../arm-none-linux-gnueabi/include/c++/4.3.3/bits/stl_iterator.h ****    *  Tip:  Using the inserter function to create these iterators can
 554:/home/romar/CodeSourcery/Sourcery_G++_Lite/bin/../lib/gcc/arm-none-linux-gnueabi/4.3.3/../../../../arm-none-linux-gnueabi/include/c++/4.3.3/bits/stl_iterator.h ****    *  save typing.
 555:/home/romar/CodeSourcery/Sourcery_G++_Lite/bin/../lib/gcc/arm-none-linux-gnueabi/4.3.3/../../../../arm-none-linux-gnueabi/include/c++/4.3.3/bits/stl_iterator.h ****   */
 556:/home/romar/CodeSourcery/Sourcery_G++_Lite/bin/../lib/gcc/arm-none-linux-gnueabi/4.3.3/../../../../arm-none-linux-gnueabi/include/c++/4.3.3/bits/stl_iterator.h ****   template<typename _Container>
 557:/home/romar/CodeSourcery/Sourcery_G++_Lite/bin/../lib/gcc/arm-none-linux-gnueabi/4.3.3/../../../../arm-none-linux-gnueabi/include/c++/4.3.3/bits/stl_iterator.h ****     class insert_iterator
 558:/home/romar/CodeSourcery/Sourcery_G++_Lite/bin/../lib/gcc/arm-none-linux-gnueabi/4.3.3/../../../../arm-none-linux-gnueabi/include/c++/4.3.3/bits/stl_iterator.h ****     : public iterator<output_iterator_tag, void, void, void, void>
 559:/home/romar/CodeSourcery/Sourcery_G++_Lite/bin/../lib/gcc/arm-none-linux-gnueabi/4.3.3/../../../../arm-none-linux-gnueabi/include/c++/4.3.3/bits/stl_iterator.h ****     {
 560:/home/romar/CodeSourcery/Sourcery_G++_Lite/bin/../lib/gcc/arm-none-linux-gnueabi/4.3.3/../../../../arm-none-linux-gnueabi/include/c++/4.3.3/bits/stl_iterator.h ****     protected:
 561:/home/romar/CodeSourcery/Sourcery_G++_Lite/bin/../lib/gcc/arm-none-linux-gnueabi/4.3.3/../../../../arm-none-linux-gnueabi/include/c++/4.3.3/bits/stl_iterator.h ****       _Container* container;
 562:/home/romar/CodeSourcery/Sourcery_G++_Lite/bin/../lib/gcc/arm-none-linux-gnueabi/4.3.3/../../../../arm-none-linux-gnueabi/include/c++/4.3.3/bits/stl_iterator.h ****       typename _Container::iterator iter;
 563:/home/romar/CodeSourcery/Sourcery_G++_Lite/bin/../lib/gcc/arm-none-linux-gnueabi/4.3.3/../../../../arm-none-linux-gnueabi/include/c++/4.3.3/bits/stl_iterator.h **** 
 564:/home/romar/CodeSourcery/Sourcery_G++_Lite/bin/../lib/gcc/arm-none-linux-gnueabi/4.3.3/../../../../arm-none-linux-gnueabi/include/c++/4.3.3/bits/stl_iterator.h ****     public:
 565:/home/romar/CodeSourcery/Sourcery_G++_Lite/bin/../lib/gcc/arm-none-linux-gnueabi/4.3.3/../../../../arm-none-linux-gnueabi/include/c++/4.3.3/bits/stl_iterator.h ****       /// A nested typedef for the type of whatever container you used.
 566:/home/romar/CodeSourcery/Sourcery_G++_Lite/bin/../lib/gcc/arm-none-linux-gnueabi/4.3.3/../../../../arm-none-linux-gnueabi/include/c++/4.3.3/bits/stl_iterator.h ****       typedef _Container          container_type;
 567:/home/romar/CodeSourcery/Sourcery_G++_Lite/bin/../lib/gcc/arm-none-linux-gnueabi/4.3.3/../../../../arm-none-linux-gnueabi/include/c++/4.3.3/bits/stl_iterator.h **** 
 568:/home/romar/CodeSourcery/Sourcery_G++_Lite/bin/../lib/gcc/arm-none-linux-gnueabi/4.3.3/../../../../arm-none-linux-gnueabi/include/c++/4.3.3/bits/stl_iterator.h ****       /**
 569:/home/romar/CodeSourcery/Sourcery_G++_Lite/bin/../lib/gcc/arm-none-linux-gnueabi/4.3.3/../../../../arm-none-linux-gnueabi/include/c++/4.3.3/bits/stl_iterator.h ****        *  The only way to create this %iterator is with a container and an
 570:/home/romar/CodeSourcery/Sourcery_G++_Lite/bin/../lib/gcc/arm-none-linux-gnueabi/4.3.3/../../../../arm-none-linux-gnueabi/include/c++/4.3.3/bits/stl_iterator.h ****        *  initial position (a normal %iterator into the container).
 571:/home/romar/CodeSourcery/Sourcery_G++_Lite/bin/../lib/gcc/arm-none-linux-gnueabi/4.3.3/../../../../arm-none-linux-gnueabi/include/c++/4.3.3/bits/stl_iterator.h ****       */
 572:/home/romar/CodeSourcery/Sourcery_G++_Lite/bin/../lib/gcc/arm-none-linux-gnueabi/4.3.3/../../../../arm-none-linux-gnueabi/include/c++/4.3.3/bits/stl_iterator.h ****       insert_iterator(_Container& __x, typename _Container::iterator __i)
 573:/home/romar/CodeSourcery/Sourcery_G++_Lite/bin/../lib/gcc/arm-none-linux-gnueabi/4.3.3/../../../../arm-none-linux-gnueabi/include/c++/4.3.3/bits/stl_iterator.h ****       : container(&__x), iter(__i) {}
 574:/home/romar/CodeSourcery/Sourcery_G++_Lite/bin/../lib/gcc/arm-none-linux-gnueabi/4.3.3/../../../../arm-none-linux-gnueabi/include/c++/4.3.3/bits/stl_iterator.h **** 
 575:/home/romar/CodeSourcery/Sourcery_G++_Lite/bin/../lib/gcc/arm-none-linux-gnueabi/4.3.3/../../../../arm-none-linux-gnueabi/include/c++/4.3.3/bits/stl_iterator.h ****       /**
 576:/home/romar/CodeSourcery/Sourcery_G++_Lite/bin/../lib/gcc/arm-none-linux-gnueabi/4.3.3/../../../../arm-none-linux-gnueabi/include/c++/4.3.3/bits/stl_iterator.h ****        *  @param  value  An instance of whatever type
 577:/home/romar/CodeSourcery/Sourcery_G++_Lite/bin/../lib/gcc/arm-none-linux-gnueabi/4.3.3/../../../../arm-none-linux-gnueabi/include/c++/4.3.3/bits/stl_iterator.h ****        *                 container_type::const_reference is; presumably a
 578:/home/romar/CodeSourcery/Sourcery_G++_Lite/bin/../lib/gcc/arm-none-linux-gnueabi/4.3.3/../../../../arm-none-linux-gnueabi/include/c++/4.3.3/bits/stl_iterator.h ****        *                 reference-to-const T for container<T>.
 579:/home/romar/CodeSourcery/Sourcery_G++_Lite/bin/../lib/gcc/arm-none-linux-gnueabi/4.3.3/../../../../arm-none-linux-gnueabi/include/c++/4.3.3/bits/stl_iterator.h ****        *  @return  This %iterator, for chained operations.
 580:/home/romar/CodeSourcery/Sourcery_G++_Lite/bin/../lib/gcc/arm-none-linux-gnueabi/4.3.3/../../../../arm-none-linux-gnueabi/include/c++/4.3.3/bits/stl_iterator.h ****        *
 581:/home/romar/CodeSourcery/Sourcery_G++_Lite/bin/../lib/gcc/arm-none-linux-gnueabi/4.3.3/../../../../arm-none-linux-gnueabi/include/c++/4.3.3/bits/stl_iterator.h ****        *  This kind of %iterator maintains its own position in the
 582:/home/romar/CodeSourcery/Sourcery_G++_Lite/bin/../lib/gcc/arm-none-linux-gnueabi/4.3.3/../../../../arm-none-linux-gnueabi/include/c++/4.3.3/bits/stl_iterator.h ****        *  container.  Assigning a value to the %iterator will insert the
 583:/home/romar/CodeSourcery/Sourcery_G++_Lite/bin/../lib/gcc/arm-none-linux-gnueabi/4.3.3/../../../../arm-none-linux-gnueabi/include/c++/4.3.3/bits/stl_iterator.h ****        *  value into the container at the place before the %iterator.
 584:/home/romar/CodeSourcery/Sourcery_G++_Lite/bin/../lib/gcc/arm-none-linux-gnueabi/4.3.3/../../../../arm-none-linux-gnueabi/include/c++/4.3.3/bits/stl_iterator.h ****        *
 585:/home/romar/CodeSourcery/Sourcery_G++_Lite/bin/../lib/gcc/arm-none-linux-gnueabi/4.3.3/../../../../arm-none-linux-gnueabi/include/c++/4.3.3/bits/stl_iterator.h ****        *  The position is maintained such that subsequent assignments will
 586:/home/romar/CodeSourcery/Sourcery_G++_Lite/bin/../lib/gcc/arm-none-linux-gnueabi/4.3.3/../../../../arm-none-linux-gnueabi/include/c++/4.3.3/bits/stl_iterator.h ****        *  insert values immediately after one another.  For example,
 587:/home/romar/CodeSourcery/Sourcery_G++_Lite/bin/../lib/gcc/arm-none-linux-gnueabi/4.3.3/../../../../arm-none-linux-gnueabi/include/c++/4.3.3/bits/stl_iterator.h ****        *  @code
 588:/home/romar/CodeSourcery/Sourcery_G++_Lite/bin/../lib/gcc/arm-none-linux-gnueabi/4.3.3/../../../../arm-none-linux-gnueabi/include/c++/4.3.3/bits/stl_iterator.h ****        *     // vector v contains A and Z
 589:/home/romar/CodeSourcery/Sourcery_G++_Lite/bin/../lib/gcc/arm-none-linux-gnueabi/4.3.3/../../../../arm-none-linux-gnueabi/include/c++/4.3.3/bits/stl_iterator.h ****        *
 590:/home/romar/CodeSourcery/Sourcery_G++_Lite/bin/../lib/gcc/arm-none-linux-gnueabi/4.3.3/../../../../arm-none-linux-gnueabi/include/c++/4.3.3/bits/stl_iterator.h ****        *     insert_iterator i (v, ++v.begin());
 591:/home/romar/CodeSourcery/Sourcery_G++_Lite/bin/../lib/gcc/arm-none-linux-gnueabi/4.3.3/../../../../arm-none-linux-gnueabi/include/c++/4.3.3/bits/stl_iterator.h ****        *     i = 1;
 592:/home/romar/CodeSourcery/Sourcery_G++_Lite/bin/../lib/gcc/arm-none-linux-gnueabi/4.3.3/../../../../arm-none-linux-gnueabi/include/c++/4.3.3/bits/stl_iterator.h ****        *     i = 2;
 593:/home/romar/CodeSourcery/Sourcery_G++_Lite/bin/../lib/gcc/arm-none-linux-gnueabi/4.3.3/../../../../arm-none-linux-gnueabi/include/c++/4.3.3/bits/stl_iterator.h ****        *     i = 3;
 594:/home/romar/CodeSourcery/Sourcery_G++_Lite/bin/../lib/gcc/arm-none-linux-gnueabi/4.3.3/../../../../arm-none-linux-gnueabi/include/c++/4.3.3/bits/stl_iterator.h ****        *
 595:/home/romar/CodeSourcery/Sourcery_G++_Lite/bin/../lib/gcc/arm-none-linux-gnueabi/4.3.3/../../../../arm-none-linux-gnueabi/include/c++/4.3.3/bits/stl_iterator.h ****        *     // vector v contains A, 1, 2, 3, and Z
 596:/home/romar/CodeSourcery/Sourcery_G++_Lite/bin/../lib/gcc/arm-none-linux-gnueabi/4.3.3/../../../../arm-none-linux-gnueabi/include/c++/4.3.3/bits/stl_iterator.h ****        *  @endcode
 597:/home/romar/CodeSourcery/Sourcery_G++_Lite/bin/../lib/gcc/arm-none-linux-gnueabi/4.3.3/../../../../arm-none-linux-gnueabi/include/c++/4.3.3/bits/stl_iterator.h ****       */
 598:/home/romar/CodeSourcery/Sourcery_G++_Lite/bin/../lib/gcc/arm-none-linux-gnueabi/4.3.3/../../../../arm-none-linux-gnueabi/include/c++/4.3.3/bits/stl_iterator.h ****       insert_iterator&
 599:/home/romar/CodeSourcery/Sourcery_G++_Lite/bin/../lib/gcc/arm-none-linux-gnueabi/4.3.3/../../../../arm-none-linux-gnueabi/include/c++/4.3.3/bits/stl_iterator.h ****       operator=(typename _Container::const_reference __value)
 600:/home/romar/CodeSourcery/Sourcery_G++_Lite/bin/../lib/gcc/arm-none-linux-gnueabi/4.3.3/../../../../arm-none-linux-gnueabi/include/c++/4.3.3/bits/stl_iterator.h ****       {
 601:/home/romar/CodeSourcery/Sourcery_G++_Lite/bin/../lib/gcc/arm-none-linux-gnueabi/4.3.3/../../../../arm-none-linux-gnueabi/include/c++/4.3.3/bits/stl_iterator.h **** 	iter = container->insert(iter, __value);
 602:/home/romar/CodeSourcery/Sourcery_G++_Lite/bin/../lib/gcc/arm-none-linux-gnueabi/4.3.3/../../../../arm-none-linux-gnueabi/include/c++/4.3.3/bits/stl_iterator.h **** 	++iter;
 603:/home/romar/CodeSourcery/Sourcery_G++_Lite/bin/../lib/gcc/arm-none-linux-gnueabi/4.3.3/../../../../arm-none-linux-gnueabi/include/c++/4.3.3/bits/stl_iterator.h **** 	return *this;
 604:/home/romar/CodeSourcery/Sourcery_G++_Lite/bin/../lib/gcc/arm-none-linux-gnueabi/4.3.3/../../../../arm-none-linux-gnueabi/include/c++/4.3.3/bits/stl_iterator.h ****       }
 605:/home/romar/CodeSourcery/Sourcery_G++_Lite/bin/../lib/gcc/arm-none-linux-gnueabi/4.3.3/../../../../arm-none-linux-gnueabi/include/c++/4.3.3/bits/stl_iterator.h **** 
 606:/home/romar/CodeSourcery/Sourcery_G++_Lite/bin/../lib/gcc/arm-none-linux-gnueabi/4.3.3/../../../../arm-none-linux-gnueabi/include/c++/4.3.3/bits/stl_iterator.h **** #ifdef __GXX_EXPERIMENTAL_CXX0X__
 607:/home/romar/CodeSourcery/Sourcery_G++_Lite/bin/../lib/gcc/arm-none-linux-gnueabi/4.3.3/../../../../arm-none-linux-gnueabi/include/c++/4.3.3/bits/stl_iterator.h ****       insert_iterator&
 608:/home/romar/CodeSourcery/Sourcery_G++_Lite/bin/../lib/gcc/arm-none-linux-gnueabi/4.3.3/../../../../arm-none-linux-gnueabi/include/c++/4.3.3/bits/stl_iterator.h ****       operator=(typename _Container::value_type&& __value)
 609:/home/romar/CodeSourcery/Sourcery_G++_Lite/bin/../lib/gcc/arm-none-linux-gnueabi/4.3.3/../../../../arm-none-linux-gnueabi/include/c++/4.3.3/bits/stl_iterator.h ****       {
 610:/home/romar/CodeSourcery/Sourcery_G++_Lite/bin/../lib/gcc/arm-none-linux-gnueabi/4.3.3/../../../../arm-none-linux-gnueabi/include/c++/4.3.3/bits/stl_iterator.h **** 	iter = container->insert(iter, std::move(__value));
 611:/home/romar/CodeSourcery/Sourcery_G++_Lite/bin/../lib/gcc/arm-none-linux-gnueabi/4.3.3/../../../../arm-none-linux-gnueabi/include/c++/4.3.3/bits/stl_iterator.h **** 	++iter;
 612:/home/romar/CodeSourcery/Sourcery_G++_Lite/bin/../lib/gcc/arm-none-linux-gnueabi/4.3.3/../../../../arm-none-linux-gnueabi/include/c++/4.3.3/bits/stl_iterator.h **** 	return *this;
 613:/home/romar/CodeSourcery/Sourcery_G++_Lite/bin/../lib/gcc/arm-none-linux-gnueabi/4.3.3/../../../../arm-none-linux-gnueabi/include/c++/4.3.3/bits/stl_iterator.h ****       }
 614:/home/romar/CodeSourcery/Sourcery_G++_Lite/bin/../lib/gcc/arm-none-linux-gnueabi/4.3.3/../../../../arm-none-linux-gnueabi/include/c++/4.3.3/bits/stl_iterator.h **** #endif
 615:/home/romar/CodeSourcery/Sourcery_G++_Lite/bin/../lib/gcc/arm-none-linux-gnueabi/4.3.3/../../../../arm-none-linux-gnueabi/include/c++/4.3.3/bits/stl_iterator.h **** 
 616:/home/romar/CodeSourcery/Sourcery_G++_Lite/bin/../lib/gcc/arm-none-linux-gnueabi/4.3.3/../../../../arm-none-linux-gnueabi/include/c++/4.3.3/bits/stl_iterator.h ****       /// Simply returns *this.
 617:/home/romar/CodeSourcery/Sourcery_G++_Lite/bin/../lib/gcc/arm-none-linux-gnueabi/4.3.3/../../../../arm-none-linux-gnueabi/include/c++/4.3.3/bits/stl_iterator.h ****       insert_iterator&
 618:/home/romar/CodeSourcery/Sourcery_G++_Lite/bin/../lib/gcc/arm-none-linux-gnueabi/4.3.3/../../../../arm-none-linux-gnueabi/include/c++/4.3.3/bits/stl_iterator.h ****       operator*()
 619:/home/romar/CodeSourcery/Sourcery_G++_Lite/bin/../lib/gcc/arm-none-linux-gnueabi/4.3.3/../../../../arm-none-linux-gnueabi/include/c++/4.3.3/bits/stl_iterator.h ****       { return *this; }
 620:/home/romar/CodeSourcery/Sourcery_G++_Lite/bin/../lib/gcc/arm-none-linux-gnueabi/4.3.3/../../../../arm-none-linux-gnueabi/include/c++/4.3.3/bits/stl_iterator.h **** 
 621:/home/romar/CodeSourcery/Sourcery_G++_Lite/bin/../lib/gcc/arm-none-linux-gnueabi/4.3.3/../../../../arm-none-linux-gnueabi/include/c++/4.3.3/bits/stl_iterator.h ****       /// Simply returns *this.  (This %iterator does not "move".)
 622:/home/romar/CodeSourcery/Sourcery_G++_Lite/bin/../lib/gcc/arm-none-linux-gnueabi/4.3.3/../../../../arm-none-linux-gnueabi/include/c++/4.3.3/bits/stl_iterator.h ****       insert_iterator&
 623:/home/romar/CodeSourcery/Sourcery_G++_Lite/bin/../lib/gcc/arm-none-linux-gnueabi/4.3.3/../../../../arm-none-linux-gnueabi/include/c++/4.3.3/bits/stl_iterator.h ****       operator++()
 624:/home/romar/CodeSourcery/Sourcery_G++_Lite/bin/../lib/gcc/arm-none-linux-gnueabi/4.3.3/../../../../arm-none-linux-gnueabi/include/c++/4.3.3/bits/stl_iterator.h ****       { return *this; }
 625:/home/romar/CodeSourcery/Sourcery_G++_Lite/bin/../lib/gcc/arm-none-linux-gnueabi/4.3.3/../../../../arm-none-linux-gnueabi/include/c++/4.3.3/bits/stl_iterator.h **** 
 626:/home/romar/CodeSourcery/Sourcery_G++_Lite/bin/../lib/gcc/arm-none-linux-gnueabi/4.3.3/../../../../arm-none-linux-gnueabi/include/c++/4.3.3/bits/stl_iterator.h ****       /// Simply returns *this.  (This %iterator does not "move".)
 627:/home/romar/CodeSourcery/Sourcery_G++_Lite/bin/../lib/gcc/arm-none-linux-gnueabi/4.3.3/../../../../arm-none-linux-gnueabi/include/c++/4.3.3/bits/stl_iterator.h ****       insert_iterator&
 628:/home/romar/CodeSourcery/Sourcery_G++_Lite/bin/../lib/gcc/arm-none-linux-gnueabi/4.3.3/../../../../arm-none-linux-gnueabi/include/c++/4.3.3/bits/stl_iterator.h ****       operator++(int)
 629:/home/romar/CodeSourcery/Sourcery_G++_Lite/bin/../lib/gcc/arm-none-linux-gnueabi/4.3.3/../../../../arm-none-linux-gnueabi/include/c++/4.3.3/bits/stl_iterator.h ****       { return *this; }
 630:/home/romar/CodeSourcery/Sourcery_G++_Lite/bin/../lib/gcc/arm-none-linux-gnueabi/4.3.3/../../../../arm-none-linux-gnueabi/include/c++/4.3.3/bits/stl_iterator.h ****     };
 631:/home/romar/CodeSourcery/Sourcery_G++_Lite/bin/../lib/gcc/arm-none-linux-gnueabi/4.3.3/../../../../arm-none-linux-gnueabi/include/c++/4.3.3/bits/stl_iterator.h **** 
 632:/home/romar/CodeSourcery/Sourcery_G++_Lite/bin/../lib/gcc/arm-none-linux-gnueabi/4.3.3/../../../../arm-none-linux-gnueabi/include/c++/4.3.3/bits/stl_iterator.h ****   /**
 633:/home/romar/CodeSourcery/Sourcery_G++_Lite/bin/../lib/gcc/arm-none-linux-gnueabi/4.3.3/../../../../arm-none-linux-gnueabi/include/c++/4.3.3/bits/stl_iterator.h ****    *  @param  x  A container of arbitrary type.
 634:/home/romar/CodeSourcery/Sourcery_G++_Lite/bin/../lib/gcc/arm-none-linux-gnueabi/4.3.3/../../../../arm-none-linux-gnueabi/include/c++/4.3.3/bits/stl_iterator.h ****    *  @return  An instance of insert_iterator working on @p x.
 635:/home/romar/CodeSourcery/Sourcery_G++_Lite/bin/../lib/gcc/arm-none-linux-gnueabi/4.3.3/../../../../arm-none-linux-gnueabi/include/c++/4.3.3/bits/stl_iterator.h ****    *
 636:/home/romar/CodeSourcery/Sourcery_G++_Lite/bin/../lib/gcc/arm-none-linux-gnueabi/4.3.3/../../../../arm-none-linux-gnueabi/include/c++/4.3.3/bits/stl_iterator.h ****    *  This wrapper function helps in creating insert_iterator instances.
 637:/home/romar/CodeSourcery/Sourcery_G++_Lite/bin/../lib/gcc/arm-none-linux-gnueabi/4.3.3/../../../../arm-none-linux-gnueabi/include/c++/4.3.3/bits/stl_iterator.h ****    *  Typing the name of the %iterator requires knowing the precise full
 638:/home/romar/CodeSourcery/Sourcery_G++_Lite/bin/../lib/gcc/arm-none-linux-gnueabi/4.3.3/../../../../arm-none-linux-gnueabi/include/c++/4.3.3/bits/stl_iterator.h ****    *  type of the container, which can be tedious and impedes generic
 639:/home/romar/CodeSourcery/Sourcery_G++_Lite/bin/../lib/gcc/arm-none-linux-gnueabi/4.3.3/../../../../arm-none-linux-gnueabi/include/c++/4.3.3/bits/stl_iterator.h ****    *  programming.  Using this function lets you take advantage of automatic
 640:/home/romar/CodeSourcery/Sourcery_G++_Lite/bin/../lib/gcc/arm-none-linux-gnueabi/4.3.3/../../../../arm-none-linux-gnueabi/include/c++/4.3.3/bits/stl_iterator.h ****    *  template parameter deduction, making the compiler match the correct
 641:/home/romar/CodeSourcery/Sourcery_G++_Lite/bin/../lib/gcc/arm-none-linux-gnueabi/4.3.3/../../../../arm-none-linux-gnueabi/include/c++/4.3.3/bits/stl_iterator.h ****    *  types for you.
 642:/home/romar/CodeSourcery/Sourcery_G++_Lite/bin/../lib/gcc/arm-none-linux-gnueabi/4.3.3/../../../../arm-none-linux-gnueabi/include/c++/4.3.3/bits/stl_iterator.h ****   */
 643:/home/romar/CodeSourcery/Sourcery_G++_Lite/bin/../lib/gcc/arm-none-linux-gnueabi/4.3.3/../../../../arm-none-linux-gnueabi/include/c++/4.3.3/bits/stl_iterator.h ****   template<typename _Container, typename _Iterator>
 644:/home/romar/CodeSourcery/Sourcery_G++_Lite/bin/../lib/gcc/arm-none-linux-gnueabi/4.3.3/../../../../arm-none-linux-gnueabi/include/c++/4.3.3/bits/stl_iterator.h ****     inline insert_iterator<_Container>
 645:/home/romar/CodeSourcery/Sourcery_G++_Lite/bin/../lib/gcc/arm-none-linux-gnueabi/4.3.3/../../../../arm-none-linux-gnueabi/include/c++/4.3.3/bits/stl_iterator.h ****     inserter(_Container& __x, _Iterator __i)
 646:/home/romar/CodeSourcery/Sourcery_G++_Lite/bin/../lib/gcc/arm-none-linux-gnueabi/4.3.3/../../../../arm-none-linux-gnueabi/include/c++/4.3.3/bits/stl_iterator.h ****     {
 647:/home/romar/CodeSourcery/Sourcery_G++_Lite/bin/../lib/gcc/arm-none-linux-gnueabi/4.3.3/../../../../arm-none-linux-gnueabi/include/c++/4.3.3/bits/stl_iterator.h ****       return insert_iterator<_Container>(__x,
 648:/home/romar/CodeSourcery/Sourcery_G++_Lite/bin/../lib/gcc/arm-none-linux-gnueabi/4.3.3/../../../../arm-none-linux-gnueabi/include/c++/4.3.3/bits/stl_iterator.h **** 					 typename _Container::iterator(__i));
 649:/home/romar/CodeSourcery/Sourcery_G++_Lite/bin/../lib/gcc/arm-none-linux-gnueabi/4.3.3/../../../../arm-none-linux-gnueabi/include/c++/4.3.3/bits/stl_iterator.h ****     }
 650:/home/romar/CodeSourcery/Sourcery_G++_Lite/bin/../lib/gcc/arm-none-linux-gnueabi/4.3.3/../../../../arm-none-linux-gnueabi/include/c++/4.3.3/bits/stl_iterator.h **** 
 651:/home/romar/CodeSourcery/Sourcery_G++_Lite/bin/../lib/gcc/arm-none-linux-gnueabi/4.3.3/../../../../arm-none-linux-gnueabi/include/c++/4.3.3/bits/stl_iterator.h **** _GLIBCXX_END_NAMESPACE
 652:/home/romar/CodeSourcery/Sourcery_G++_Lite/bin/../lib/gcc/arm-none-linux-gnueabi/4.3.3/../../../../arm-none-linux-gnueabi/include/c++/4.3.3/bits/stl_iterator.h **** 
 653:/home/romar/CodeSourcery/Sourcery_G++_Lite/bin/../lib/gcc/arm-none-linux-gnueabi/4.3.3/../../../../arm-none-linux-gnueabi/include/c++/4.3.3/bits/stl_iterator.h **** _GLIBCXX_BEGIN_NAMESPACE(__gnu_cxx)
 654:/home/romar/CodeSourcery/Sourcery_G++_Lite/bin/../lib/gcc/arm-none-linux-gnueabi/4.3.3/../../../../arm-none-linux-gnueabi/include/c++/4.3.3/bits/stl_iterator.h **** 
 655:/home/romar/CodeSourcery/Sourcery_G++_Lite/bin/../lib/gcc/arm-none-linux-gnueabi/4.3.3/../../../../arm-none-linux-gnueabi/include/c++/4.3.3/bits/stl_iterator.h ****   // This iterator adapter is 'normal' in the sense that it does not
 656:/home/romar/CodeSourcery/Sourcery_G++_Lite/bin/../lib/gcc/arm-none-linux-gnueabi/4.3.3/../../../../arm-none-linux-gnueabi/include/c++/4.3.3/bits/stl_iterator.h ****   // change the semantics of any of the operators of its iterator
 657:/home/romar/CodeSourcery/Sourcery_G++_Lite/bin/../lib/gcc/arm-none-linux-gnueabi/4.3.3/../../../../arm-none-linux-gnueabi/include/c++/4.3.3/bits/stl_iterator.h ****   // parameter.  Its primary purpose is to convert an iterator that is
 658:/home/romar/CodeSourcery/Sourcery_G++_Lite/bin/../lib/gcc/arm-none-linux-gnueabi/4.3.3/../../../../arm-none-linux-gnueabi/include/c++/4.3.3/bits/stl_iterator.h ****   // not a class, e.g. a pointer, into an iterator that is a class.
 659:/home/romar/CodeSourcery/Sourcery_G++_Lite/bin/../lib/gcc/arm-none-linux-gnueabi/4.3.3/../../../../arm-none-linux-gnueabi/include/c++/4.3.3/bits/stl_iterator.h ****   // The _Container parameter exists solely so that different containers
 660:/home/romar/CodeSourcery/Sourcery_G++_Lite/bin/../lib/gcc/arm-none-linux-gnueabi/4.3.3/../../../../arm-none-linux-gnueabi/include/c++/4.3.3/bits/stl_iterator.h ****   // using this template can instantiate different types, even if the
 661:/home/romar/CodeSourcery/Sourcery_G++_Lite/bin/../lib/gcc/arm-none-linux-gnueabi/4.3.3/../../../../arm-none-linux-gnueabi/include/c++/4.3.3/bits/stl_iterator.h ****   // _Iterator parameter is the same.
 662:/home/romar/CodeSourcery/Sourcery_G++_Lite/bin/../lib/gcc/arm-none-linux-gnueabi/4.3.3/../../../../arm-none-linux-gnueabi/include/c++/4.3.3/bits/stl_iterator.h ****   using std::iterator_traits;
 663:/home/romar/CodeSourcery/Sourcery_G++_Lite/bin/../lib/gcc/arm-none-linux-gnueabi/4.3.3/../../../../arm-none-linux-gnueabi/include/c++/4.3.3/bits/stl_iterator.h ****   using std::iterator;
 664:/home/romar/CodeSourcery/Sourcery_G++_Lite/bin/../lib/gcc/arm-none-linux-gnueabi/4.3.3/../../../../arm-none-linux-gnueabi/include/c++/4.3.3/bits/stl_iterator.h ****   template<typename _Iterator, typename _Container>
 665:/home/romar/CodeSourcery/Sourcery_G++_Lite/bin/../lib/gcc/arm-none-linux-gnueabi/4.3.3/../../../../arm-none-linux-gnueabi/include/c++/4.3.3/bits/stl_iterator.h ****     class __normal_iterator
 666:/home/romar/CodeSourcery/Sourcery_G++_Lite/bin/../lib/gcc/arm-none-linux-gnueabi/4.3.3/../../../../arm-none-linux-gnueabi/include/c++/4.3.3/bits/stl_iterator.h ****     {
 667:/home/romar/CodeSourcery/Sourcery_G++_Lite/bin/../lib/gcc/arm-none-linux-gnueabi/4.3.3/../../../../arm-none-linux-gnueabi/include/c++/4.3.3/bits/stl_iterator.h ****     protected:
 668:/home/romar/CodeSourcery/Sourcery_G++_Lite/bin/../lib/gcc/arm-none-linux-gnueabi/4.3.3/../../../../arm-none-linux-gnueabi/include/c++/4.3.3/bits/stl_iterator.h ****       _Iterator _M_current;
 669:/home/romar/CodeSourcery/Sourcery_G++_Lite/bin/../lib/gcc/arm-none-linux-gnueabi/4.3.3/../../../../arm-none-linux-gnueabi/include/c++/4.3.3/bits/stl_iterator.h **** 
 670:/home/romar/CodeSourcery/Sourcery_G++_Lite/bin/../lib/gcc/arm-none-linux-gnueabi/4.3.3/../../../../arm-none-linux-gnueabi/include/c++/4.3.3/bits/stl_iterator.h ****     public:
 671:/home/romar/CodeSourcery/Sourcery_G++_Lite/bin/../lib/gcc/arm-none-linux-gnueabi/4.3.3/../../../../arm-none-linux-gnueabi/include/c++/4.3.3/bits/stl_iterator.h ****       typedef _Iterator					     iterator_type;
 672:/home/romar/CodeSourcery/Sourcery_G++_Lite/bin/../lib/gcc/arm-none-linux-gnueabi/4.3.3/../../../../arm-none-linux-gnueabi/include/c++/4.3.3/bits/stl_iterator.h ****       typedef typename iterator_traits<_Iterator>::iterator_category
 673:/home/romar/CodeSourcery/Sourcery_G++_Lite/bin/../lib/gcc/arm-none-linux-gnueabi/4.3.3/../../../../arm-none-linux-gnueabi/include/c++/4.3.3/bits/stl_iterator.h ****                                                              iterator_category;
 674:/home/romar/CodeSourcery/Sourcery_G++_Lite/bin/../lib/gcc/arm-none-linux-gnueabi/4.3.3/../../../../arm-none-linux-gnueabi/include/c++/4.3.3/bits/stl_iterator.h ****       typedef typename iterator_traits<_Iterator>::value_type  value_type;
 675:/home/romar/CodeSourcery/Sourcery_G++_Lite/bin/../lib/gcc/arm-none-linux-gnueabi/4.3.3/../../../../arm-none-linux-gnueabi/include/c++/4.3.3/bits/stl_iterator.h ****       typedef typename iterator_traits<_Iterator>::difference_type
 676:/home/romar/CodeSourcery/Sourcery_G++_Lite/bin/../lib/gcc/arm-none-linux-gnueabi/4.3.3/../../../../arm-none-linux-gnueabi/include/c++/4.3.3/bits/stl_iterator.h ****                                                              difference_type;
 677:/home/romar/CodeSourcery/Sourcery_G++_Lite/bin/../lib/gcc/arm-none-linux-gnueabi/4.3.3/../../../../arm-none-linux-gnueabi/include/c++/4.3.3/bits/stl_iterator.h ****       typedef typename iterator_traits<_Iterator>::reference reference;
 678:/home/romar/CodeSourcery/Sourcery_G++_Lite/bin/../lib/gcc/arm-none-linux-gnueabi/4.3.3/../../../../arm-none-linux-gnueabi/include/c++/4.3.3/bits/stl_iterator.h ****       typedef typename iterator_traits<_Iterator>::pointer   pointer;
 679:/home/romar/CodeSourcery/Sourcery_G++_Lite/bin/../lib/gcc/arm-none-linux-gnueabi/4.3.3/../../../../arm-none-linux-gnueabi/include/c++/4.3.3/bits/stl_iterator.h **** 
 680:/home/romar/CodeSourcery/Sourcery_G++_Lite/bin/../lib/gcc/arm-none-linux-gnueabi/4.3.3/../../../../arm-none-linux-gnueabi/include/c++/4.3.3/bits/stl_iterator.h ****       __normal_iterator() : _M_current(_Iterator()) { }
 681:/home/romar/CodeSourcery/Sourcery_G++_Lite/bin/../lib/gcc/arm-none-linux-gnueabi/4.3.3/../../../../arm-none-linux-gnueabi/include/c++/4.3.3/bits/stl_iterator.h **** 
 682:/home/romar/CodeSourcery/Sourcery_G++_Lite/bin/../lib/gcc/arm-none-linux-gnueabi/4.3.3/../../../../arm-none-linux-gnueabi/include/c++/4.3.3/bits/stl_iterator.h ****       explicit
 683:/home/romar/CodeSourcery/Sourcery_G++_Lite/bin/../lib/gcc/arm-none-linux-gnueabi/4.3.3/../../../../arm-none-linux-gnueabi/include/c++/4.3.3/bits/stl_iterator.h ****       __normal_iterator(const _Iterator& __i) : _M_current(__i) { }
 684:/home/romar/CodeSourcery/Sourcery_G++_Lite/bin/../lib/gcc/arm-none-linux-gnueabi/4.3.3/../../../../arm-none-linux-gnueabi/include/c++/4.3.3/bits/stl_iterator.h **** 
 685:/home/romar/CodeSourcery/Sourcery_G++_Lite/bin/../lib/gcc/arm-none-linux-gnueabi/4.3.3/../../../../arm-none-linux-gnueabi/include/c++/4.3.3/bits/stl_iterator.h ****       // Allow iterator to const_iterator conversion
 686:/home/romar/CodeSourcery/Sourcery_G++_Lite/bin/../lib/gcc/arm-none-linux-gnueabi/4.3.3/../../../../arm-none-linux-gnueabi/include/c++/4.3.3/bits/stl_iterator.h ****       template<typename _Iter>
 687:/home/romar/CodeSourcery/Sourcery_G++_Lite/bin/../lib/gcc/arm-none-linux-gnueabi/4.3.3/../../../../arm-none-linux-gnueabi/include/c++/4.3.3/bits/stl_iterator.h ****         __normal_iterator(const __normal_iterator<_Iter,
 688:/home/romar/CodeSourcery/Sourcery_G++_Lite/bin/../lib/gcc/arm-none-linux-gnueabi/4.3.3/../../../../arm-none-linux-gnueabi/include/c++/4.3.3/bits/stl_iterator.h **** 			  typename __enable_if<
 689:/home/romar/CodeSourcery/Sourcery_G++_Lite/bin/../lib/gcc/arm-none-linux-gnueabi/4.3.3/../../../../arm-none-linux-gnueabi/include/c++/4.3.3/bits/stl_iterator.h ****       	       (std::__are_same<_Iter, typename _Container::pointer>::__value),
 690:/home/romar/CodeSourcery/Sourcery_G++_Lite/bin/../lib/gcc/arm-none-linux-gnueabi/4.3.3/../../../../arm-none-linux-gnueabi/include/c++/4.3.3/bits/stl_iterator.h **** 		      _Container>::__type>& __i)
 691:/home/romar/CodeSourcery/Sourcery_G++_Lite/bin/../lib/gcc/arm-none-linux-gnueabi/4.3.3/../../../../arm-none-linux-gnueabi/include/c++/4.3.3/bits/stl_iterator.h ****         : _M_current(__i.base()) { }
 692:/home/romar/CodeSourcery/Sourcery_G++_Lite/bin/../lib/gcc/arm-none-linux-gnueabi/4.3.3/../../../../arm-none-linux-gnueabi/include/c++/4.3.3/bits/stl_iterator.h **** 
 693:/home/romar/CodeSourcery/Sourcery_G++_Lite/bin/../lib/gcc/arm-none-linux-gnueabi/4.3.3/../../../../arm-none-linux-gnueabi/include/c++/4.3.3/bits/stl_iterator.h ****       // Forward iterator requirements
 694:/home/romar/CodeSourcery/Sourcery_G++_Lite/bin/../lib/gcc/arm-none-linux-gnueabi/4.3.3/../../../../arm-none-linux-gnueabi/include/c++/4.3.3/bits/stl_iterator.h ****       reference
 695:/home/romar/CodeSourcery/Sourcery_G++_Lite/bin/../lib/gcc/arm-none-linux-gnueabi/4.3.3/../../../../arm-none-linux-gnueabi/include/c++/4.3.3/bits/stl_iterator.h ****       operator*() const
 696:/home/romar/CodeSourcery/Sourcery_G++_Lite/bin/../lib/gcc/arm-none-linux-gnueabi/4.3.3/../../../../arm-none-linux-gnueabi/include/c++/4.3.3/bits/stl_iterator.h ****       { return *_M_current; }
 697:/home/romar/CodeSourcery/Sourcery_G++_Lite/bin/../lib/gcc/arm-none-linux-gnueabi/4.3.3/../../../../arm-none-linux-gnueabi/include/c++/4.3.3/bits/stl_iterator.h **** 
 698:/home/romar/CodeSourcery/Sourcery_G++_Lite/bin/../lib/gcc/arm-none-linux-gnueabi/4.3.3/../../../../arm-none-linux-gnueabi/include/c++/4.3.3/bits/stl_iterator.h ****       pointer
 699:/home/romar/CodeSourcery/Sourcery_G++_Lite/bin/../lib/gcc/arm-none-linux-gnueabi/4.3.3/../../../../arm-none-linux-gnueabi/include/c++/4.3.3/bits/stl_iterator.h ****       operator->() const
 700:/home/romar/CodeSourcery/Sourcery_G++_Lite/bin/../lib/gcc/arm-none-linux-gnueabi/4.3.3/../../../../arm-none-linux-gnueabi/include/c++/4.3.3/bits/stl_iterator.h ****       { return _M_current; }
 701:/home/romar/CodeSourcery/Sourcery_G++_Lite/bin/../lib/gcc/arm-none-linux-gnueabi/4.3.3/../../../../arm-none-linux-gnueabi/include/c++/4.3.3/bits/stl_iterator.h **** 
 702:/home/romar/CodeSourcery/Sourcery_G++_Lite/bin/../lib/gcc/arm-none-linux-gnueabi/4.3.3/../../../../arm-none-linux-gnueabi/include/c++/4.3.3/bits/stl_iterator.h ****       __normal_iterator&
 703:/home/romar/CodeSourcery/Sourcery_G++_Lite/bin/../lib/gcc/arm-none-linux-gnueabi/4.3.3/../../../../arm-none-linux-gnueabi/include/c++/4.3.3/bits/stl_iterator.h ****       operator++()
 15096              		.loc 27 703 0
 15097              		.save	{r7, lr}
 15098 0000 80B5     		push	{r7, lr}
 15099              	.LCFI18:
 15100              		.pad #8
 15101 0002 82B0     		sub	sp, sp, #8
 15102              	.LCFI19:
 15103              		.setfp r7, sp, #0
 15104 0004 00AF     		add	r7, sp, #0
 15105              	.LCFI20:
 15106 0006 7860     		str	r0, [r7, #4]
 704:/home/romar/CodeSourcery/Sourcery_G++_Lite/bin/../lib/gcc/arm-none-linux-gnueabi/4.3.3/../../../../arm-none-linux-gnueabi/include/c++/4.3.3/bits/stl_iterator.h ****       {
 705:/home/romar/CodeSourcery/Sourcery_G++_Lite/bin/../lib/gcc/arm-none-linux-gnueabi/4.3.3/../../../../arm-none-linux-gnueabi/include/c++/4.3.3/bits/stl_iterator.h **** 	++_M_current;
 15107              		.loc 27 705 0
 15108 0008 7B68     		ldr	r3, [r7, #4]
 15109 000a 1B68     		ldr	r3, [r3]
 15110 000c 5A1C     		add	r2, r3, #1
 15111 000e 7B68     		ldr	r3, [r7, #4]
 15112 0010 1A60     		str	r2, [r3]
 706:/home/romar/CodeSourcery/Sourcery_G++_Lite/bin/../lib/gcc/arm-none-linux-gnueabi/4.3.3/../../../../arm-none-linux-gnueabi/include/c++/4.3.3/bits/stl_iterator.h **** 	return *this;
 15113              		.loc 27 706 0
 15114 0012 7B68     		ldr	r3, [r7, #4]
 707:/home/romar/CodeSourcery/Sourcery_G++_Lite/bin/../lib/gcc/arm-none-linux-gnueabi/4.3.3/../../../../arm-none-linux-gnueabi/include/c++/4.3.3/bits/stl_iterator.h ****       }
 15115              		.loc 27 707 0
 15116 0014 181C     		mov	r0, r3
 15117 0016 BD46     		mov	sp, r7
 15118 0018 02B0     		add	sp, sp, #8
 15119              		@ sp needed for prologue
 15120 001a 80BD     		pop	{r7, pc}
 15121              	.LFE1370:
 15122              		.fnend
 15124              		.section	.text._ZNK9__gnu_cxx17__normal_iteratorIPcSsEdeEv,"axG",%progbits,_ZNK9__gnu_cxx17__norma
 15125              		.align	2
 15126              		.weak	_ZNK9__gnu_cxx17__normal_iteratorIPcSsEdeEv
 15127              		.code	16
 15128              		.thumb_func
 15130              	_ZNK9__gnu_cxx17__normal_iteratorIPcSsEdeEv:
 15131              		.fnstart
 15132              	.LFB1372:
 15133              		.loc 27 695 0
 15134              		.save	{r7, lr}
 15135 0000 80B5     		push	{r7, lr}
 15136              	.LCFI21:
 15137              		.pad #8
 15138 0002 82B0     		sub	sp, sp, #8
 15139              	.LCFI22:
 15140              		.setfp r7, sp, #0
 15141 0004 00AF     		add	r7, sp, #0
 15142              	.LCFI23:
 15143 0006 7860     		str	r0, [r7, #4]
 15144              		.loc 27 696 0
 15145 0008 7B68     		ldr	r3, [r7, #4]
 15146 000a 1B68     		ldr	r3, [r3]
 15147 000c 181C     		mov	r0, r3
 15148 000e BD46     		mov	sp, r7
 15149 0010 02B0     		add	sp, sp, #8
 15150              		@ sp needed for prologue
 15151 0012 80BD     		pop	{r7, pc}
 15152              	.LFE1372:
 15153              		.fnend
 15155              		.section	.text._ZSt19__iterator_categoryIN9__gnu_cxx17__normal_iteratorIPcSsEEENSt15iterator_trait
 15156              		.align	2
 15157              		.weak	_ZSt19__iterator_categoryIN9__gnu_cxx17__normal_iteratorIPcSsEEENSt15iterator_traitsIT_E17it
 15158              		.code	16
 15159              		.thumb_func
 15161              	_ZSt19__iterator_categoryIN9__gnu_cxx17__normal_iteratorIPcSsEEENSt15iterator_traitsIT_E17iterator_
 15162              		.fnstart
 15163              	.LFB1416:
   1:/home/romar/CodeSourcery/Sourcery_G++_Lite/bin/../lib/gcc/arm-none-linux-gnueabi/4.3.3/../../../../arm-none-linux-gnueabi/include/c++/4.3.3/bits/stl_iterator_base_types.h **** // Types used in iterator implementation -*- C++ -*-
   2:/home/romar/CodeSourcery/Sourcery_G++_Lite/bin/../lib/gcc/arm-none-linux-gnueabi/4.3.3/../../../../arm-none-linux-gnueabi/include/c++/4.3.3/bits/stl_iterator_base_types.h **** 
   3:/home/romar/CodeSourcery/Sourcery_G++_Lite/bin/../lib/gcc/arm-none-linux-gnueabi/4.3.3/../../../../arm-none-linux-gnueabi/include/c++/4.3.3/bits/stl_iterator_base_types.h **** // Copyright (C) 2001, 2002, 2003, 2004, 2005, 2006, 2007, 2008
   4:/home/romar/CodeSourcery/Sourcery_G++_Lite/bin/../lib/gcc/arm-none-linux-gnueabi/4.3.3/../../../../arm-none-linux-gnueabi/include/c++/4.3.3/bits/stl_iterator_base_types.h **** // Free Software Foundation, Inc.
   5:/home/romar/CodeSourcery/Sourcery_G++_Lite/bin/../lib/gcc/arm-none-linux-gnueabi/4.3.3/../../../../arm-none-linux-gnueabi/include/c++/4.3.3/bits/stl_iterator_base_types.h **** //
   6:/home/romar/CodeSourcery/Sourcery_G++_Lite/bin/../lib/gcc/arm-none-linux-gnueabi/4.3.3/../../../../arm-none-linux-gnueabi/include/c++/4.3.3/bits/stl_iterator_base_types.h **** // This file is part of the GNU ISO C++ Library.  This library is free
   7:/home/romar/CodeSourcery/Sourcery_G++_Lite/bin/../lib/gcc/arm-none-linux-gnueabi/4.3.3/../../../../arm-none-linux-gnueabi/include/c++/4.3.3/bits/stl_iterator_base_types.h **** // software; you can redistribute it and/or modify it under the
   8:/home/romar/CodeSourcery/Sourcery_G++_Lite/bin/../lib/gcc/arm-none-linux-gnueabi/4.3.3/../../../../arm-none-linux-gnueabi/include/c++/4.3.3/bits/stl_iterator_base_types.h **** // terms of the GNU General Public License as published by the
   9:/home/romar/CodeSourcery/Sourcery_G++_Lite/bin/../lib/gcc/arm-none-linux-gnueabi/4.3.3/../../../../arm-none-linux-gnueabi/include/c++/4.3.3/bits/stl_iterator_base_types.h **** // Free Software Foundation; either version 2, or (at your option)
  10:/home/romar/CodeSourcery/Sourcery_G++_Lite/bin/../lib/gcc/arm-none-linux-gnueabi/4.3.3/../../../../arm-none-linux-gnueabi/include/c++/4.3.3/bits/stl_iterator_base_types.h **** // any later version.
  11:/home/romar/CodeSourcery/Sourcery_G++_Lite/bin/../lib/gcc/arm-none-linux-gnueabi/4.3.3/../../../../arm-none-linux-gnueabi/include/c++/4.3.3/bits/stl_iterator_base_types.h **** 
  12:/home/romar/CodeSourcery/Sourcery_G++_Lite/bin/../lib/gcc/arm-none-linux-gnueabi/4.3.3/../../../../arm-none-linux-gnueabi/include/c++/4.3.3/bits/stl_iterator_base_types.h **** // This library is distributed in the hope that it will be useful,
  13:/home/romar/CodeSourcery/Sourcery_G++_Lite/bin/../lib/gcc/arm-none-linux-gnueabi/4.3.3/../../../../arm-none-linux-gnueabi/include/c++/4.3.3/bits/stl_iterator_base_types.h **** // but WITHOUT ANY WARRANTY; without even the implied warranty of
  14:/home/romar/CodeSourcery/Sourcery_G++_Lite/bin/../lib/gcc/arm-none-linux-gnueabi/4.3.3/../../../../arm-none-linux-gnueabi/include/c++/4.3.3/bits/stl_iterator_base_types.h **** // MERCHANTABILITY or FITNESS FOR A PARTICULAR PURPOSE.  See the
  15:/home/romar/CodeSourcery/Sourcery_G++_Lite/bin/../lib/gcc/arm-none-linux-gnueabi/4.3.3/../../../../arm-none-linux-gnueabi/include/c++/4.3.3/bits/stl_iterator_base_types.h **** // GNU General Public License for more details.
  16:/home/romar/CodeSourcery/Sourcery_G++_Lite/bin/../lib/gcc/arm-none-linux-gnueabi/4.3.3/../../../../arm-none-linux-gnueabi/include/c++/4.3.3/bits/stl_iterator_base_types.h **** 
  17:/home/romar/CodeSourcery/Sourcery_G++_Lite/bin/../lib/gcc/arm-none-linux-gnueabi/4.3.3/../../../../arm-none-linux-gnueabi/include/c++/4.3.3/bits/stl_iterator_base_types.h **** // You should have received a copy of the GNU General Public License along
  18:/home/romar/CodeSourcery/Sourcery_G++_Lite/bin/../lib/gcc/arm-none-linux-gnueabi/4.3.3/../../../../arm-none-linux-gnueabi/include/c++/4.3.3/bits/stl_iterator_base_types.h **** // with this library; see the file COPYING.  If not, write to the Free
  19:/home/romar/CodeSourcery/Sourcery_G++_Lite/bin/../lib/gcc/arm-none-linux-gnueabi/4.3.3/../../../../arm-none-linux-gnueabi/include/c++/4.3.3/bits/stl_iterator_base_types.h **** // Software Foundation, 51 Franklin Street, Fifth Floor, Boston, MA 02110-1301,
  20:/home/romar/CodeSourcery/Sourcery_G++_Lite/bin/../lib/gcc/arm-none-linux-gnueabi/4.3.3/../../../../arm-none-linux-gnueabi/include/c++/4.3.3/bits/stl_iterator_base_types.h **** // USA.
  21:/home/romar/CodeSourcery/Sourcery_G++_Lite/bin/../lib/gcc/arm-none-linux-gnueabi/4.3.3/../../../../arm-none-linux-gnueabi/include/c++/4.3.3/bits/stl_iterator_base_types.h **** 
  22:/home/romar/CodeSourcery/Sourcery_G++_Lite/bin/../lib/gcc/arm-none-linux-gnueabi/4.3.3/../../../../arm-none-linux-gnueabi/include/c++/4.3.3/bits/stl_iterator_base_types.h **** // As a special exception, you may use this file as part of a free software
  23:/home/romar/CodeSourcery/Sourcery_G++_Lite/bin/../lib/gcc/arm-none-linux-gnueabi/4.3.3/../../../../arm-none-linux-gnueabi/include/c++/4.3.3/bits/stl_iterator_base_types.h **** // library without restriction.  Specifically, if other files instantiate
  24:/home/romar/CodeSourcery/Sourcery_G++_Lite/bin/../lib/gcc/arm-none-linux-gnueabi/4.3.3/../../../../arm-none-linux-gnueabi/include/c++/4.3.3/bits/stl_iterator_base_types.h **** // templates or use macros or inline functions from this file, or you compile
  25:/home/romar/CodeSourcery/Sourcery_G++_Lite/bin/../lib/gcc/arm-none-linux-gnueabi/4.3.3/../../../../arm-none-linux-gnueabi/include/c++/4.3.3/bits/stl_iterator_base_types.h **** // this file and link it with other files to produce an executable, this
  26:/home/romar/CodeSourcery/Sourcery_G++_Lite/bin/../lib/gcc/arm-none-linux-gnueabi/4.3.3/../../../../arm-none-linux-gnueabi/include/c++/4.3.3/bits/stl_iterator_base_types.h **** // file does not by itself cause the resulting executable to be covered by
  27:/home/romar/CodeSourcery/Sourcery_G++_Lite/bin/../lib/gcc/arm-none-linux-gnueabi/4.3.3/../../../../arm-none-linux-gnueabi/include/c++/4.3.3/bits/stl_iterator_base_types.h **** // the GNU General Public License.  This exception does not however
  28:/home/romar/CodeSourcery/Sourcery_G++_Lite/bin/../lib/gcc/arm-none-linux-gnueabi/4.3.3/../../../../arm-none-linux-gnueabi/include/c++/4.3.3/bits/stl_iterator_base_types.h **** // invalidate any other reasons why the executable file might be covered by
  29:/home/romar/CodeSourcery/Sourcery_G++_Lite/bin/../lib/gcc/arm-none-linux-gnueabi/4.3.3/../../../../arm-none-linux-gnueabi/include/c++/4.3.3/bits/stl_iterator_base_types.h **** // the GNU General Public License.
  30:/home/romar/CodeSourcery/Sourcery_G++_Lite/bin/../lib/gcc/arm-none-linux-gnueabi/4.3.3/../../../../arm-none-linux-gnueabi/include/c++/4.3.3/bits/stl_iterator_base_types.h **** 
  31:/home/romar/CodeSourcery/Sourcery_G++_Lite/bin/../lib/gcc/arm-none-linux-gnueabi/4.3.3/../../../../arm-none-linux-gnueabi/include/c++/4.3.3/bits/stl_iterator_base_types.h **** /*
  32:/home/romar/CodeSourcery/Sourcery_G++_Lite/bin/../lib/gcc/arm-none-linux-gnueabi/4.3.3/../../../../arm-none-linux-gnueabi/include/c++/4.3.3/bits/stl_iterator_base_types.h ****  *
  33:/home/romar/CodeSourcery/Sourcery_G++_Lite/bin/../lib/gcc/arm-none-linux-gnueabi/4.3.3/../../../../arm-none-linux-gnueabi/include/c++/4.3.3/bits/stl_iterator_base_types.h ****  * Copyright (c) 1994
  34:/home/romar/CodeSourcery/Sourcery_G++_Lite/bin/../lib/gcc/arm-none-linux-gnueabi/4.3.3/../../../../arm-none-linux-gnueabi/include/c++/4.3.3/bits/stl_iterator_base_types.h ****  * Hewlett-Packard Company
